ccollections
OrderedDict
p0
((lp1
(lp2
VVegeta ssj1
p3
aF1423.5354475070556
aa(lp4
VCell
p5
aF1430.083346978376
aa(lp6
VGinew
p7
aF1439.6834122316245
aa(lp8
VWindows me
p9
aF1440.6348066093656
aa(lp10
VSuigintou
p11
aF1445.932788044451
aa(lp12
VHebiitigo
p13
aF1447.0215512339971
aa(lp14
VCatwoman
p15
aF1449.6549727450738
aa(lp16
VNyaonyao
p17
aF1452.70855635305
aa(lp18
VGoku sb1
p19
aF1452.9190285618408
aa(lp20
VMajin buu
p21
aF1453.9103068559496
aa(lp22
VEdward elrick
p23
aF1455.5632563511845
aa(lp24
VVisbou
p25
aF1456.5863558051192
aa(lp26
VYellow-pipo
p27
aF1456.8391174100561
aa(lp28
VMaximum frieza
p29
aF1457.2774415098124
aa(lp30
VKagome
p31
aF1460.0410789164212
aa(lp32
VPikachu
p33
aF1460.6974070468711
aa(lp34
VMarie
p35
aF1460.7320571786688
aa(lp36
VRouge
p37
aF1462.0871747538565
aa(lp38
VTetsuo
p39
aF1463.9400462447545
aa(lp40
VKnuckles
p41
aF1465.247191328577
aa(lp42
VBrainiac
p43
aF1465.2993485838936
aa(lp44
VBlack manta
p45
aF1465.7444013311797
aa(lp46
VRecoome
p47
aF1466.0031504381955
aa(lp48
VTao jun
p49
aF1468.2092958720284
aa(lp50
VSparta_heika
p51
aF1468.8920279359832
aa(lp52
V95
p53
aF1470.4063100533608
aa(lp54
VYakui san
p55
aF1471.5935880782913
aa(lp56
VNightmare
p57
aF1472.3018107109945
aa(lp58
VVanilla ice
p59
aF1472.6049290247372
aa(lp60
VGogeta ssj
p61
aF1473.0399680152132
aa(lp62
VDio brando
p63
aF1473.0814251222869
aa(lp64
VSinku
p65
aF1473.5091288042263
aa(lp66
VYamiyuki
p67
aF1474.4756881600133
aa(lp68
VGokussj4d
p69
aF1474.9894437470457
aa(lp70
VHercule gt
p71
aF1475.6472173882075
aa(lp72
VShangtsung
p73
aF1476.5587853104994
aa(lp74
VE-102r
p75
aF1477.779922907113
aa(lp76
VModoi-san
p77
aF1478.1664591798099
aa(lp78
VGorunks ssj4
p79
aF1478.9686422119873
aa(lp80
VDinozord
p81
aF1479.5253894260366
aa(lp82
VXanmi chan
p83
aF1480.8345071153992
aa(lp84
VSub zero
p85
aF1481.7523479949557
aa(lp86
VMega piccolo
p87
aF1482.1029689190095
aa(lp88
VRhino
p89
aF1483.0515050125575
aa(lp90
VDante
p91
aF1483.1698981924662
aa(lp92
VX
p93
aF1483.2167261041009
aa(lp94
VBalrog
p95
aF1483.8992053591899
aa(lp96
VMega gohan
p97
aF1483.978791056311
aa(lp98
VBlaster
p99
aF1484.4234921065352
aa(lp100
VThink
p101
aF1485.3220343872486
aa(lp102
VCartman
p103
aF1486.3149574299764
aa(lp104
VAoi-ko
p105
aF1486.4815782721528
aa(lp106
VOgitafanada
p107
aF1487.0660271173656
aa(lp108
VAmy
p109
aF1487.7198884742238
aa(lp110
VKumao
p111
aF1487.7508227373519
aa(lp112
VBaiken
p113
aF1488.530198661515
aa(lp114
VZidane
p115
aF1489.0899718903966
aa(lp116
VTrunks
p117
aF1489.224513870375
aa(lp118
VYoshikage killa
p119
aF1489.337678847232
aa(lp120
VSimba
p121
aF1489.7504503415576
aa(lp122
VBoo
p123
aF1490.6468488811254
aa(lp124
VZemial
p125
aF1491.109900349845
aa(lp126
VEnya
p127
aF1491.217967104773
aa(lp128
VGoku normal hd
p129
aF1491.7754979290758
aa(lp130
VVega
p131
aF1491.7854743696394
aa(lp132
VCrono
p133
aF1491.8804722262869
aa(lp134
VMarle
p135
aF1492.528473189215
aa(lp136
VMr.satan
p137
aF1492.7105740362483
aa(lp138
VBaldhead
p139
aF1493.082692871619
aa(lp140
VMagus
p141
aF1493.1209696143849
aa(lp142
VKrillin
p143
aF1493.1217940272122
aa(lp144
VChaos
p145
aF1493.2010866430119
aa(lp146
VSol
p147
aF1493.5838284842882
aa(lp148
VKairi
p149
aF1493.782758268386
aa(lp150
VLink
p151
aF1494.1672176140446
aa(lp152
VSsj4gohan
p153
aF1494.8955897150522
aa(lp154
VKabal
p155
aF1496.4330142675376
aa(lp156
VScorpion
p157
aF1497.277752507261
aa(lp158
VMunch
p159
aF1497.6970372961227
aa(lp160
VZaku
p161
aF1497.9066729903118
aa(lp162
VBabidi
p163
aF1498.6791277364882
aa(lp164
VOmegamon
p165
aF1498.7188408838929
aa(lp166
VKanon
p167
aF1499.045958371839
aa(lp168
VAlucard
p169
aF1499.2007553394994
aa(lp170
VTen-sing
p171
aF1499.2224939945672
aa(lp172
VKomepo
p173
aF1499.3713988708464
aa(lp174
VI-no
p175
aF1500.043868820652
aa(lp176
VKakashi
p177
aF1500.1011140513478
aa(lp178
VHarpagos
p179
aF1500.5606108625814
aa(lp180
VGambit
p181
aF1500.6164473561257
aa(lp182
VSajin
p183
aF1500.7008517693605
aa(lp184
VMio
p185
aF1500.7961792481742
aa(lp186
VSponge bob
p187
aF1501.311924600079
aa(lp188
VDrill asamin
p189
aF1501.3948490107236
aa(lp190
VRecoom
p191
aF1501.674455310893
aa(lp192
VKid gohan
p193
aF1502.3472169106285
aa(lp194
VChipp
p195
aF1502.4193744821462
aa(lp196
VNobuhiko
p197
aF1503.0250319380912
aa(lp198
VChloe
p199
aF1503.119636206462
aa(lp200
V98
p201
aF1504.0556116026698
aa(lp202
VGoku ssj gt
p203
aF1504.1161525133712
aa(lp204
VMotokoaoyama
p205
aF1504.4532041194143
aa(lp206
VDodoria
p207
aF1504.8810003214562
aa(lp208
VAngel ryu
p209
aF1505.2611999901185
aa(lp210
VFreeza 100%
p211
aF1505.5703028621222
aa(lp212
VMariah
p213
aF1506.0665205727144
aa(lp214
VGoku kid
p215
aF1506.1674988539985
aa(lp216
VThunder megazord
p217
aF1506.5121463980784
aa(lp218
VMisery
p219
aF1506.8327404245456
aa(lp220
VVegeta sb1
p221
aF1506.9575107496473
aa(lp222
VV.akiha
p223
aF1507.0318271609758
aa(lp224
VZettaiaku
p225
aF1507.338387304806
aa(lp226
VThierry henry
p227
aF1507.657449947024
aa(lp228
VAbui
p229
aF1508.4170190683212
aa(lp230
VWind
p231
aF1508.436889964802
aa(lp232
VBebi vegeta
p233
aF1508.6581826875333
aa(lp234
VMestre kame
p235
aF1509.295191580417
aa(lp236
VChibi ubuu
p237
aF1509.5656715125945
aa(lp238
V2k
p239
aF1510.086329904337
aa(lp240
V2ban-tan
p241
aF1510.4529986440655
aa(lp242
VXp(pro)
p243
aF1510.4671623718168
aa(lp244
VPolnareff
p245
aF1510.9453927021898
aa(lp246
VG-bit
p247
aF1511.6180370343725
aa(lp248
VJagi
p249
aF1511.6574631887947
aa(lp250
VKhan
p251
aF1511.7302186266613
aa(lp252
VHisui&kohaku;
p253
aF1511.954376605754
aa(lp254
VNorimaro
p255
aF1511.99371302028
aa(lp256
VHyper buu
p257
aF1512.2964261436132
aa(lp258
VAnother jissou seki
p259
aF1512.3061530866823
aa(lp260
VBatgirl
p261
aF1512.316597611517
aa(lp262
VChange dragon
p263
aF1512.9419312779398
aa(lp264
VAxl
p265
aF1512.9488712001144
aa(lp266
VAsuta-san
p267
aF1513.3007802014424
aa(lp268
VExocist(dnf)
p269
aF1513.3561709567286
aa(lp270
VMega vegeta
p271
aF1513.5874918917934
aa(lp272
VJissou seki
p273
aF1514.6533092868838
aa(lp274
VJohnny
p275
aF1514.716636365607
aa(lp276
VDabura
p277
aF1514.798150724317
aa(lp278
VWinnie the pooh
p279
aF1514.857031606305
aa(lp280
VSuperman
p281
aF1515.1154525681068
aa(lp282
VHuman torch
p283
aF1515.2675775717273
aa(lp284
VBishamon
p285
aF1515.817912637584
aa(lp286
VSimonkin2006
p287
aF1515.8908398500453
aa(lp288
VB. magic girl
p289
aF1515.9349231799383
aa(lp290
VBack beard
p291
aF1515.9828165652161
aa(lp292
VWildcat
p293
aF1516.0713409594994
aa(lp294
VUryuu
p295
aF1516.0980540537169
aa(lp296
VMayko
p297
aF1516.1399062436303
aa(lp298
VTetuwo
p299
aF1516.4864708133825
aa(lp300
VSailor moon
p301
aF1516.5531962805462
aa(lp302
VDevo
p303
aF1516.6513086101263
aa(lp304
VTenshinham
p305
aF1516.6723289626188
aa(lp306
VBlob
p307
aF1516.6991521732944
aa(lp308
VSakura shingouji
p309
aF1516.7577608571696
aa(lp310
VKoola
p311
aF1516.789718319552
aa(lp312
VSango
p313
aF1516.9643025824391
aa(lp314
VShadir
p315
aF1516.9981750250838
aa(lp316
VAnother iori
p317
aF1517.0622331602167
aa(lp318
VBanshee
p319
aF1517.2853032394114
aa(lp320
VJill
p321
aF1517.975329622863
aa(lp322
VRobo-kyii
p323
aF1518.399360536687
aa(lp324
VRayman
p325
aF1518.9259431157684
aa(lp326
VMedoi-san
p327
aF1519.3728107707493
aa(lp328
VGuerrero divino del dragn
p329
aF1519.4323838688804
aa(lp330
VFloren
p331
aF1519.4504337434237
aa(lp332
VDragon guy
p333
aF1519.7540592137193
aa(lp334
VSlayer
p335
aF1519.8635373829952
aa(lp336
VPiccolo daimaoh
p337
aF1520.7321384229895
aa(lp338
VSuperboy
p339
aF1520.9459385054909
aa(lp340
VOre
p341
aF1520.9957677343552
aa(lp342
VShin ryu
p343
aF1521.0327576843945
aa(lp344
VRubber soul
p345
aF1521.1484228415518
aa(lp346
VTayuya
p347
aF1521.497571888906
aa(lp348
VTakobue
p349
aF1521.607821973625
aa(lp350
VSakon
p351
aF1521.6612531490382
aa(lp352
VHokage
p353
aF1521.8863950830569
aa(lp354
VGoku db
p355
aF1522.0635922455338
aa(lp356
VGarlic junior
p357
aF1522.2284334544722
aa(lp358
V95 no danna
p359
aF1522.2950253283332
aa(lp360
VGobotenn
p361
aF1522.2998815631279
aa(lp362
VAndroid 18
p363
aF1522.5408485810647
aa(lp364
VAmiba
p365
aF1522.9389676045644
aa(lp366
VTabasa
p367
aF1523.0261882949999
aa(lp368
VBrian griffin
p369
aF1523.2644705794148
aa(lp370
VKarin kanzuki
p371
aF1523.3356412212684
aa(lp372
VGrover
p373
aF1523.798328712552
aa(lp374
VRose
p375
aF1524.0199256818205
aa(lp376
VBrimstone
p377
aF1524.1779002366084
aa(lp378
VNightwing
p379
aF1524.3103623116108
aa(lp380
VGrappler_hiyama
p381
aF1525.1519466585585
aa(lp382
VInvisible woman
p383
aF1525.275362821262
aa(lp384
VChill penguin
p385
aF1525.3825569692372
aa(lp386
VA.b.a
p387
aF1525.4022668806356
aa(lp388
VBlue ranger
p389
aF1525.5492856600085
aa(lp390
VCaptain ginyu
p391
aF1525.735902672163
aa(lp392
VPolaris
p393
aF1525.8467076556535
aa(lp394
VGoku ssj5
p395
aF1526.093575098095
aa(lp396
VMr buu
p397
aF1526.2145559325022
aa(lp398
VTakakazu abe
p399
aF1526.3234985535714
aa(lp400
VPlastic man
p401
aF1526.7118465702097
aa(lp402
VBojack
p403
aF1526.776121604603
aa(lp404
VInuzuka kiba
p405
aF1527.0475998362117
aa(lp406
VNoroko
p407
aF1527.0876331356744
aa(lp408
VHads
p409
aF1527.1066864969873
aa(lp410
V98se
p411
aF1527.1170564135427
aa(lp412
VSuper vegeta
p413
aF1527.1379668073375
aa(lp414
VRorschach
p415
aF1527.1993049137845
aa(lp416
VHol 'butt king' funtimes
p417
aF1527.2714119242194
aa(lp418
VShuh
p419
aF1527.293836324794
aa(lp420
VIno
p421
aF1527.9895456754625
aa(lp422
VReimi jyahana
p423
aF1528.269324205314
aa(lp424
VComplete cell
p425
aF1528.393558744557
aa(lp426
VSnoopy
p427
aF1528.432529391462
aa(lp428
VAnna
p429
aF1528.433062549102
aa(lp430
VKimberly
p431
aF1528.585551866998
aa(lp432
VMegazord
p433
aF1528.7217754946237
aa(lp434
VKaguya kimimaro
p435
aF1528.8690564500484
aa(lp436
VTibigintou
p437
aF1529.0662999027377
aa(lp438
VMaxima
p439
aF1529.2133881218908
aa(lp440
VGold warmachine
p441
aF1529.4497323642006
aa(lp442
VShikamaru
p443
aF1529.517760478219
aa(lp444
VLion-o
p445
aF1529.5790778992284
aa(lp446
VNenaikodareda
p447
aF1529.9213029292557
aa(lp448
VKid gohan ssj1
p449
aF1529.984077984542
aa(lp450
VGray fly
p451
aF1530.5869305458482
aa(lp452
VMiyazato erika
p453
aF1531.273244016629
aa(lp454
VKszsk-shuko
p455
aF1531.38874990165
aa(lp456
VNeyufeulle
p457
aF1531.6174457294755
aa(lp458
VW len ar
p459
aF1531.8957107661313
aa(lp460
VPan
p461
aF1531.9514267305067
aa(lp462
VLi'l gohan
p463
aF1532.6280030378678
aa(lp464
VSyo hayate
p465
aF1533.0544546501512
aa(lp466
VKy
p467
aF1533.1783278446726
aa(lp468
VNanaya
p469
aF1533.5083386241804
aa(lp470
VGoten
p471
aF1533.560716479299
aa(lp472
VHory marlu
p473
aF1533.954883257347
aa(lp474
VGreat saiyaman
p475
aF1534.7640879302196
aa(lp476
VOjisama-chaos
p477
aF1534.8632742701839
aa(lp478
VIkisan
p479
aF1534.8771534423358
aa(lp480
VRinfa
p481
aF1534.9636774958233
aa(lp482
VRusty
p483
aF1535.6817893213704
aa(lp484
VChichi
p485
aF1535.7357779511235
aa(lp486
VHinata
p487
aF1536.0965338852013
aa(lp488
VViuda negra
p489
aF1536.3605520002402
aa(lp490
VMystia
p491
aF1536.4655195306452
aa(lp492
VGuy gardner
p493
aF1536.540081377312
aa(lp494
VUltimate-gohan
p495
aF1537.1341925635106
aa(lp496
VSuper boo
p497
aF1537.1347172588723
aa(lp498
VGoku kaiouken x4
p499
aF1537.1580386544365
aa(lp500
VSsj gohan
p501
aF1537.1837476707958
aa(lp502
VToki
p503
aF1537.1855257419352
aa(lp504
VLucca
p505
aF1537.5330959233681
aa(lp506
VYashaoh
p507
aF1537.7634076888921
aa(lp508
VWhite ranger
p509
aF1538.0115576351345
aa(lp510
VFubuki sakuragasaki
p511
aF1538.207321890507
aa(lp512
VS.p.o. ryu
p513
aF1538.5094416289498
aa(lp514
VPizza
p515
aF1538.535564641965
aa(lp516
VBlack polnareff
p517
aF1538.6316651737757
aa(lp518
VPachet
p519
aF1538.9183168009238
aa(lp520
VTimmy turner
p521
aF1538.9197091830895
aa(lp522
VSasuke
p523
aF1538.9763785910427
aa(lp524
VRanma saotome
p525
aF1539.0832486901838
aa(lp526
VGotenks ssj3
p527
aF1539.1183371949285
aa(lp528
VAlice
p529
aF1539.3281905224394
aa(lp530
VWhite len
p531
aF1539.4813735830026
aa(lp532
VJotaro kujo
p533
aF1539.8193502625281
aa(lp534
VMickey
p535
aF1539.9883572847757
aa(lp536
VPhoenix
p537
aF1540.424548318917
aa(lp538
VHe-man
p539
aF1540.4889331363843
aa(lp540
VRock howard
p541
aF1540.5983610646363
aa(lp542
VRobo-ky
p543
aF1540.6577739096392
aa(lp544
VFireman
p545
aF1541.0934216643498
aa(lp546
VMega goku
p547
aF1541.9255740688202
aa(lp548
VBig chicken
p549
aF1542.1317301531517
aa(lp550
VPoison
p551
aF1542.3622193794079
aa(lp552
VKuroko
p553
aF1542.7038893217077
aa(lp554
VJoseph the b.b.
p555
aF1542.7271387249036
aa(lp556
VPengintou
p557
aF1543.1317286566086
aa(lp558
VHol horse
p559
aF1543.2123624114822
aa(lp560
VYuki in midday
p561
aF1543.5449894654046
aa(lp562
VGoku pce
p563
aF1543.6094529064562
aa(lp564
VYoh
p565
aF1543.7043108529808
aa(lp566
VGoku gt ssj3
p567
aF1543.8575272672942
aa(lp568
VPsychopath kyo
p569
aF1543.9845536056766
aa(lp570
VPunisher
p571
aF1544.0099906925393
aa(lp572
VAgito_of_the_dark
p573
aF1544.0549941145905
aa(lp574
VGarfield
p575
aF1544.7453377273748
aa(lp576
VVegeta normal 2
p577
aF1545.192252126773
aa(lp578
VHaku
p579
aF1545.6387352179574
aa(lp580
VTron bonne
p581
aF1545.6653672576988
aa(lp582
VDaffy duck
p583
aF1545.737489900639
aa(lp584
VAstroboy
p585
aF1545.8555576298133
aa(lp586
VWolvenom
p587
aF1545.8563291656747
aa(lp588
VSuper sonic
p589
aF1546.070249973342
aa(lp590
VMega and.18
p591
aF1546.2597685665817
aa(lp592
VShun
p593
aF1546.7555515524457
aa(lp594
VDosu
p595
aF1547.0669634605867
aa(lp596
VHeika
p597
aF1547.102552716355
aa(lp598
VAquaman
p599
aF1547.1227741005084
aa(lp600
VKano
p601
aF1547.3946358748226
aa(lp602
VSaba
p603
aF1547.5234112661326
aa(lp604
VKaede
p605
aF1547.5848058171296
aa(lp606
VDarkon
p607
aF1547.7411709203582
aa(lp608
VLord shaolin lee
p609
aF1547.829681189971
aa(lp610
VNemesis
p611
aF1548.0283719001363
aa(lp612
VHideo&kyoko;
p613
aF1548.7382392325924
aa(lp614
VTakuma.s_xiii
p615
aF1548.860207052526
aa(lp616
VElecman
p617
aF1548.8709866972654
aa(lp618
VSamurai jack
p619
aF1548.9256169175878
aa(lp620
VNanase(+d)&mayu;
p621
aF1549.1242045683384
aa(lp622
VFox mccloud
p623
aF1549.3308331410828
aa(lp624
VHigyo-pam
p625
aF1549.5361202058193
aa(lp626
VMora
p627
aF1549.7855327645636
aa(lp628
VZarbom
p629
aF1550.5348580029713
aa(lp630
VChris sakurigan
p631
aF1550.551924346801
aa(lp632
VGaara
p633
aF1550.6807951169271
aa(lp634
VPeter
p635
aF1550.7130894217128
aa(lp636
VYagumo
p637
aF1550.7777939368893
aa(lp638
VPrincess peach
p639
aF1550.885265919494
aa(lp640
VGotenks
p641
aF1551.0257124169518
aa(lp642
VDark ryu
p643
aF1551.0343678977304
aa(lp644
VMai
p645
aF1551.157472091494
aa(lp646
VWar machine
p647
aF1551.2687093906375
aa(lp648
VMay
p649
aF1551.3695348228414
aa(lp650
VThe joker
p651
aF1551.4110376495812
aa(lp652
VEddie
p653
aF1551.7919427596123
aa(lp654
VPetshop
p655
aF1552.2218203743084
aa(lp656
VLeela
p657
aF1552.4072929129975
aa(lp658
VAtusi
p659
aF1552.8848821041786
aa(lp660
VHobgoblin
p661
aF1552.9260957607967
aa(lp662
VSimonkin2005
p663
aF1553.009818768849
aa(lp664
VChouji
p665
aF1553.2589367122591
aa(lp666
VMr burns
p667
aF1553.398522018641
aa(lp668
VMidler
p669
aF1554.218255068335
aa(lp670
VYamcha
p671
aF1554.229673527693
aa(lp672
VDodgers
p673
aF1554.3048887828995
aa(lp674
VTerry
p675
aF1554.3462240594038
aa(lp676
VSpider girl
p677
aF1554.5454215129391
aa(lp678
VUzumaki naruto
p679
aF1554.5823234365173
aa(lp680
VVegeta ultra ssj
p681
aF1554.6941074173183
aa(lp682
VMajin boo
p683
aF1554.8275817635679
aa(lp684
VJin
p685
aF1554.9760337757514
aa(lp686
VGoku ssj 3
p687
aF1555.20334591883
aa(lp688
VHuninki
p689
aF1555.4728857102832
aa(lp690
VDevil_daigo
p691
aF1555.5510483170692
aa(lp692
VElectro
p693
aF1556.200814281587
aa(lp694
VRouga_zanma
p695
aF1556.3544701145167
aa(lp696
VKosmos
p697
aF1556.4736970568545
aa(lp698
VNobunaga
p699
aF1556.5458152130145
aa(lp700
VK' xiii
p701
aF1556.8424545311996
aa(lp702
VSongoku-snk/sf
p703
aF1556.8507780742061
aa(lp704
VAthena
p705
aF1556.911522628029
aa(lp706
VLipsyncher
p707
aF1556.9467360750407
aa(lp708
VRobert
p709
aF1557.1024730450458
aa(lp710
VBra
p711
aF1557.5872796958681
aa(lp712
VKen & gang
p713
aF1557.742320345133
aa(lp714
VMarco
p715
aF1557.7425554978565
aa(lp716
VMetallo
p717
aF1558.425611549656
aa(lp718
VCell genesis
p719
aF1558.5744104759553
aa(lp720
VZeroko
p721
aF1558.8204370690553
aa(lp722
VKagami kyosuke
p723
aF1559.4763220546542
aa(lp724
VKenshiro
p725
aF1559.5688921874362
aa(lp726
VManbou
p727
aF1559.6915577159891
aa(lp728
VDark ash
p729
aF1559.9326787840673
aa(lp730
VGreen ranger
p731
aF1559.953017534391
aa(lp732
VNaruto
p733
aF1560.503436370608
aa(lp734
VKenshirou
p735
aF1560.6197334958194
aa(lp736
VTyouunn-shiryu
p737
aF1560.8779074374097
aa(lp738
VSaibaman
p739
aF1561.0645766295922
aa(lp740
VZatanna
p741
aF1561.1387910957071
aa(lp742
VNayuki minase
p743
aF1561.3645492166397
aa(lp744
VRuby heart
p745
aF1561.3814401003806
aa(lp746
VItachi
p747
aF1561.5049599033089
aa(lp748
VPiccolo sb1
p749
aF1561.5863747734234
aa(lp750
VMega lilde
p751
aF1561.7666936043825
aa(lp752
VJustice
p753
aF1561.9611560406734
aa(lp754
VMyon
p755
aF1562.0462359153046
aa(lp756
VKeine
p757
aF1562.404179431291
aa(lp758
VMr. bison
p759
aF1562.4777713357994
aa(lp760
VVegetto EX
p761
aF1562.4972515708007
aa(lp762
VAlessi
p763
aF1562.7468863095178
aa(lp764
VSanzou_kongoumaru
p765
aF1562.8749400103545
aa(lp766
VGoku sayajin
p767
aF1562.9110933421462
aa(lp768
VDr gero-and20
p769
aF1562.9251769320488
aa(lp770
VGohan fight money
p771
aF1562.9587832997042
aa(lp772
VGogeta ssj4
p773
aF1562.9939340014926
aa(lp774
VKaori&shiori;
p775
aF1563.0541683322463
aa(lp776
VZero svc
p777
aF1563.2206046898893
aa(lp778
VDaigo
p779
aF1563.243010680133
aa(lp780
VAnji
p781
aF1563.3735625701854
aa(lp782
VKarnov
p783
aF1563.4226710160851
aa(lp784
VRyu hayabusa
p785
aF1563.9295077435445
aa(lp786
VSylphie
p787
aF1563.9770386737466
aa(lp788
VAmingo
p789
aF1564.0949054533708
aa(lp790
VShen
p791
aF1564.0981832204698
aa(lp792
VHeihachi mishima
p793
aF1564.1683004912022
aa(lp794
VAkane satomura
p795
aF1564.417712970932
aa(lp796
VAndroid 17
p797
aF1564.8690551066302
aa(lp798
VNue houjuu
p799
aF1564.9708011017067
aa(lp800
VNightmare yamazaki
p801
aF1564.9760094149738
aa(lp802
VSatori
p803
aF1565.0800854115128
aa(lp804
VMurasa
p805
aF1565.0832930688973
aa(lp806
VHeita zinnai
p807
aF1565.1507793799165
aa(lp808
VChibi goku
p809
aF1565.1987300465569
aa(lp810
VSsjgoku
p811
aF1565.244736193289
aa(lp812
VVegetto ex
p813
aF1565.744124602654
aa(lp814
VMonky d luffy
p815
aF1565.9584675495062
aa(lp816
VDark psylocke
p817
aF1566.3763127566895
aa(lp818
VVegeta ssj4
p819
aF1566.4703562421173
aa(lp820
VTensinhan
p821
aF1566.4739873224419
aa(lp822
VPredator
p823
aF1566.4822660329232
aa(lp824
VGreat gohan
p825
aF1566.6806001338673
aa(lp826
VJiroubou
p827
aF1566.877013835001
aa(lp828
VBlanka
p829
aF1567.0291908440379
aa(lp830
VLord raptor
p831
aF1567.2230452076797
aa(lp832
VTung fu rue
p833
aF1567.4975578899966
aa(lp834
VMorgiana
p835
aF1567.5684923962267
aa(lp836
VYuki
p837
aF1567.7517491683684
aa(lp838
VThe nightmare
p839
aF1568.0380105678407
aa(lp840
VHaruno sakura
p841
aF1568.1008007808196
aa(lp842
VOmega red
p843
aF1568.6628098452877
aa(lp844
VPicapiedra
p845
aF1568.9315863615216
aa(lp846
VOjisama
p847
aF1568.9859812214513
aa(lp848
VMeirin
p849
aF1569.2094502045304
aa(lp850
VRen_idagawa
p851
aF1569.515172835343
aa(lp852
VYuri di aaaaaaa
p853
aF1569.7920337274527
aa(lp854
VGod ken
p855
aF1569.8870555446606
aa(lp856
VSinki
p857
aF1570.0527675275932
aa(lp858
VCream
p859
aF1570.0605722863995
aa(lp860
VArthur
p861
aF1570.0996522790504
aa(lp862
VHirasawa_yui
p863
aF1570.3748814442235
aa(lp864
VJuri
p865
aF1570.4044048819114
aa(lp866
VKyouko
p867
aF1570.4443239948798
aa(lp868
VTrunks sb1
p869
aF1570.4829174481154
aa(lp870
VHenri
p871
aF1570.5192923735644
aa(lp872
VEmma frost
p873
aF1570.6190084162429
aa(lp874
VSpawn
p875
aF1570.6313086945324
aa(lp876
VJuda
p877
aF1570.6715437594066
aa(lp878
VHulk 2099
p879
aF1570.8380262141122
aa(lp880
VShin scrub ken
p881
aF1570.8962110060302
aa(lp882
VAndromeda
p883
aF1570.9127036300613
aa(lp884
VDeath maul
p885
aF1571.064176689096
aa(lp886
VUesugi kensin
p887
aF1571.0922754664434
aa(lp888
VTiger
p889
aF1571.1209923957674
aa(lp890
VHavok
p891
aF1571.1450569852957
aa(lp892
VMoorhunn
p893
aF1571.1788627058693
aa(lp894
V009
p895
aF1571.203295969586
aa(lp896
VPhobos
p897
aF1571.2849090460234
aa(lp898
VSkeletor
p899
aF1571.348855023628
aa(lp900
VGohan ssj2
p901
aF1571.6048048693933
aa(lp902
VAraki runa
p903
aF1571.950239119832
aa(lp904
VSilver samurai
p905
aF1572.0907959292745
aa(lp906
VZangya
p907
aF1572.0980785689922
aa(lp908
VKino
p909
aF1572.379056427806
aa(lp910
VButtercup
p911
aF1572.5747435408964
aa(lp912
VEiji kisaragi
p913
aF1572.6371019215064
aa(lp914
VShadowcat
p915
aF1572.6374103509058
aa(lp916
VP-gohan ssj2
p917
aF1572.8415785382708
aa(lp918
VSon trunks
p919
aF1572.8594824814343
aa(lp920
VBlaziken
p921
aF1572.8782943691976
aa(lp922
VTrevor spacer
p923
aF1572.9692992040918
aa(lp924
VD-rugal
p925
aF1573.0132561773416
aa(lp926
VChibi trunks
p927
aF1573.1110107459103
aa(lp928
VRed tornado
p929
aF1573.167208716539
aa(lp930
VTemari
p931
aF1573.1932888752058
aa(lp932
VTails
p933
aF1573.3562640772784
aa(lp934
VBeavis
p935
aF1573.368963095621
aa(lp936
VVanilla Ice
p937
aF1573.6041093799404
aa(lp938
VElastigirl
p939
aF1573.644556051498
aa(lp940
VSophitia
p941
aF1573.7984072481831
aa(lp942
VInspector gadget
p943
aF1574.0490200015233
aa(lp944
VTapion
p945
aF1574.3043025626612
aa(lp946
VBoulma
p947
aF1574.3244213742726
aa(lp948
VYatogi tetsu
p949
aF1574.5307670106858
aa(lp950
VRaditz
p951
aF1574.5976443065683
aa(lp952
VLizardman
p953
aF1575.1731071033337
aa(lp954
VZero
p955
aF1575.306303897487
aa(lp956
VSkull-man
p957
aF1575.3199508082791
aa(lp958
VAirman
p959
aF1575.3943707013589
aa(lp960
VTurles
p961
aF1575.4255757185017
aa(lp962
VFirebrand
p963
aF1575.5818646668636
aa(lp964
VSilver horns
p965
aF1575.6520984127924
aa(lp966
VYayoi
p967
aF1575.7148229622176
aa(lp968
VMako
p969
aF1575.8026132731268
aa(lp970
VSupergirl
p971
aF1575.8845425131276
aa(lp972
VYuri sakazaki
p973
aF1575.9890005462182
aa(lp974
VKunagi_tenrou
p975
aF1576.0138946323877
aa(lp976
VMorfo
p977
aF1576.0385465083484
aa(lp978
VFoxy
p979
aF1576.101414968484
aa(lp980
VNormal chibi trunks
p981
aF1576.3254831187587
aa(lp982
VSonGoku SNK SF
p983
aF1576.3961552767273
aa(lp984
VIbuki
p985
aF1576.4033607748079
aa(lp986
VChrisg sakurigan
p987
aF1576.4827071721907
aa(lp988
VGato
p989
aF1576.5227640536916
aa(lp990
VNick fury
p991
aF1576.584180240684
aa(lp992
VAeris ;or if you prefer, use aerith
p993
aF1576.613385187887
aa(lp994
VSolid Snake
p995
aF1576.6337075043468
aa(lp996
VMamizou
p997
aF1576.8340790658149
aa(lp998
VHanny
p999
aF1576.9391811507337
aa(lp1000
VLunasa prismriver
p1001
aF1577.1523634721534
aa(lp1002
VBlack.t
p1003
aF1577.303872728518
aa(lp1004
VM.bison
p1005
aF1577.3069164954725
aa(lp1006
VMomizi
p1007
aF1577.3680305105015
aa(lp1008
VGurocure
p1009
aF1577.6037295526785
aa(lp1010
VAntman
p1011
aF1577.7854437841181
aa(lp1012
VKikuri
p1013
aF1577.7861916225315
aa(lp1014
VIori yagami
p1015
aF1577.8155016443968
aa(lp1016
VLesty
p1017
aF1577.86373273956
aa(lp1018
VGundam heavy arms
p1019
aF1577.9297005167098
aa(lp1020
VElena
p1021
aF1578.0159642687895
aa(lp1022
VTrunks ssj4
p1023
aF1578.0623645355477
aa(lp1024
VKogasa
p1025
aF1578.0836503347923
aa(lp1026
VMekazawa
p1027
aF1578.2935394650217
aa(lp1028
VAsahina mikuru
p1029
aF1578.4773105543552
aa(lp1030
VKang
p1031
aF1578.5633829214123
aa(lp1032
VLelouch
p1033
aF1578.744166946546
aa(lp1034
VArchetype:earth
p1035
aF1578.8017524083
aa(lp1036
VDudley
p1037
aF1579.037675154156
aa(lp1038
VSentry
p1039
aF1579.0669227617266
aa(lp1040
VNate summers
p1041
aF1579.0914498008221
aa(lp1042
VGuldo
p1043
aF1579.184741355619
aa(lp1044
V20 (dr. gero)
p1045
aF1579.294354896094
aa(lp1046
VEmerl
p1047
aF1579.306305715047
aa(lp1048
VKyo 71113
p1049
aF1579.3175062760452
aa(lp1050
VAvdol ver 2001/01/30 by camrat
p1051
aF1579.3890495562662
aa(lp1052
VWriggle
p1053
aF1579.584009100843
aa(lp1054
VMaster chief
p1055
aF1580.4599204149279
aa(lp1056
VGohan gt
p1057
aF1580.5353697322814
aa(lp1058
VBootleg ryu
p1059
aF1580.8273787630274
aa(lp1060
VMeta-knight
p1061
aF1581.1807938012707
aa(lp1062
VGuile
p1063
aF1581.2794295835959
aa(lp1064
VZabuza
p1065
aF1581.3225808295476
aa(lp1066
VVegettossj3
p1067
aF1581.4205104553387
aa(lp1068
VSuper Buu
p1069
aF1581.4972039779723
aa(lp1070
VSsj goku
p1071
aF1581.609956094466
aa(lp1072
VCell Genesis
p1073
aF1581.7103144034118
aa(lp1074
VBebi vegeta form 1
p1075
aF1581.7765187468478
aa(lp1076
VGreat s. man
p1077
aF1581.912564307152
aa(lp1078
VStarfire
p1079
aF1581.989411293778
aa(lp1080
VSpenoza
p1081
aF1581.9949219613732
aa(lp1082
VPegasus di fuoco
p1083
aF1582.0795106778785
aa(lp1084
VPsylocke
p1085
aF1582.1568461515644
aa(lp1086
VAlice margatroid
p1087
aF1582.5189540744145
aa(lp1088
VSpopovich
p1089
aF1582.6931004205235
aa(lp1090
VGreat sayaman
p1091
aF1582.747006339305
aa(lp1092
VComplete Cell
p1093
aF1582.7740812732247
aa(lp1094
VLupin the 3rd
p1095
aF1582.8161424770108
aa(lp1096
VTeam nicktoon
p1097
aF1582.8970538168555
aa(lp1098
VStorm
p1099
aF1582.9266945570782
aa(lp1100
VBlockhead
p1101
aF1582.9308773402302
aa(lp1102
VBardock
p1103
aF1582.943299053393
aa(lp1104
VMega Gohan
p1105
aF1583.0607057985922
aa(lp1106
VBlack Adam
p1107
aF1583.3039160619371
aa(lp1108
VBomber man
p1109
aF1583.3236854505803
aa(lp1110
VRuili
p1111
aF1583.3669329058573
aa(lp1112
VYang
p1113
aF1583.3764478167416
aa(lp1114
VSpider-man 2099
p1115
aF1583.474497747448
aa(lp1116
VUkitake
p1117
aF1583.6593780528276
aa(lp1118
VGogeta SSJ
p1119
aF1583.8030796210746
aa(lp1120
VChaka
p1121
aF1583.8101207176692
aa(lp1122
VGreat S Man
p1123
aF1583.823390543786
aa(lp1124
VReisen
p1125
aF1583.8714307927796
aa(lp1126
VSion_tatari
p1127
aF1583.8733938574414
aa(lp1128
VDoparmin
p1129
aF1583.9065017042549
aa(lp1130
VSaya
p1131
aF1584.0582933952933
aa(lp1132
VGhetto Warmachine
p1133
aF1584.1368622367872
aa(lp1134
VIchijo akari
p1135
aF1584.1527770568769
aa(lp1136
VMr Bison
p1137
aF1584.180132087646
aa(lp1138
VSailor neptune
p1139
aF1584.196726475677
aa(lp1140
VRuby Heart
p1141
aF1584.200157712136
aa(lp1142
VSpelunker
p1143
aF1584.2038012956912
aa(lp1144
VMestre Kame
p1145
aF1584.3103364298092
aa(lp1146
VSephiroth
p1147
aF1584.5929396629206
aa(lp1148
VTung Fu Rue
p1149
aF1584.647401763969
aa(lp1150
VDocOck
p1151
aF1584.671313893211
aa(lp1152
VElongated man
p1153
aF1584.6934733957844
aa(lp1154
VKyo kusanagi
p1155
aF1584.7657952199736
aa(lp1156
VT.hawk
p1157
aF1584.8490987180721
aa(lp1158
VMetal Man
p1159
aF1584.8945820232877
aa(lp1160
VTara-gyouza
p1161
aF1584.909208016733
aa(lp1162
VFelicia
p1163
aF1585.0337140138136
aa(lp1164
VAndy_xiii
p1165
aF1585.090356657069
aa(lp1166
VTokiko
p1167
aF1585.092958322714
aa(lp1168
VSanae
p1169
aF1585.1488949708655
aa(lp1170
VShadow vegeta
p1171
aF1585.2514634375227
aa(lp1172
VSpiderman 2099
p1173
aF1585.4803205447809
aa(lp1174
VTewi_inaba
p1175
aF1585.5596559044634
aa(lp1176
VSailor Venus
p1177
aF1585.6546545505064
aa(lp1178
VHomer
p1179
aF1585.6758167756695
aa(lp1180
VBenimaru_xiii
p1181
aF1585.714121673936
aa(lp1182
VGundam Heavy Arms
p1183
aF1585.9258995921653
aa(lp1184
VDee jay
p1185
aF1586.0348424474168
aa(lp1186
VBilly_xiii
p1187
aF1586.1728120496662
aa(lp1188
VNormal sword trunks
p1189
aF1586.2198344952562
aa(lp1190
VDeath13
p1191
aF1586.2570203549833
aa(lp1192
VJin Kazama
p1193
aF1586.2763078964847
aa(lp1194
VSinestro
p1195
aF1586.3882800895647
aa(lp1196
VFio
p1197
aF1586.440865054281
aa(lp1198
VCharizard
p1199
aF1586.5145645363932
aa(lp1200
VJones
p1201
aF1586.562706002805
aa(lp1202
VBurai_yamamoto
p1203
aF1586.638326277733
aa(lp1204
VNamek gohan
p1205
aF1586.65729082764
aa(lp1206
VChibi Goku
p1207
aF1586.6815878019581
aa(lp1208
VKid Gohan
p1209
aF1586.747367450222
aa(lp1210
VPotemkin
p1211
aF1586.9326249807214
aa(lp1212
VKiller Whale
p1213
aF1587.0312166750648
aa(lp1214
V98SE
p1215
aF1587.0959057516848
aa(lp1216
VTest a.i.
p1217
aF1587.1163089903423
aa(lp1218
VLord Shaolin Lee
p1219
aF1587.149900543332
aa(lp1220
VLeonardo
p1221
aF1587.264848238761
aa(lp1222
VPrincess Peach
p1223
aF1587.2848617984523
aa(lp1224
VPiccolo Daimaoh
p1225
aF1587.32621066351
aa(lp1226
VFat Albert
p1227
aF1587.423511995775
aa(lp1228
VQueen beryl
p1229
aF1587.5254824357517
aa(lp1230
VMars people
p1231
aF1587.5351375705177
aa(lp1232
VSuper #13
p1233
aF1587.5764679625884
aa(lp1234
VProtoman
p1235
aF1587.6313070337535
aa(lp1236
VGohan Zeta
p1237
aF1587.834721496043
aa(lp1238
VBart
p1239
aF1587.9182259857193
aa(lp1240
VNeji
p1241
aF1588.0050692793457
aa(lp1242
VUnknown
p1243
aF1588.3282567633369
aa(lp1244
VFreeza 1st form
p1245
aF1588.5485520717536
aa(lp1246
VZantetsu
p1247
aF1588.6535960287515
aa(lp1248
VE-102R
p1249
aF1588.8437720377042
aa(lp1250
VVenom
p1251
aF1588.9248016702113
aa(lp1252
VPsycho weapon
p1253
aF1588.9670177423698
aa(lp1254
VKaio shin
p1255
aF1589.1675460164222
aa(lp1256
VShe-hulk
p1257
aF1589.325833733566
aa(lp1258
VYumi
p1259
aF1589.6125932320379
aa(lp1260
VQuicksilver
p1261
aF1589.6263467083397
aa(lp1262
VGreen lantern js
p1263
aF1589.8860439051132
aa(lp1264
VAnother Jissou Seki
p1265
aF1589.8998325337004
aa(lp1266
VMegaman.exe
p1267
aF1590.0124271247182
aa(lp1268
VCaptain marvell
p1269
aF1590.2946908174913
aa(lp1270
VTenten
p1271
aF1590.3635421552822
aa(lp1272
VNormal trunks
p1273
aF1590.434498999959
aa(lp1274
VEiji Kisaragi
p1275
aF1590.5099455414327
aa(lp1276
VKoopa Troopa
p1277
aF1590.536943272278
aa(lp1278
VMajin Buu
p1279
aF1590.5897435229958
aa(lp1280
VShang Tsung
p1281
aF1590.609152156619
aa(lp1282
VMega Goku
p1283
aF1590.7504768057365
aa(lp1284
VFrog
p1285
aF1590.7805546492125
aa(lp1286
VP-Gohan SSJ2
p1287
aF1590.8248932869947
aa(lp1288
VKing
p1289
aF1591.0780435882893
aa(lp1290
VMega Piccolo
p1291
aF1591.140923342088
aa(lp1292
VGreen goblin
p1293
aF1591.1657124102514
aa(lp1294
VParsee
p1295
aF1591.2241773778317
aa(lp1296
VGohan School
p1297
aF1591.2595816394712
aa(lp1298
VRubber Soul
p1299
aF1591.2642719938024
aa(lp1300
VBlack Polnareff
p1301
aF1591.2904392755781
aa(lp1302
VShin Ryu
p1303
aF1591.3103932753447
aa(lp1304
VLord Ravenous
p1305
aF1591.4148704553709
aa(lp1306
VBattlemage_[dnf]
p1307
aF1591.4392164238059
aa(lp1308
VMokou
p1309
aF1591.5137777310842
aa(lp1310
VGod Ken
p1311
aF1591.6404984320538
aa(lp1312
VHigh Dio
p1313
aF1591.6574293406911
aa(lp1314
VGoku SSJ2
p1315
aF1591.7746568788702
aa(lp1316
VSSJ Goku
p1317
aF1591.81659651417
aa(lp1318
VGohan GT
p1319
aF1591.8221333612576
aa(lp1320
VPiccolo SB1
p1321
aF1591.8332908198859
aa(lp1322
VGogeta SSJ2
p1323
aF1591.851038529489
aa(lp1324
VRorscach
p1325
aF1591.8584404128187
aa(lp1326
VNeodio
p1327
aF1591.8633836985807
aa(lp1328
VGogeta SSJ4
p1329
aF1591.9321804942836
aa(lp1330
VSSJGoku
p1331
aF1591.9730475566294
aa(lp1332
VMech Gouki
p1333
aF1592.0107225179502
aa(lp1334
VTakakazu Abe
p1335
aF1592.0181806904873
aa(lp1336
VDunbai san
p1337
aF1592.0184548584034
aa(lp1338
VGreen Lantern GG
p1339
aF1592.0320230985506
aa(lp1340
VGreat Saiyaman
p1341
aF1592.0498850570145
aa(lp1342
VHisui&Kohaku;
p1343
aF1592.085807163694
aa(lp1344
VOjisama-Chaos
p1345
aF1592.1226605312877
aa(lp1346
VChun Lee Dark Bolt
p1347
aF1592.1258384870264
aa(lp1348
VCrashman
p1349
aF1592.1276857131645
aa(lp1350
VDr Gero and 20
p1351
aF1592.14278442214
aa(lp1352
VVegeta Ultra SSJ
p1353
aF1592.1488701784178
aa(lp1354
V20 Dr. Gero
p1355
aF1592.1693032898431
aa(lp1356
VMega Lilde
p1357
aF1592.1793477962801
aa(lp1358
VReimi Jyahana
p1359
aF1592.1959190185826
aa(lp1360
VMinikata Moriya
p1361
aF1592.2088138981337
aa(lp1362
VDio Di Musca
p1363
aF1592.320325267644
aa(lp1364
VChibi gohan nex
p1365
aF1592.3233403572547
aa(lp1366
VChaotzu
p1367
aF1592.330957856638
aa(lp1368
VTrunks SB1
p1369
aF1592.3815085136612
aa(lp1370
VFei-long
p1371
aF1592.4015679822148
aa(lp1372
VHuman Torch
p1373
aF1592.4015679822148
aa(lp1374
VMega And 18
p1375
aF1592.4015679822148
aa(lp1376
VThierry Henry
p1377
aF1592.4051218812417
aa(lp1378
VCaptan Ginew
p1379
aF1592.409327338886
aa(lp1380
VCatwalk
p1381
aF1592.4278401873235
aa(lp1382
VVenon
p1383
aF1592.500686326949
aa(lp1384
VBender
p1385
aF1592.5392858673658
aa(lp1386
VGold Warmachine
p1387
aF1592.5437577963962
aa(lp1388
VNate
p1389
aF1592.5439610696762
aa(lp1390
Vu
p1391
aF1592.5439610696762
aa(lp1392
VButthead
p1393
aF1592.559122129125
aa(lp1394
VBlack ranger
p1395
aF1592.6107012374853
aa(lp1396
VHawkman
p1397
aF1592.6314405191085
aa(lp1398
VBrian Griffin
p1399
aF1592.633151544652
aa(lp1400
VInvisible Woman
p1401
aF1592.6455564257592
aa(lp1402
VKazuya
p1403
aF1592.6865998481871
aa(lp1404
VMultiple Man
p1405
aF1592.7004421177203
aa(lp1406
VGill
p1407
aF1592.751872668343
aa(lp1408
VSora
p1409
aF1592.758864025405
aa(lp1410
VHel Lauren
p1411
aF1592.767947436995
aa(lp1412
VSailor Mercury
p1413
aF1592.8496327748726
aa(lp1414
VSSJ3 Goku
p1415
aF1592.8504696886455
aa(lp1416
VWaha
p1417
aF1592.8600102373862
aa(lp1418
VShadowman CFAS
p1419
aF1592.8631134176705
aa(lp1420
VJanemba
p1421
aF1592.865818769713
aa(lp1422
VShuma Gorath
p1423
aF1592.899246966414
aa(lp1424
VKara Na Hito
p1425
aF1593.0283921811201
aa(lp1426
VCell Junior
p1427
aF1593.1072488072175
aa(lp1428
VGreen Devil
p1429
aF1593.1130408428414
aa(lp1430
VHonda Asuka
p1431
aF1593.1132794956031
aa(lp1432
V(sman)
p1433
aF1593.2015014095048
aa(lp1434
VShino
p1435
aF1593.2061099710338
aa(lp1436
VChill Penguin
p1437
aF1593.2349226469505
aa(lp1438
VGotenks SSJ
p1439
aF1593.242659222128
aa(lp1440
VNeo-arc Chaos
p1441
aF1593.2457433188958
aa(lp1442
VNate Summers
p1443
aF1593.2485763623451
aa(lp1444
VMr. increible
p1445
aF1593.2521107151172
aa(lp1446
VBastion
p1447
aF1593.2639094004803
aa(lp1448
VFreeza 1st Form
p1449
aF1593.3001020328934
aa(lp1450
VVicViper
p1451
aF1593.3070196273209
aa(lp1452
VSpider Girl
p1453
aF1593.4073081281338
aa(lp1454
VSuwako moriya
p1455
aF1593.4999913326005
aa(lp1456
VGotenks SSJ3
p1457
aF1593.5920241919123
aa(lp1458
VHwa jai
p1459
aF1593.6393590403525
aa(lp1460
VYuri Di AAAAAA
p1461
aF1593.6945253656697
aa(lp1462
VReimu
p1463
aF1593.7158701406952
aa(lp1464
VLetty whiterock
p1465
aF1593.7163182779723
aa(lp1466
VKarin Kanzuki
p1467
aF1593.761526446176
aa(lp1468
VToramaru syou
p1469
aF1593.8746501732674
aa(lp1470
VTao Jun
p1471
aF1593.9162526684065
aa(lp1472
VHercule GT
p1473
aF1593.9165702604907
aa(lp1474
VSuper Boo
p1475
aF1593.9239030961003
aa(lp1476
VSuper Skrull
p1477
aF1593.9628147561343
aa(lp1478
VLord ravenous
p1479
aF1593.9855246286888
aa(lp1480
VVegeth SSJ2
p1481
aF1594.0182490705483
aa(lp1482
VShin Gouki
p1483
aF1594.031585863852
aa(lp1484
VShin mr. karate
p1485
aF1594.0992749802606
aa(lp1486
VMega Vegeta
p1487
aF1594.1350079912079
aa(lp1488
V95 No Danna
p1489
aF1594.3561768068873
aa(lp1490
VKanmi chan
p1491
aF1594.3781783642353
aa(lp1492
VJon talbain
p1493
aF1594.4046948226485
aa(lp1494
VSalty goku
p1495
aF1594.569520845258
aa(lp1496
VMr Karate
p1497
aF1594.6333062775777
aa(lp1498
VVegeta Normal 3
p1499
aF1594.6935183639835
aa(lp1500
VHal jordan
p1501
aF1594.7386561763635
aa(lp1502
VChizuru Kagura
p1503
aF1594.7583690379515
aa(lp1504
VGoku SSJ 3
p1505
aF1594.769506155004
aa(lp1506
VBulma
p1507
aF1594.8038227795068
aa(lp1508
VHydra
p1509
aF1594.873755329136
aa(lp1510
VTest2
p1511
aF1594.8914650020895
aa(lp1512
VYellow devil;<-- replace with name to display
p1513
aF1594.892455075215
aa(lp1514
VLord Raptor
p1515
aF1594.9382973023485
aa(lp1516
VYoutube poop robotnik
p1517
aF1594.9899841878173
aa(lp1518
VDragon Guy
p1519
aF1595.4307949919566
aa(lp1520
VJudgement
p1521
aF1595.552051823844
aa(lp1522
VGreen Arrow
p1523
aF1595.8669349149316
aa(lp1524
VPicurin
p1525
aF1596.4725080078597
aa(lp1526
VVegetto
p1527
aF1596.8176066576164
aa(lp1528
VGoku
p1529
aF1596.8491926438353
aa(lp1530
VChiaotzu
p1531
aF1596.8556579101407
aa(lp1532
VTyouun Shiryu
p1533
aF1597.1163528072143
aa(lp1534
VTraining
p1535
aF1597.1709821594231
aa(lp1536
VTifa lockhart
p1537
aF1597.238617311118
aa(lp1538
VSon gohan
p1539
aF1597.2387512371147
aa(lp1540
VTron Bonne
p1541
aF1597.347047018001
aa(lp1542
VD-Rugal
p1543
aF1597.4192139624927
aa(lp1544
VCrilin sposato
p1545
aF1597.4667769563557
aa(lp1546
VEmpty
p1547
aF1597.656948198701
aa(lp1548
VZangia
p1549
aF1597.7069415941312
aa(lp1550
VBomber Man
p1551
aF1597.8048328335049
aa(lp1552
VSailor Jupiter
p1553
aF1597.8570084805094
aa(lp1554
VAlien Queen
p1555
aF1597.8828976023924
aa(lp1556
VPepe
p1557
aF1598.0178014386336
aa(lp1558
VGotenks ssj
p1559
aF1598.0426326910072
aa(lp1560
VTara-Gyouza
p1561
aF1598.4761105792195
aa(lp1562
VI-No
p1563
aF1598.4777886217353
aa(lp1564
VAnother kyo
p1565
aF1598.8639471183733
aa(lp1566
VPopeye
p1567
aF1598.8652682278225
aa(lp1568
VBartman
p1569
aF1598.9443661924845
aa(lp1570
VBroli ssj4
p1571
aF1598.9949688598203
aa(lp1572
VAsh
p1573
aF1599.0316067808376
aa(lp1574
VPetShop
p1575
aF1599.0791757543766
aa(lp1576
VHagen
p1577
aF1599.1562258827228
aa(lp1578
VWild Ken Ex
p1579
aF1599.157829014501
aa(lp1580
Vcpu
p1581
aF1599.1761852877783
aa(lp1582
VGuerrero Divino
p1583
aF1599.2180626900042
aa(lp1584
VManamana
p1585
aF1599.2405032411943
aa(lp1586
VSsj6vegeta
p1587
aF1599.2475137702259
aa(lp1588
VChris
p1589
aF1599.3152135919638
aa(lp1590
VNrvnqsr Chaos
p1591
aF1599.3425093193835
aa(lp1592
VCell (2 forma)
p1593
aF1599.6507568602935
aa(lp1594
VBulleta
p1595
aF1599.6532123589568
aa(lp1596
VMarvel spider-man
p1597
aF1599.6702670538787
aa(lp1598
VGoten GT nex
p1599
aF1599.8101949001816
aa(lp1600
VDesperado+
p1601
aF1599.8302389501387
aa(lp1602
VM-Vegeta SSJ3
p1603
aF1599.8827790744197
aa(lp1604
V*Marco
p1605
aI1600
aa(lp1606
V*Orione
p1607
aI1600
aa(lp1608
V*Bane
p1609
aI1600
aa(lp1610
V*The Joker
p1611
aI1600
aa(lp1612
V*Beast
p1613
aI1600
aa(lp1614
Vpizza\u005cpizza.def
p1615
aI1600
aa(lp1616
V*Mr. Fantastic
p1617
aI1600
aa(lp1618
VA.B.A.
p1619
aI1600
aa(lp1620
VKaren Na Hito
p1621
aI1600
aa(lp1622
VYakui San
p1623
aI1600
aa(lp1624
VDeathOgre + GhettoWar
p1625
aI1600
aa(lp1626
V*Spiral
p1627
aI1600
aa(lp1628
VGoku Vegeta
p1629
aI1600
aa(lp1630
VGoku DB
p1631
aI1600
aa(lp1632
V*Superman
p1633
aI1600
aa(lp1634
VVic Viper
p1635
aI1600
aa(lp1636
Vgill\u005cgill.def
p1637
aI1600
aa(lp1638
V*Geese
p1639
aI1600
aa(lp1640
V*Pegasus Di Fuoco
p1641
aI1600
aa(lp1642
VAraki Runa
p1643
aI1600
aa(lp1644
VDeath Maul
p1645
aI1600
aa(lp1646
VSadclaps x2
p1647
aI1600
aa(lp1648
V*Hydra
p1649
aI1600
aa(lp1650
VSuper Vegeta
p1651
aI1600
aa(lp1652
VGoku SB1
p1653
aI1600
aa(lp1654
VDark Ryu
p1655
aI1600
aa(lp1656
Vgohanex\u005cgohanex.def
p1657
aI1600
aa(lp1658
V*Nanaya
p1659
aI1600
aa(lp1660
V*Piccolo Daimaoh
p1661
aI1600
aa(lp1662
VVegeta Normal 2
p1663
aI1600
aa(lp1664
VYoshikage Killa
p1665
aI1600
aa(lp1666
VXP Pro
p1667
aI1600
aa(lp1668
VBra 1
p1669
aI1600
aa(lp1670
V*Super Vegeta
p1671
aI1600
aa(lp1672
VRamon and Daimon 71113
p1673
aI1600
aa(lp1674
VMike Tyson
p1675
aI1600
aa(lp1676
V*Yuki
p1677
aI1600
aa(lp1678
VInuzuma Kiba
p1679
aI1600
aa(lp1680
VOpera Elmer
p1681
aI1600
aa(lp1682
VGoku GT SSJ3
p1683
aI1600
aa(lp1684
VS-kyo + Holy Ken
p1685
aI1600
aa(lp1686
VRock Howard
p1687
aI1600
aa(lp1688
V*Vanilla Ice
p1689
aI1600
aa(lp1690
VTrevor Spacer
p1691
aI1600
aa(lp1692
VResume before 12:55am
p1693
aI1600
aa(lp1694
V*Cammy
p1695
aI1600
aa(lp1696
VMr Satan
p1697
aI1600
aa(lp1698
VLady Deathstrike
p1699
aI1600
aa(lp1700
V*Punisher
p1701
aI1600
aa(lp1702
VSpelunker Sensei
p1703
aI1600
aa(lp1704
VGray Fly 1
p1705
aI1600
aa(lp1706
VSailor Moon
p1707
aI1600
aa(lp1708
V*Emma Frost
p1709
aI1600
aa(lp1710
V*Airman
p1711
aI1600
aa(lp1712
VLion-O
p1713
aI1600
aa(lp1714
V*Predator
p1715
aI1600
aa(lp1716
V2Ban-tan
p1717
aI1600
aa(lp1718
V*Human Torch
p1719
aI1600
aa(lp1720
VUzumaki Naruto
p1721
aI1600
aa(lp1722
VGinew 2
p1723
aI1600
aa(lp1724
VBack Beard
p1725
aI1600
aa(lp1726
VSailor mercury
p1727
aF1600.0079075920908
aa(lp1728
VDr Gero
p1729
aF1600.0369792869265
aa(lp1730
Vkgohanv594
p1731
aF1600.0759775867873
aa(lp1732
VNiggah
p1733
aF1600.0954219801074
aa(lp1734
VWarmachine
p1735
aF1600.117311053615
aa(lp1736
VTest12
p1737
aF1600.1583601586171
aa(lp1738
VAracne De Tarantula
p1739
aF1600.1807724945452
aa(lp1740
VTest6
p1741
aF1600.1841742594847
aa(lp1742
VVegetaHD2
p1743
aF1600.1841742594847
aa(lp1744
VBartman\u005c._bartman.def
p1745
aF1600.1841742594847
aa(lp1746
Vsouseiseki\u005csouseiseki.def
p1747
aF1600.1841742594847
aa(lp1748
VTheJoker
p1749
aF1600.1841742594847
aa(lp1750
VPChunli\u005cpchunli.def
p1751
aF1600.1841742594847
aa(lp1752
Vnagato
p1753
aF1600.1841742594847
aa(lp1754
Vvegetahd2\u005cVegetaHD2.def
p1755
aF1600.1841742594847
aa(lp1756
VSuperskrull\u005cSuperskrull.def
p1757
aF1600.1841742594847
aa(lp1758
VCyberbots_Reptos
p1759
aF1600.1841742594847
aa(lp1760
Ve
p1761
aF1600.1841742594847
aa(lp1762
VKiller Whale 2
p1763
aF1600.1841742594847
aa(lp1764
VDeathOgre\u005cDeathOgre.def
p1765
aF1600.1841742594847
aa(lp1766
V!so_mexican
p1767
aF1600.1841742594847
aa(lp1768
Vginew\u005cGinew_Final.def
p1769
aF1600.1841742594847
aa(lp1770
Vmm_rox\u005cmm_rox.def
p1771
aF1600.1841742594847
aa(lp1772
Vgobo\u005cgobo.def
p1773
aF1600.1841742594847
aa(lp1774
VSpider-carnage
p1775
aF1600.2084642448167
aa(lp1776
Vwingzero\u005cwingzero.def
p1777
aF1600.217645233854
aa(lp1778
VChise
p1779
aF1600.269628357072
aa(lp1780
VTest8
p1781
aF1600.359968822029
aa(lp1782
VJamian
p1783
aF1600.359968822029
aa(lp1784
VNitori
p1785
aF1600.3601767180628
aa(lp1786
VKyon
p1787
aF1600.3882935808356
aa(lp1788
VFat albert
p1789
aF1600.3923393134723
aa(lp1790
VKujo Jotaro
p1791
aF1600.435536830957
aa(lp1792
VErza
p1793
aF1600.437309968792
aa(lp1794
VDio
p1795
aF1600.5677704033624
aa(lp1796
VChibi Gohan Nex
p1797
aF1600.6816019100431
aa(lp1798
VSSJ Gohan
p1799
aF1600.7117151235877
aa(lp1800
VVenom Scorpion
p1801
aF1600.8777996375036
aa(lp1802
VFuture trunks
p1803
aF1600.9663999434688
aa(lp1804
VYuriesbyfe
p1805
aF1601.0712026558995
aa(lp1806
VFat boo
p1807
aF1601.0817284426516
aa(lp1808
VVegeta SSJ3
p1809
aF1601.1930742452703
aa(lp1810
VSyo Hayate
p1811
aF1601.2105429867665
aa(lp1812
VMordecai
p1813
aF1601.223106140998
aa(lp1814
VTest4
p1815
aF1601.2894994538422
aa(lp1816
VSad Claps
p1817
aF1601.3805038742612
aa(lp1818
VMaster Sakura
p1819
aF1601.3907529274877
aa(lp1820
VYusuke
p1821
aF1601.4560230540817
aa(lp1822
VSamurai Jack
p1823
aF1601.5195216741538
aa(lp1824
VWhite Len
p1825
aF1601.55149445343
aa(lp1826
VHarley quinn
p1827
aF1601.7181254127224
aa(lp1828
VAnother Iori
p1829
aF1601.8056119986238
aa(lp1830
VTenshi
p1831
aF1601.8618948611943
aa(lp1832
VGlacius
p1833
aF1601.9042820533311
aa(lp1834
VGoro
p1835
aF1602.0704559727405
aa(lp1836
VDhalsim
p1837
aF1602.1073159854514
aa(lp1838
VGoku GT
p1839
aF1602.1110877689316
aa(lp1840
VScarlet witch
p1841
aF1602.2420607047145
aa(lp1842
VObsidian
p1843
aF1602.2587814134076
aa(lp1844
VSexy arina
p1845
aF1602.3442661169545
aa(lp1846
VNeco chaos
p1847
aF1602.4463869782644
aa(lp1848
VVidel
p1849
aF1602.4955184457722
aa(lp1850
VM-vegeta-ssj3
p1851
aF1602.5956528905474
aa(lp1852
VSSJ6 Vegeta
p1853
aF1602.6874341455034
aa(lp1854
VRimle
p1855
aF1602.7198607017351
aa(lp1856
VKujo jotaro
p1857
aF1602.7625704364302
aa(lp1858
VMajin vegeta ssj6
p1859
aF1602.8488890825301
aa(lp1860
VBroli ssj5
p1861
aF1602.9204604848217
aa(lp1862
VBizarro
p1863
aF1603.2255355883542
aa(lp1864
VGoku ssj4
p1865
aF1603.246174014553
aa(lp1866
VWing Zero
p1867
aF1603.4241876725453
aa(lp1868
VOozaru
p1869
aF1603.4435242788825
aa(lp1870
VSuper soldier
p1871
aF1603.4931053468338
aa(lp1872
VLady deathstrike
p1873
aF1604.1443204878497
aa(lp1874
VOrione
p1875
aF1604.2319267973166
aa(lp1876
VCaptain America
p1877
aF1604.3961151047681
aa(lp1878
VKen and Gang
p1879
aF1604.873371174194
aa(lp1880
VRobert garcia
p1881
aF1605.1776943059124
aa(lp1882
VP Chunli
p1883
aF1605.2364220070301
aa(lp1884
VHol Horse
p1885
aF1605.2872927814767
aa(lp1886
VSolid snake
p1887
aF1605.2994894707324
aa(lp1888
VSSJ4 Gogeta
p1889
aF1605.4219344877024
aa(lp1890
VAbyss
p1891
aF1605.4420030892588
aa(lp1892
VSsj4 goten
p1893
aF1605.448580953522
aa(lp1894
VThanoseid
p1895
aF1605.4584323860379
aa(lp1896
VGreat S man
p1897
aF1605.4731132624336
aa(lp1898
VYellow Devil
p1899
aF1605.4753476954295
aa(lp1900
VBlue Destiny 2
p1901
aF1605.4920218145712
aa(lp1902
VWinnie the Pooh
p1903
aF1605.5323569175841
aa(lp1904
VDoom Vega
p1905
aF1605.6019956238079
aa(lp1906
VKanmi Chan
p1907
aF1605.635785343178
aa(lp1908
VRobo Ky
p1909
aF1605.652672782178
aa(lp1910
VAmi BF
p1911
aF1605.8990806002528
aa(lp1912
VJotaro Kujo
p1913
aF1605.8990806002528
aa(lp1914
VSSJ3 Broli
p1915
aF1606.0107902993934
aa(lp1916
VDark Chun Li
p1917
aF1606.0364904630994
aa(lp1918
VOmega Tom Hanks
p1919
aF1606.039936421753
aa(lp1920
VAngel Ryu
p1921
aF1606.083443874694
aa(lp1922
VBasara
p1923
aF1606.0852520848734
aa(lp1924
VSaori - Athena
p1925
aF1606.1306089531008
aa(lp1926
VNostalgic ballz
p1927
aF1606.14835005573
aa(lp1928
VThe Joker
p1929
aF1606.1894735163776
aa(lp1930
VKaren na hito
p1931
aF1606.2450907234895
aa(lp1932
VJoe Higashi
p1933
aF1606.3120522035329
aa(lp1934
VPrime sentinels
p1935
aF1606.3146427833012
aa(lp1936
VNoriaki kakyoin
p1937
aF1606.3178696029834
aa(lp1938
VRobo Rock
p1939
aF1606.4633912309273
aa(lp1940
VSalty and Zeroko
p1941
aF1606.5366790782457
aa(lp1942
VAku Amakusa
p1943
aF1606.5820832093882
aa(lp1944
VNeo Sephiroth
p1945
aF1606.5993110128218
aa(lp1946
VHyoga De Cisne
p1947
aF1606.6243135613756
aa(lp1948
VGohan Grande Normale
p1949
aF1606.6605704248495
aa(lp1950
VRaphael
p1951
aF1606.7623131960488
aa(lp1952
VSean Matsuda
p1953
aF1606.7727262034716
aa(lp1954
VJimmy Lee
p1955
aF1606.8797352572476
aa(lp1956
VLilin
p1957
aF1606.9369391585724
aa(lp1958
VSaori-Athena
p1959
aF1606.9449434699789
aa(lp1960
VBig Chicken
p1961
aF1606.9556340922838
aa(lp1962
VDrDoom
p1963
aF1606.9556340922838
aa(lp1964
VOrochi Iori
p1965
aF1606.9730581758865
aa(lp1966
VJay garrick
p1967
aF1606.989880129698
aa(lp1968
VNagato Yuki
p1969
aF1607.0390677405587
aa(lp1970
VRandy M Green
p1971
aF1607.1305271628266
aa(lp1972
VUsapi
p1973
aF1607.1385102172812
aa(lp1974
VMimic
p1975
aF1607.1455711732326
aa(lp1976
VMr. Fantastic
p1977
aF1607.160873728111
aa(lp1978
VMotoko-Aoyama
p1979
aF1607.167154645061
aa(lp1980
VTrunks SSJ4
p1981
aF1607.202912539904
aa(lp1982
VGohan SSJ2
p1983
aF1607.2060575398295
aa(lp1984
VDark Psylocke
p1985
aF1607.2201963643429
aa(lp1986
VBloodrayne
p1987
aF1607.2521068778374
aa(lp1988
VShiki VP
p1989
aF1607.2793709366965
aa(lp1990
VEvil Ryu
p1991
aF1607.2907627876366
aa(lp1992
VNanaya Shiki
p1993
aF1607.3025551989574
aa(lp1994
VKoopa Troppa
p1995
aF1607.3025551989574
aa(lp1996
VMr. x
p1997
aF1607.3099872049975
aa(lp1998
VJoseph the BB
p1999
aF1607.3123205295185
aa(lp2000
VMusashi Akatsuki
p2001
aF1607.369818461808
aa(lp2002
VStrider Hien
p2003
aF1607.4437336833355
aa(lp2004
VNeco-arc chaos
p2005
aF1607.4515135307809
aa(lp2006
VDee Jay
p2007
aF1607.4627809436158
aa(lp2008
VVulture
p2009
aF1607.5486169481833
aa(lp2010
VChosu
p2011
aF1607.5792530085673
aa(lp2012
VGoku SSJ GT
p2013
aF1607.6036832512389
aa(lp2014
VHina
p2015
aF1607.603873580913
aa(lp2016
VYumeji Kurokouchi
p2017
aF1607.605580350533
aa(lp2018
VNamek Gohan
p2019
aF1607.627788727566
aa(lp2020
VNeco-arc Chaos
p2021
aF1607.6283881375753
aa(lp2022
VBB Hood
p2023
aF1607.6364457659477
aa(lp2024
VShadow Vegeta
p2025
aF1607.6404984320538
aa(lp2026
VMegaman.EXE
p2027
aF1607.645093904122
aa(lp2028
VMech Hisui
p2029
aF1607.645093904122
aa(lp2030
VElisabeth blanctorche xiii
p2031
aF1607.6530206972748
aa(lp2032
VArrange_kano
p2033
aF1607.6797229074746
aa(lp2034
VMars People
p2035
aF1607.696810141636
aa(lp2036
VMai_K
p2037
aF1607.7129925721085
aa(lp2038
VFlash
p2039
aF1607.718880654764
aa(lp2040
VYoko Yuki
p2041
aF1607.7406762359822
aa(lp2042
VShadow Man
p2043
aF1607.7800661430847
aa(lp2044
VT Kawk
p2045
aF1607.7802027814912
aa(lp2046
VKagami Kyosuke
p2047
aF1607.7851482178012
aa(lp2048
VDr. Doom
p2049
aF1607.8027885996084
aa(lp2050
VTest7
p2051
aF1607.820064313271
aa(lp2052
VShuko
p2053
aF1607.820064313271
aa(lp2054
VTest5
p2055
aF1607.8249580360632
aa(lp2056
VNega Joe
p2057
aF1607.8277451360386
aa(lp2058
VIron Lantern
p2059
aF1607.8703966812436
aa(lp2060
VJamian Di Corvus
p2061
aF1607.9091765862488
aa(lp2062
VSatsuki Yumiduka
p2063
aF1607.916839091873
aa(lp2064
VArmored Gohan
p2065
aF1607.9436293779881
aa(lp2066
VKung Lao
p2067
aF1607.964911374374
aa(lp2068
VEiko Magami
p2069
aF1607.9679817443653
aa(lp2070
VShiki Tohno
p2071
aF1607.9679817443653
aa(lp2072
VWakamoto
p2073
aF1607.9819952584626
aa(lp2074
VViuda Negra
p2075
aF1607.9994245738455
aa(lp2076
Vsilversam\u005csilversam.def
p2077
aF1608.0
aa(lp2078
VRajaaShiki\u005cRajaaShiki.def
p2079
aF1608.0
aa(lp2080
VWagahai
p2081
aF1608.0
aa(lp2082
VRajaaMech-Hisui\u005cRajaaMech-Hisui.def
p2083
aF1608.0
aa(lp2084
VTest
p2085
aF1608.0
aa(lp2086
Vgokussj4GT
p2087
aF1608.0
aa(lp2088
VASH_RMH\u005cASH-ita.def
p2089
aF1608.0
aa(lp2090
VOpening
p2091
aF1608.0
aa(lp2092
Vtrunkssb1v59\u005ctrunkssb1v59.def
p2093
aF1608.0
aa(lp2094
Vmorfo
p2095
aF1608.0
aa(lp2096
Vperfect-cell
p2097
aF1608.0
aa(lp2098
Vshaq
p2099
aF1608.0
aa(lp2100
VNEJI_COSPLAY\u005cNEJI_COSPLAY.def
p2101
aF1608.0
aa(lp2102
Vkarin\u005ckarin.def
p2103
aF1608.0
aa(lp2104
VTEST
p2105
aF1608.0
aa(lp2106
VKiller Whale 1
p2107
aF1608.0
aa(lp2108
VClow\u005cShaoran.def
p2109
aF1608.0
aa(lp2110
Vkidgohan\u005ckidgohan.def
p2111
aF1608.0
aa(lp2112
Vgokuk
p2113
aF1608.0
aa(lp2114
VLex Luthor
p2115
aF1608.0202120405934
aa(lp2116
VGod Yuri
p2117
aF1608.0240721350333
aa(lp2118
VPrime Sentinels
p2119
aF1608.12567471076
aa(lp2120
VWar Machine
p2121
aF1608.161788780095
aa(lp2122
VOnpu Segawa
p2123
aF1608.1685942558909
aa(lp2124
VTest3
p2125
aF1608.1771158136053
aa(lp2126
VCyborg Mai
p2127
aF1608.1849450297184
aa(lp2128
VMecha Potemkin
p2129
aF1608.1913915327043
aa(lp2130
VPerfect Storm X
p2131
aF1608.1973785436837
aa(lp2132
VShermie
p2133
aF1608.2103250766213
aa(lp2134
VEri_hasumi
p2135
aF1608.2238581630343
aa(lp2136
VMai Shiranui
p2137
aF1608.367353792632
aa(lp2138
VRadish SSJ4
p2139
aF1608.36812750961
aa(lp2140
VMoraga
p2141
aF1608.375687069161
aa(lp2142
VYellow-Pipo
p2143
aF1608.3857686264419
aa(lp2144
VNoriaki Kakyoin
p2145
aF1608.4015679822148
aa(lp2146
VSlash
p2147
aF1608.4346265363547
aa(lp2148
VAnother Kyo
p2149
aF1608.4621758359217
aa(lp2150
VZero Hotaru
p2151
aF1608.4783326612676
aa(lp2152
VBaby Commando
p2153
aF1608.5019424353377
aa(lp2154
VLobo
p2155
aF1608.5521019935422
aa(lp2156
VKurokishi
p2157
aF1608.5923781387125
aa(lp2158
VJeice
p2159
aF1608.5992920481858
aa(lp2160
VCheap Boss Type
p2161
aF1608.6344778391106
aa(lp2162
VSSJ5 Goku
p2163
aF1608.77255007349
aa(lp2164
VStrider Hiryu
p2165
aF1608.9062624882542
aa(lp2166
VGogeta ssj2
p2167
aF1608.9106337693836
aa(lp2168
VGogeta SSJ3
p2169
aF1608.9175564619807
aa(lp2170
VGohan school
p2171
aF1608.9586070873809
aa(lp2172
VShin Ninja Turtle
p2173
aF1608.9667611641673
aa(lp2174
VSnake Eyes
p2175
aF1609.1618325054071
aa(lp2176
VOmega tom hanks
p2177
aF1609.202051187553
aa(lp2178
VMinakata moriya
p2179
aF1609.203357441003
aa(lp2180
VZangief
p2181
aF1609.2295040365436
aa(lp2182
VHeihachi
p2183
aF1609.246140107883
aa(lp2184
VPrincess silver
p2185
aF1609.3052392886177
aa(lp2186
VRimururu
p2187
aF1609.3193319496231
aa(lp2188
VPrince vegeta
p2189
aF1609.345248598168
aa(lp2190
VDespero
p2191
aF1609.3970087666899
aa(lp2192
VJon Talbain
p2193
aF1609.4425951745377
aa(lp2194
VMirai Trunks
p2195
aF1609.4459214007106
aa(lp2196
VMoleman\u005cMoleman.def
p2197
aF1609.4545454545455
aa(lp2198
VAnnie Murakami
p2199
aF1609.6696834834622
aa(lp2200
VMr. Bison
p2201
aF1609.8844663776063
aa(lp2202
VSymbiote onslaught
p2203
aF1609.9051731635616
aa(lp2204
VJason Todd
p2205
aF1609.9336305264644
aa(lp2206
VGiygas
p2207
aF1609.948735516825
aa(lp2208
VSabretooth
p2209
aF1609.9721181450263
aa(lp2210
VShin Kazuma
p2211
aF1609.9968164154482
aa(lp2212
VBeast
p2213
aF1610.0354478307825
aa(lp2214
VRock Volnutt
p2215
aF1610.1265420390719
aa(lp2216
VNeo-sephiroth
p2217
aF1610.1354324894091
aa(lp2218
VChibi Ubuu
p2219
aF1610.144088780413
aa(lp2220
VLi sheng long
p2221
aF1610.1498233013936
aa(lp2222
VGohan ssj5
p2223
aF1610.2066824979433
aa(lp2224
VOgre Akuma
p2225
aF1610.3077822711891
aa(lp2226
VRyu Plus
p2227
aF1610.4566419965513
aa(lp2228
VJess
p2229
aF1610.482368680834
aa(lp2230
VMr satan
p2231
aF1610.581984110304
aa(lp2232
VKurama
p2233
aF1610.7298111774423
aa(lp2234
VVegeth ssj2
p2235
aF1610.8214521199898
aa(lp2236
VGoku kid_ssj
p2237
aF1610.968219623702
aa(lp2238
VUltraman
p2239
aF1611.0939806990098
aa(lp2240
VEvil ranger
p2241
aF1611.3598063800157
aa(lp2242
VCell jr
p2243
aF1611.428338081258
aa(lp2244
V'gou no ken' kenshirou
p2245
aF1611.4505911180868
aa(lp2246
VLee
p2247
aF1611.4587594638556
aa(lp2248
VRobo rock
p2249
aF1611.5080784544475
aa(lp2250
VIron Man
p2251
aF1611.5586923784267
aa(lp2252
VCyborg_mai
p2253
aF1611.6200355160697
aa(lp2254
VIchigo
p2255
aF1611.6702046285707
aa(lp2256
VJason todd
p2257
aF1611.7563427631942
aa(lp2258
VLuigi
p2259
aF1612.1546827204577
aa(lp2260
VEagle
p2261
aF1612.2569381766587
aa(lp2262
VOrochi
p2263
aF1612.6113917538219
aa(lp2264
VNash Shadow
p2265
aF1612.6913010496746
aa(lp2266
VAndore jr
p2267
aF1612.7387760129207
aa(lp2268
VBaby commando
p2269
aF1612.8011849224433
aa(lp2270
VMakoto
p2271
aF1612.8021962247308
aa(lp2272
VKazama Kazuki
p2273
aF1612.8024790238833
aa(lp2274
VKenshin
p2275
aF1612.8393759627616
aa(lp2276
VUltra SSJ5 Vegeta
p2277
aF1612.9871548157141
aa(lp2278
VThe Flash
p2279
aF1613.158539564839
aa(lp2280
VRaoh
p2281
aF1613.5120566990681
aa(lp2282
VVictor
p2283
aF1613.5555060276797
aa(lp2284
VLion Magnus
p2285
aF1613.5590167900207
aa(lp2286
VBatman beyond
p2287
aF1613.609035500355
aa(lp2288
VTest1
p2289
aF1613.6363426164414
aa(lp2290
VAndroide 18
p2291
aF1613.694321431027
aa(lp2292
VBurta
p2293
aF1613.732755824562
aa(lp2294
VJohnny Cage
p2295
aF1613.887102648286
aa(lp2296
VMiss Marvel
p2297
aF1613.9189913591651
aa(lp2298
VRoomi
p2299
aF1613.938685810204
aa(lp2300
VIsaiah bradley
p2301
aF1614.0426183444308
aa(lp2302
VEriol Hiiragizawa
p2303
aF1614.1366163105406
aa(lp2304
VOmega Red
p2305
aF1614.1823247621257
aa(lp2306
VEmma Frost
p2307
aF1614.2017139932716
aa(lp2308
VBatman Beyond
p2309
aF1614.2419168409021
aa(lp2310
VGoten GT
p2311
aF1614.271161097926
aa(lp2312
VR Lilith
p2313
aF1614.3815252789789
aa(lp2314
VNagato yuki
p2315
aF1614.4596770140024
aa(lp2316
VLi Sheng Long
p2317
aF1614.650336930178
aa(lp2318
VChibiko
p2319
aF1614.792752828631
aa(lp2320
VHijiri byakuren
p2321
aF1614.8184135588222
aa(lp2322
VAndore Jr
p2323
aF1614.8454445739928
aa(lp2324
VLou
p2325
aF1614.8647327624374
aa(lp2326
VThe Thing
p2327
aF1614.8671793947967
aa(lp2328
VPaul Phoenix
p2329
aF1614.910855397899
aa(lp2330
VMajin Vegeta
p2331
aF1614.9112288076535
aa(lp2332
VKisume
p2333
aF1614.9966175413972
aa(lp2334
VGiro
p2335
aF1615.0103004337427
aa(lp2336
VKingpin
p2337
aF1615.0307715828203
aa(lp2338
VFirestar
p2339
aF1615.0395816377227
aa(lp2340
VBaitang
p2341
aF1615.15334845784
aa(lp2342
VNamor
p2343
aF1615.1702488628096
aa(lp2344
VYuugi
p2345
aF1615.2143550681244
aa(lp2346
VGoku SSJ4 DB Final Bout
p2347
aF1615.2678674132696
aa(lp2348
VStrong Guy
p2349
aF1615.3798443562193
aa(lp2350
VLeona
p2351
aF1615.4310677818885
aa(lp2352
VHoly Ken
p2353
aF1615.539134163911
aa(lp2354
VDora
p2355
aF1615.5401974297479
aa(lp2356
VVegeth@
p2357
aF1615.5727794194781
aa(lp2358
VSagat
p2359
aF1615.580820598659
aa(lp2360
VCaptain Marvel
p2361
aF1615.7913893070572
aa(lp2362
VUtsuho reiuji
p2363
aF1615.7948574313987
aa(lp2364
VSailor mars
p2365
aF1615.8004300840942
aa(lp2366
VSub-Zero
p2367
aF1615.820064313271
aa(lp2368
VKazuki
p2369
aF1615.820064313271
aa(lp2370
VMiyako yoshika
p2371
aF1615.826841650316
aa(lp2372
VSuper Mario
p2373
aF1615.9750095595973
aa(lp2374
VBlack Tiger
p2375
aF1615.9803084029481
aa(lp2376
VMagneto
p2377
aF1615.998873349504
aa(lp2378
V*Chameleon
p2379
aI1616
aa(lp2380
VG-Rugal
p2381
aI1616
aa(lp2382
V*Prime Sentinels
p2383
aI1616
aa(lp2384
VNero Chaos
p2385
aI1616
aa(lp2386
V*Hal Jordan
p2387
aI1616
aa(lp2388
VGohan SSJ3
p2389
aI1616
aa(lp2390
VRedLantern\u005cRedLantern.def
p2391
aI1616
aa(lp2392
V*Son Goku
p2393
aI1616
aa(lp2394
V*Krauser
p2395
aI1616
aa(lp2396
V*Saito
p2397
aI1616
aa(lp2398
VFuture Trunks
p2399
aI1616
aa(lp2400
V*Android 16
p2401
aI1616
aa(lp2402
VShin Bison
p2403
aI1616
aa(lp2404
VGohan SSJ4
p2405
aI1616
aa(lp2406
V*Miss Marvel
p2407
aI1616
aa(lp2408
VKazuya Mishima
p2409
aI1616
aa(lp2410
VCaptain Caveman
p2411
aI1616
aa(lp2412
V*Heihachi
p2413
aI1616
aa(lp2414
VCell Frieza
p2415
aI1616
aa(lp2416
VCyborg Superman
p2417
aI1616
aa(lp2418
VSasuke Kun
p2419
aI1616
aa(lp2420
V*Moleman
p2421
aI1616
aa(lp2422
VLynn Baker
p2423
aI1616
aa(lp2424
VRobo-Kyii
p2425
aI1616
aa(lp2426
V*Maraiah
p2427
aI1616
aa(lp2428
V*Felicia
p2429
aI1616
aa(lp2430
VGuile Machine
p2431
aI1616
aa(lp2432
Vcellhd\u005ccellhd.def
p2433
aI1616
aa(lp2434
VGreen Lantern JS
p2435
aI1616
aa(lp2436
VCyborg_Mai
p2437
aI1616
aa(lp2438
VOozura Vegeta
p2439
aI1616
aa(lp2440
VNorimaru
p2441
aI1616
aa(lp2442
VBlack Cat
p2443
aI1616
aa(lp2444
V*Sagat MB-02
p2445
aI1616
aa(lp2446
VUltimate Gohan
p2447
aI1616
aa(lp2448
VMega Weapon
p2449
aI1616
aa(lp2450
VLisa
p2451
aI1616
aa(lp2452
V*Warmachine
p2453
aI1616
aa(lp2454
VNormal Chibi Trunks
p2455
aI1616
aa(lp2456
VGreat Sayaman
p2457
aI1616
aa(lp2458
VEvil Dan
p2459
aI1616
aa(lp2460
VInsane Hiryu
p2461
aI1616
aa(lp2462
VUppercut x2
p2463
aI1616
aa(lp2464
VGoku Nex
p2465
aI1616
aa(lp2466
VEvil Ken and Ryu
p2467
aI1616
aa(lp2468
V*Cyborg Superman
p2469
aI1616
aa(lp2470
VSuper Goku
p2471
aI1616
aa(lp2472
V*Donovan
p2473
aI1616
aa(lp2474
VGohan Saiya Jin EX
p2475
aI1616
aa(lp2476
VMSakura + PstormX
p2477
aI1616
aa(lp2478
VSadClaps + AltAmiba
p2479
aI1616
aa(lp2480
V*Bullseye
p2481
aI1616
aa(lp2482
VSakura Shingouji
p2483
aI1616
aa(lp2484
V*Kim
p2485
aI1616
aa(lp2486
VJoseph Joestar
p2487
aI1616
aa(lp2488
VBra 2
p2489
aI1616
aa(lp2490
VGray Fly 2
p2491
aI1616
aa(lp2492
VMai K
p2493
aI1616
aa(lp2494
VVegeta SSJ4
p2495
aI1616
aa(lp2496
VGinew 1
p2497
aI1616
aa(lp2498
VGoku Sayajin
p2499
aI1616
aa(lp2500
VYuki in Midday
p2501
aI1616
aa(lp2502
V*Rajaamaki
p2503
aI1616
aa(lp2504
V*Kagami Kyosuke
p2505
aI1616
aa(lp2506
VYatogi Tetsu
p2507
aI1616
aa(lp2508
VAku-Amakusa
p2509
aI1616
aa(lp2510
V*Zangief Maskered
p2511
aI1616
aa(lp2512
VLast Adult Goku
p2513
aI1616
aa(lp2514
VResume on or after 12:55am
p2515
aI1616
aa(lp2516
VAlter Amiba
p2517
aI1616
aa(lp2518
VRox Howard Clones
p2519
aF1616.1089567816005
aa(lp2520
VShadow Dio
p2521
aF1616.1304338403231
aa(lp2522
VJyakku no keshin dio
p2523
aF1616.1410239032225
aa(lp2524
VSerika
p2525
aF1616.2046541408213
aa(lp2526
VCless Alvein
p2527
aF1616.2998180764937
aa(lp2528
VNanaya shiki
p2529
aF1616.4952504761766
aa(lp2530
VBlaze Agent
p2531
aF1616.502018272923
aa(lp2532
VMilan Flare
p2533
aF1616.6827772307904
aa(lp2534
VAmi bf
p2535
aF1616.6876300409547
aa(lp2536
VByakuya
p2537
aF1616.7622689645527
aa(lp2538
VRin natsume
p2539
aF1616.8394181845745
aa(lp2540
VHatate_himekaidou
p2541
aF1616.9491031362948
aa(lp2542
VSon Gohan
p2543
aF1616.9727334855788
aa(lp2544
VKyle dunamis
p2545
aF1616.99350376837
aa(lp2546
VViolent Dan
p2547
aF1617.0274650545402
aa(lp2548
VGoku ssj2
p2549
aF1617.0728346873298
aa(lp2550
VMinis mahn
p2551
aF1617.1401633203639
aa(lp2552
VKiba
p2553
aF1617.1464708317972
aa(lp2554
VZangief Maskered
p2555
aF1617.2145617526653
aa(lp2556
VStrong guy
p2557
aF1617.3687953230337
aa(lp2558
VChaos Hiryu
p2559
aF1617.3989866431914
aa(lp2560
VPitt
p2561
aF1617.407410606027
aa(lp2562
VSSJ4 Goten
p2563
aF1617.4545454545455
aa(lp2564
VYuyuko & youmu
p2565
aF1617.4545454545455
aa(lp2566
VPerfect Cell
p2567
aF1617.4545454545455
aa(lp2568
VGajeel
p2569
aF1617.4545454545455
aa(lp2570
VJin Saotome
p2571
aF1617.4545454545455
aa(lp2572
V*Jay Garrick
p2573
aF1617.4545454545455
aa(lp2574
VIwao
p2575
aF1617.5500719224747
aa(lp2576
VPaul phoenix
p2577
aF1617.552078672684
aa(lp2578
VCv wakamoto
p2579
aF1617.6920269081165
aa(lp2580
VButt-head
p2581
aF1617.731138850961
aa(lp2582
VVanilla H
p2583
aF1617.7923978538245
aa(lp2584
VAstaroth
p2585
aF1617.9250144549305
aa(lp2586
VKoopa troopa
p2587
aF1617.951651148888
aa(lp2588
VMech Zangief
p2589
aF1617.9864736069346
aa(lp2590
VSon Trunks
p2591
aF1618.196563994005
aa(lp2592
VSsj3 goku
p2593
aF1618.2394190163268
aa(lp2594
VDocock
p2595
aF1618.3339164414506
aa(lp2596
VZero hotaru
p2597
aF1618.5986081661322
aa(lp2598
VBlossom
p2599
aF1619.1598284789604
aa(lp2600
VShocker
p2601
aF1619.2015646311431
aa(lp2602
VOrochi iori
p2603
aF1619.2367249214597
aa(lp2604
VJay Garrick
p2605
aF1619.2449933986718
aa(lp2606
VWario
p2607
aF1619.2710391719318
aa(lp2608
VMarisa Kirisame
p2609
aF1619.3099718595015
aa(lp2610
VWaha-
p2611
aF1619.4028465520198
aa(lp2612
VHisame shizumaru
p2613
aF1619.429199371005
aa(lp2614
VCell junior
p2615
aF1619.6724555584951
aa(lp2616
VYellow devil
p2617
aF1619.8066273468141
aa(lp2618
VVegeta normal 3
p2619
aF1620.6386876812749
aa(lp2620
VKrizalid
p2621
aF1620.7985323523192
aa(lp2622
VBattle mahoro
p2623
aF1620.9937275174784
aa(lp2624
VKyo
p2625
aF1621.0764789447298
aa(lp2626
VAVDOL VER2001
p2627
aF1621.4875806502855
aa(lp2628
VMr.karate
p2629
aF1621.5505201917547
aa(lp2630
VSeravy
p2631
aF1621.6704775101662
aa(lp2632
VIk borodin
p2633
aF1621.9119102645966
aa(lp2634
VRyuho
p2635
aF1622.0376471521488
aa(lp2636
VTaki
p2637
aF1622.0828644817695
aa(lp2638
VCactuar
p2639
aF1622.2467655627895
aa(lp2640
VNatsu
p2641
aF1622.3015266985158
aa(lp2642
VArcher
p2643
aF1622.3351154675856
aa(lp2644
VPiccolo
p2645
aF1622.583274132294
aa(lp2646
VHayato
p2647
aF1622.6201644568741
aa(lp2648
VYuyuko saigyouji
p2649
aF1622.9054282578754
aa(lp2650
VVice
p2651
aF1622.9064308927054
aa(lp2652
VSangoku
p2653
aF1622.9301257680888
aa(lp2654
VJack frost
p2655
aF1623.0487999477514
aa(lp2656
VChun-li
p2657
aF1623.0735093412898
aa(lp2658
VZombie
p2659
aF1623.090183254255
aa(lp2660
VYoutube Poop Robotnik
p2661
aF1623.2009315320656
aa(lp2662
VHiedano akyu
p2663
aF1623.2643748781684
aa(lp2664
VHotaru futaba
p2665
aF1623.3291806298614
aa(lp2666
VThe Nightmare
p2667
aF1623.372719324598
aa(lp2668
VDoraemon
p2669
aF1623.407025224825
aa(lp2670
VKensou
p2671
aF1623.4073843331573
aa(lp2672
VSeth
p2673
aF1623.4197322472132
aa(lp2674
VBlack Widow
p2675
aF1623.4564611327212
aa(lp2676
VGohan saiya-jin ex
p2677
aF1623.4742185641342
aa(lp2678
VAchi cirno
p2679
aF1623.528391936489
aa(lp2680
VM Bison
p2681
aF1623.56561560682
aa(lp2682
VThe Blob
p2683
aF1623.5814233868796
aa(lp2684
VWing zero
p2685
aF1623.6052471303165
aa(lp2686
VMiko
p2687
aF1623.6320260287337
aa(lp2688
VAmi
p2689
aF1623.6905827731246
aa(lp2690
VVenom scorpion
p2691
aF1623.8536250854331
aa(lp2692
VEvil Ken
p2693
aF1624.0030033500225
aa(lp2694
VBiohazard
p2695
aF1624.0249605741424
aa(lp2696
VMinis Mahn
p2697
aF1624.0957269251069
aa(lp2698
VShiori misaka
p2699
aF1624.1033218489292
aa(lp2700
VIggy
p2701
aF1624.8469475912893
aa(lp2702
VVita
p2703
aF1624.983591427162
aa(lp2704
VSuika ibuki
p2705
aF1625.0310952122923
aa(lp2706
VShaoran lee
p2707
aF1625.049703303411
aa(lp2708
VColossus
p2709
aF1625.0843137977051
aa(lp2710
VNmori yagami
p2711
aF1625.0905288913712
aa(lp2712
VGreen Latern GG
p2713
aF1625.1762621430569
aa(lp2714
VArrange_remilia
p2715
aF1625.5508218232249
aa(lp2716
VHanyuu
p2717
aF1625.5548426281202
aa(lp2718
VWakko
p2719
aF1625.609379556762
aa(lp2720
VZangyura
p2721
aF1625.6103717101869
aa(lp2722
VTsugumi
p2723
aF1625.7738307103348
aa(lp2724
VBass
p2725
aF1625.774208948325
aa(lp2726
VRegina
p2727
aF1625.8139023718882
aa(lp2728
VEiko magami
p2729
aF1626.078155409773
aa(lp2730
VBlack mask
p2731
aF1626.4982717672124
aa(lp2732
VChomper
p2733
aF1626.4990495316313
aa(lp2734
VMichaelangelo
p2735
aF1626.6323491726966
aa(lp2736
VScarecrow
p2737
aF1627.401404707541
aa(lp2738
VGalactus
p2739
aF1627.7492501070158
aa(lp2740
VKen
p2741
aF1627.9352223657895
aa(lp2742
VKohaku
p2743
aF1628.2429708623279
aa(lp2744
VDocinho
p2745
aF1628.4713629653395
aa(lp2746
VBridget
p2747
aF1628.5734040910693
aa(lp2748
VJoe higashi
p2749
aF1629.0733860366108
aa(lp2750
VKing Godzilla
p2751
aF1629.1005594299045
aa(lp2752
VGohan zeta
p2753
aF1629.1909824771412
aa(lp2754
VTrouble man
p2755
aF1629.2432125249986
aa(lp2756
VGod yuri
p2757
aF1629.425909059673
aa(lp2758
VLilith
p2759
aF1629.428009369736
aa(lp2760
VNinja megazord
p2761
aF1629.4472961763086
aa(lp2762
VMaster Hand
p2763
aF1629.4602554157618
aa(lp2764
VVivi_ornitier
p2765
aF1629.6597684762223
aa(lp2766
VAkuma
p2767
aF1629.7403972595491
aa(lp2768
VMexican Typhoon
p2769
aF1629.8587731141408
aa(lp2770
VShikieiki yamaxanadu
p2771
aF1629.886351093567
aa(lp2772
VJuan
p2773
aF1629.9031569125566
aa(lp2774
VYumeji kurokouchi
p2775
aF1629.9268070519522
aa(lp2776
VRed ranger
p2777
aF1630.2237754615605
aa(lp2778
VDio di musca
p2779
aF1630.351135487429
aa(lp2780
VG Rugal
p2781
aF1630.5212869708932
aa(lp2782
VOmega
p2783
aF1630.657949897831
aa(lp2784
VYuka takeuchi
p2785
aF1630.9267045233041
aa(lp2786
VShin bison
p2787
aF1630.9392487470006
aa(lp2788
VYoumu konpaku
p2789
aF1630.962751407493
aa(lp2790
VKanako yasaka
p2791
aF1630.9768028626397
aa(lp2792
VSakuya_swr
p2793
aF1631.0401568642367
aa(lp2794
VClark steel
p2795
aF1631.0514471837903
aa(lp2796
VBlue destiny 2
p2797
aF1631.2699962281674
aa(lp2798
VRumia
p2799
aF1631.448460345366
aa(lp2800
VSailor uranus
p2801
aF1631.4603915338678
aa(lp2802
VKaede_hioh
p2803
aF1631.4847358322254
aa(lp2804
VGoten gt
p2805
aF1631.501613878282
aa(lp2806
VArthas
p2807
aF1631.663327700215
aa(lp2808
VRhadamantis
p2809
aF1631.6956328484275
aa(lp2810
VVegeta ssj5
p2811
aF1631.8521144310482
aa(lp2812
VPegAAAAAAsus x2
p2813
aI1632
aa(lp2814
VYuri di AAAA
p2815
aI1632
aa(lp2816
VDonatello
p2817
aF1632.1786574676546
aa(lp2818
VMedicine melancholy
p2819
aF1632.1836594363144
aa(lp2820
VCirno
p2821
aF1632.3376828025275
aa(lp2822
VNagae iku
p2823
aF1632.4950320382966
aa(lp2824
VEliza
p2825
aF1632.5176855551126
aa(lp2826
VGeese
p2827
aF1632.9814273848524
aa(lp2828
VOozura vegeta
p2829
aF1633.2205257556407
aa(lp2830
VDeath Ogre
p2831
aF1633.4545454545455
aa(lp2832
VMirai trunks
p2833
aF1633.6317983618148
aa(lp2834
VBlack adam
p2835
aF1633.9699121678846
aa(lp2836
VKung lao
p2837
aF1634.1027584367487
aa(lp2838
VCpu nobunaga
p2839
aF1634.1348781574818
aa(lp2840
VMegaman
p2841
aF1634.3237243119472
aa(lp2842
VAndroide 17
p2843
aF1634.8682729035677
aa(lp2844
VDizzy
p2845
aF1635.2837675973922
aa(lp2846
VFlandre scarlet
p2847
aF1635.6505532679528
aa(lp2848
VRadel
p2849
aF1635.7541658918626
aa(lp2850
VIron lantern
p2851
aF1636.14057904479
aa(lp2852
VKishima kouma
p2853
aF1636.1904273844666
aa(lp2854
VKuma
p2855
aF1636.2626496918876
aa(lp2856
VCommissioner gordon
p2857
aF1636.3069607383836
aa(lp2858
VZangief sf4
p2859
aF1636.3717345989614
aa(lp2860
VKazuya mishima
p2861
aF1636.772362478576
aa(lp2862
VNormal freeza
p2863
aF1636.8056330015577
aa(lp2864
VDoomsday
p2865
aF1636.8104705046217
aa(lp2866
VWalkyrie
p2867
aF1636.814328224609
aa(lp2868
VNightcrawler
p2869
aF1637.049892289637
aa(lp2870
VWild ken ex
p2871
aF1637.6695220929369
aa(lp2872
VLen and w. len
p2873
aF1637.732311018346
aa(lp2874
VServbot
p2875
aF1637.7438697403804
aa(lp2876
VRyoko asakura
p2877
aF1638.0030669685002
aa(lp2878
VGoku gt
p2879
aF1638.0922472086825
aa(lp2880
VShizuha aki
p2881
aF1638.2073155361109
aa(lp2882
VDiablo
p2883
aF1638.2126500555219
aa(lp2884
VReisen_swr
p2885
aF1638.2141410373674
aa(lp2886
VSean matsuda
p2887
aF1638.3677005916334
aa(lp2888
VSyaoran
p2889
aF1638.379035259785
aa(lp2890
VAthena asamiya
p2891
aF1638.4585625063926
aa(lp2892
VSakura
p2893
aF1638.7889181410087
aa(lp2894
VPerfect cell
p2895
aF1638.9915099743498
aa(lp2896
VC-19
p2897
aF1638.9947392564661
aa(lp2898
VYukari_swr
p2899
aF1639.0835779020222
aa(lp2900
VKrusty
p2901
aF1639.219540478819
aa(lp2902
VMima
p2903
aF1639.4874256552707
aa(lp2904
VKanorin
p2905
aF1639.776899010546
aa(lp2906
VLion(coh)
p2907
aF1639.7810732708806
aa(lp2908
VMystique
p2909
aF1640.0750978668038
aa(lp2910
VGoku ssj3
p2911
aF1640.152768239209
aa(lp2912
VAura
p2913
aF1640.246285992863
aa(lp2914
VHelion
p2915
aF1640.2991579069596
aa(lp2916
VMoleman
p2917
aF1640.7731966216475
aa(lp2918
VChibi naruto
p2919
aF1640.9271850632842
aa(lp2920
VJin kazama
p2921
aF1640.970296205
aa(lp2922
VArrange_misuzu
p2923
aF1641.111984174586
aa(lp2924
VMaster ryu
p2925
aF1641.3458964288614
aa(lp2926
VGoku transformer
p2927
aF1641.4940341646006
aa(lp2928
VNeco
p2929
aF1641.7615354600314
aa(lp2930
VDare devil
p2931
aF1642.1750679934648
aa(lp2932
VMinoriko aki
p2933
aF1642.677231032144
aa(lp2934
VMukai
p2935
aF1642.6921433707737
aa(lp2936
VSon Goku
p2937
aF1642.9109443465175
aa(lp2938
VStrider hien
p2939
aF1643.0250365418478
aa(lp2940
VMilan flare
p2941
aF1643.1054981199986
aa(lp2942
VTen
p2943
aF1643.2043590774624
aa(lp2944
VGodzilla
p2945
aF1643.3207035273217
aa(lp2946
VSonic
p2947
aF1643.3602680182296
aa(lp2948
VShanghai
p2949
aF1643.7268279341517
aa(lp2950
VEmerald
p2951
aF1643.8293247296667
aa(lp2952
VMissmarvel
p2953
aF1644.0255760882305
aa(lp2954
VIkki
p2955
aF1644.026720062264
aa(lp2956
VParasite
p2957
aF1644.115842039514
aa(lp2958
VMr. fantastic
p2959
aF1644.3176593838732
aa(lp2960
VRin rin
p2961
aF1644.3721130640956
aa(lp2962
VRan yakumo
p2963
aF1644.43010220397
aa(lp2964
VElektra
p2965
aF1644.4725201989236
aa(lp2966
VIronman
p2967
aF1644.558863202269
aa(lp2968
VSakura Kinomoto
p2969
aF1644.6058531335004
aa(lp2970
VLei-lei
p2971
aF1644.8076815430081
aa(lp2972
VKing godzilla
p2973
aF1644.833072265702
aa(lp2974
VSuika
p2975
aF1645.0336282396229
aa(lp2976
VRalf
p2977
aF1645.0622885288085
aa(lp2978
VKamiccolo
p2979
aF1645.0874536542944
aa(lp2980
VRyuuoutan
p2981
aF1645.1541031681859
aa(lp2982
VRobocop
p2983
aF1645.2524217103269
aa(lp2984
VMasta gambit
p2985
aF1645.34919124274
aa(lp2986
VPowergirl
p2987
aF1645.4617660845997
aa(lp2988
VSon goku
p2989
aF1645.741905000759
aa(lp2990
VRenamon
p2991
aF1645.758036456181
aa(lp2992
VNamazu
p2993
aF1645.8005374221527
aa(lp2994
VSatoko
p2995
aF1645.813669358808
aa(lp2996
VKira daidoji
p2997
aF1645.8808163851675
aa(lp2998
VHaohmaru
p2999
aF1645.9902112666812
aa(lp3000
VOpera elmer
p3001
aF1646.0440802805708
aa(lp3002
VYun
p3003
aF1646.2505976591196
aa(lp3004
VArrange_ayu
p3005
aF1646.2549041570119
aa(lp3006
VGoten gt nex
p3007
aF1646.2829305034497
aa(lp3008
VBroly
p3009
aF1646.286122421803
aa(lp3010
VYamcha by tomur
p3011
aF1646.4780169282549
aa(lp3012
VE. honda
p3013
aF1646.6185830747
aa(lp3014
VMarisa kirisame
p3015
aF1646.7170542541655
aa(lp3016
VAkiha
p3017
aF1646.7940113666173
aa(lp3018
VShadow lady
p3019
aF1646.8735421182407
aa(lp3020
VKenpachi
p3021
aF1647.050767347686
aa(lp3022
VGengetu
p3023
aF1647.1074171100206
aa(lp3024
VMegatron
p3025
aF1647.1268821357198
aa(lp3026
VSuper buu
p3027
aF1647.2231943397053
aa(lp3028
VMecha potemkin
p3029
aF1647.2788331352035
aa(lp3030
VDark phoenix
p3031
aF1647.6722924238072
aa(lp3032
VTessa
p3033
aF1647.8209950214473
aa(lp3034
VYukari yakumo
p3035
aF1647.9842388325412
aa(lp3036
VYamame
p3037
aF1648.4418941328645
aa(lp3038
VYoko yuki
p3039
aF1648.608579229499
aa(lp3040
VAdon
p3041
aF1648.7473654050866
aa(lp3042
VChaos blanka
p3043
aF1649.014348980688
aa(lp3044
VVegeta ssj3
p3045
aF1649.1924775191244
aa(lp3046
VSub-zero
p3047
aF1649.235217151768
aa(lp3048
VHellboy
p3049
aF1649.5831305942952
aa(lp3050
VGohan ssj3
p3051
aF1649.6281086957442
aa(lp3052
VInsane hiryu
p3053
aF1649.8980086615497
aa(lp3054
VDet. garret laurel
p3055
aF1650.196891977088
aa(lp3056
VCharlotte
p3057
aF1650.3171915071778
aa(lp3058
VChun-lee dark bolt
p3059
aF1650.6274332466478
aa(lp3060
VNanoha takamachi
p3061
aF1650.8166773968503
aa(lp3062
VDeath adder
p3063
aF1650.9530353135485
aa(lp3064
VPatchouli_swr
p3065
aF1651.0759346621817
aa(lp3066
VCammy
p3067
aF1651.1010303802652
aa(lp3068
VMajin vegeta
p3069
aF1651.9493114890563
aa(lp3070
VMyuu
p3071
aF1652.0909945113951
aa(lp3072
VH-duolon
p3073
aF1652.3169494413753
aa(lp3074
VArrange_mishio
p3075
aF1652.4153383316
aa(lp3076
VPyron
p3077
aF1652.4162898562035
aa(lp3078
VFranko
p3079
aF1652.4482372578645
aa(lp3080
VAoshi
p3081
aF1652.5107747135924
aa(lp3082
VBlack widow
p3083
aF1652.554874790908
aa(lp3084
VBlodia
p3085
aF1652.6713436142527
aa(lp3086
VSayuri kurata
p3087
aF1653.0417310423393
aa(lp3088
VIvy
p3089
aF1653.1458151088673
aa(lp3090
VMaraiah
p3091
aF1653.5863002950275
aa(lp3092
VLynn baker
p3093
aF1653.6676457698404
aa(lp3094
VTeam reimisen
p3095
aF1653.8932511429343
aa(lp3096
VCapella
p3097
aF1654.2566572576682
aa(lp3098
VMusashi akatsuki
p3099
aF1654.2648695090852
aa(lp3100
VUnzan&ichirin;
p3101
aF1654.3616645831053
aa(lp3102
VNazrin
p3103
aF1654.3801853280884
aa(lp3104
VMillia
p3105
aF1654.411804224621
aa(lp3106
VYurika kirishima
p3107
aF1654.5740508683139
aa(lp3108
VProfessor x
p3109
aF1654.7346593636094
aa(lp3110
VCheap boss type
p3111
aF1655.0945345206248
aa(lp3112
VBenimaru
p3113
aF1655.3550683684934
aa(lp3114
VUltimat goku
p3115
aF1655.4389291518164
aa(lp3116
VJamian di corvus
p3117
aF1656.408814262338
aa(lp3118
VDeadpool
p3119
aF1656.6044065028295
aa(lp3120
VAlex
p3121
aF1657.2698962016423
aa(lp3122
VMech gouki
p3123
aF1657.3240726719757
aa(lp3124
VVanessa
p3125
aF1657.5109548442115
aa(lp3126
VJ'onn j'onnz
p3127
aF1657.9670175872147
aa(lp3128
VRaptor
p3129
aF1658.3501567150927
aa(lp3130
VJo jo
p3131
aF1658.417970091732
aa(lp3132
VYuuka kazami
p3133
aF1658.515423380047
aa(lp3134
VSilver surfer
p3135
aF1658.531230414731
aa(lp3136
VKim
p3137
aF1658.6827255708968
aa(lp3138
VVegeta
p3139
aF1658.7155218703454
aa(lp3140
VUltra ssj5 vegeta
p3141
aF1658.8361857232585
aa(lp3142
VUsapi-
p3143
aF1659.164580792889
aa(lp3144
VGouken
p3145
aF1659.4598248852162
aa(lp3146
VVarnage
p3147
aF1659.5614372582286
aa(lp3148
VTenma-sama
p3149
aF1659.7244389987447
aa(lp3150
VNachi
p3151
aF1659.7603211539115
aa(lp3152
VSaito
p3153
aF1659.9625329505925
aa(lp3154
VMultiple man
p3155
aF1659.9725058962247
aa(lp3156
VMugetu
p3157
aF1660.3471633958802
aa(lp3158
VSaint Kyo
p3159
aF1660.418752654374
aa(lp3160
VRouga(coh)
p3161
aF1660.4407428606155
aa(lp3162
VSonic machine
p3163
aF1660.6104290209878
aa(lp3164
VOrochi akuma
p3165
aF1660.637950697131
aa(lp3166
VSetsuna
p3167
aF1660.6718695172344
aa(lp3168
VHugo
p3169
aF1660.6776904257997
aa(lp3170
VLast adult goku
p3171
aF1660.7097013659127
aa(lp3172
VKim kaphwan
p3173
aF1660.8951535384374
aa(lp3174
VElla
p3175
aF1661.0144256332187
aa(lp3176
VGodman
p3177
aF1661.1486908098432
aa(lp3178
VGotenks gt
p3179
aF1661.1539583490655
aa(lp3180
VBatman
p3181
aF1661.2720413663933
aa(lp3182
VToron
p3183
aF1661.31980737533
aa(lp3184
VYumemi
p3185
aF1661.4104387995233
aa(lp3186
VJabu
p3187
aF1661.5056661201656
aa(lp3188
VMorrigan
p3189
aF1661.5178594318247
aa(lp3190
VArchangel
p3191
aF1661.7610363832553
aa(lp3192
VFerroman
p3193
aF1662.1444547654253
aa(lp3194
VGreen arrow
p3195
aF1662.7267584415915
aa(lp3196
VArrange_shiori
p3197
aF1663.1502137625916
aa(lp3198
VSoujiro
p3199
aF1663.3369270532005
aa(lp3200
VRugal
p3201
aF1663.436634494789
aa(lp3202
VBoo ssj
p3203
aF1663.4787542714046
aa(lp3204
VAndroid 16
p3205
aF1663.517998963542
aa(lp3206
VKeel
p3207
aF1663.558985849723
aa(lp3208
VRobin
p3209
aF1663.9197067627495
aa(lp3210
VGonzales
p3211
aF1664.06934036186
aa(lp3212
VBin laden
p3213
aF1664.1948895047024
aa(lp3214
VRyo
p3215
aF1664.20260518164
aa(lp3216
VHotaru
p3217
aF1664.3537879278763
aa(lp3218
VSatsuki yumiduka
p3219
aF1664.5531727693672
aa(lp3220
VGiano
p3221
aF1664.6514963744926
aa(lp3222
VGogeta super saiyan 3
p3223
aF1664.869510068572
aa(lp3224
VR. lilith
p3225
aF1665.0247496923782
aa(lp3226
VGreen lantern gg
p3227
aF1665.208379004897
aa(lp3228
VGoku ssj4 db final bout
p3229
aF1665.2537344301516
aa(lp3230
VGaits
p3231
aF1665.3491898157924
aa(lp3232
VArrange_unknown
p3233
aF1665.4756787837835
aa(lp3234
VRed cyclone
p3235
aF1665.674162027059
aa(lp3236
VHikaru
p3237
aF1665.7563949714665
aa(lp3238
VRyuuguu rena
p3239
aF1666.3228352769697
aa(lp3240
VDan
p3241
aF1666.3307189410607
aa(lp3242
VVanilla h
p3243
aF1666.9645545410494
aa(lp3244
VRare Akuma
p3245
aF1667.078074496036
aa(lp3246
VSaisyuu_dokusyo_bouei_system
p3247
aF1667.325426380531
aa(lp3248
VAnnie murakami
p3249
aF1667.508373224028
aa(lp3250
VP. chunli
p3251
aF1667.5131695755183
aa(lp3252
VSenna vp
p3253
aF1667.7106181176398
aa(lp3254
VLei lei
p3255
aF1668.009113600776
aa(lp3256
VDuke nukem
p3257
aF1668.341289805914
aa(lp3258
VEtrigan
p3259
aF1668.4130590205862
aa(lp3260
VZappa
p3261
aF1668.6992299990234
aa(lp3262
VChang
p3263
aF1669.038406042301
aa(lp3264
VSnake eyes
p3265
aF1669.101426424121
aa(lp3266
VKuando
p3267
aF1669.2514176372204
aa(lp3268
VBane
p3269
aF1669.6301304965343
aa(lp3270
VOrochimaru
p3271
aF1669.9821923908437
aa(lp3272
VFaust
p3273
aF1670.0757607699761
aa(lp3274
VHaggar
p3275
aF1670.3632416338498
aa(lp3276
VK'
p3277
aF1670.6772257418977
aa(lp3278
VBurter
p3279
aF1671.1884366867512
aa(lp3280
VRikuo
p3281
aF1671.3929992008361
aa(lp3282
VLord zedd
p3283
aF1671.5014618232794
aa(lp3284
VSsj three broli
p3285
aF1671.7681843526693
aa(lp3286
VThe atom
p3287
aF1671.773363363736
aa(lp3288
VUbu
p3289
aF1671.9088483608946
aa(lp3290
VWarachia
p3291
aF1672.0034471953365
aa(lp3292
VAyu tsukimiya
p3293
aF1672.0815351185868
aa(lp3294
VRiot
p3295
aF1672.1500396248844
aa(lp3296
VTien
p3297
aF1672.2273250379171
aa(lp3298
VWonder woman
p3299
aF1672.347011380481
aa(lp3300
VSteel
p3301
aF1672.5847130334005
aa(lp3302
VNightwolf
p3303
aF1672.6176923680955
aa(lp3304
VCaptain marvel
p3305
aF1672.6254563653715
aa(lp3306
VTizoc
p3307
aF1673.0515487673429
aa(lp3308
VKurihan
p3309
aF1673.2750661260616
aa(lp3310
VJedah
p3311
aF1673.3175725202423
aa(lp3312
VHaruhi suzumiya
p3313
aF1673.3845349561473
aa(lp3314
VJackal
p3315
aF1673.5242086989317
aa(lp3316
VClayface
p3317
aF1673.5983830300358
aa(lp3318
VRajaayuri
p3319
aF1673.790706497889
aa(lp3320
VBison
p3321
aF1674.274859093079
aa(lp3322
VUltimate cap
p3323
aF1674.3054079912713
aa(lp3324
VKrauser
p3325
aF1674.3090161256023
aa(lp3326
VThanos
p3327
aF1674.4215064019272
aa(lp3328
VBaby bonnie hood
p3329
aF1674.6716589372822
aa(lp3330
VShiki vp
p3331
aF1675.0125399682418
aa(lp3332
VEsmeralda
p3333
aF1675.068209769041
aa(lp3334
VEvil homer
p3335
aF1675.1591405687589
aa(lp3336
VTin's fernandeath
p3337
aF1675.1915556651436
aa(lp3338
VZinc
p3339
aF1675.2229464789436
aa(lp3340
VNega joe
p3341
aF1675.3779389715583
aa(lp3342
VUppercut
p3343
aF1675.408720170378
aa(lp3344
VRaiden
p3345
aF1675.7748920407867
aa(lp3346
VDeath black shot
p3347
aF1675.9847685696407
aa(lp3348
VSuper-8
p3349
aF1676.3996622776617
aa(lp3350
VEvil soul
p3351
aF1676.4859564067503
aa(lp3352
VShaq
p3353
aF1678.2651490097558
aa(lp3354
VJean grey
p3355
aF1678.2740564892763
aa(lp3356
VMai_k
p3357
aF1678.7252274395555
aa(lp3358
VAku-amakusa
p3359
aF1679.055350428185
aa(lp3360
VMai shiranui
p3361
aF1679.0810572150795
aa(lp3362
VOoze-o
p3363
aF1679.098605563011
aa(lp3364
VSissy
p3365
aF1679.1852211104226
aa(lp3366
VSuper goku
p3367
aF1679.626177265983
aa(lp3368
VRasetsumaru
p3369
aF1679.9574814090868
aa(lp3370
VBattousai
p3371
aF1680.2107004005395
aa(lp3372
VJudith
p3373
aF1680.2608321880034
aa(lp3374
VNanoha xp
p3375
aF1680.737422152445
aa(lp3376
VHyoga de cisne
p3377
aF1680.7890761294154
aa(lp3378
VSquall
p3379
aF1680.9274750063712
aa(lp3380
VM. bison
p3381
aF1680.996013437612
aa(lp3382
VCc iron clara
p3383
aF1681.1169884578203
aa(lp3384
VCaptain caveman
p3385
aF1681.206976112366
aa(lp3386
VKanae
p3387
aF1681.2929593196907
aa(lp3388
VKonngara
p3389
aF1681.3160110280526
aa(lp3390
VIceman
p3391
aF1681.543987952059
aa(lp3392
VReptos
p3393
aF1681.691870783362
aa(lp3394
VCarnage
p3395
aF1683.4075481082534
aa(lp3396
VRoll
p3397
aF1683.4107267671925
aa(lp3398
VPoppy
p3399
aF1683.4837397033352
aa(lp3400
VSoulgen
p3401
aF1683.921644679727
aa(lp3402
VVergil
p3403
aF1684.0798785033146
aa(lp3404
VHibiki
p3405
aF1684.1813692710782
aa(lp3406
VAracne de tarantula
p3407
aF1684.321415427305
aa(lp3408
VOnpu segawa
p3409
aF1684.5230097786985
aa(lp3410
VMarvin
p3411
aF1684.844222476375
aa(lp3412
VOmega tiger woods
p3413
aF1685.0580849475355
aa(lp3414
VKazama sogetsu
p3415
aF1685.1764074795326
aa(lp3416
VEriol hiiragizawa
p3417
aF1685.2328233513965
aa(lp3418
VShiki tohno
p3419
aF1685.2672474554042
aa(lp3420
VRoa
p3421
aF1685.4023027333344
aa(lp3422
VCyborg superman
p3423
aF1685.6412947932313
aa(lp3424
VChameleon
p3425
aF1685.821665974364
aa(lp3426
VSaiki
p3427
aF1686.0656060965387
aa(lp3428
VVertigo
p3429
aF1686.9610932812675
aa(lp3430
VCloud
p3431
aF1687.170717874916
aa(lp3432
VMech-hisui
p3433
aF1688.1280798149817
aa(lp3434
VAgony
p3435
aF1688.1678694506027
aa(lp3436
VMorph
p3437
aF1688.190417677943
aa(lp3438
VShadowman cfas
p3439
aF1688.3363545839393
aa(lp3440
VMike tyson
p3441
aF1688.3792412085834
aa(lp3442
VScream
p3443
aF1688.632033349309
aa(lp3444
VYamazaki 71113
p3445
aF1688.9561609883715
aa(lp3446
VAoko
p3447
aF1689.1750694262962
aa(lp3448
VLilith aensland
p3449
aF1689.5604381985177
aa(lp3450
VFrieza
p3451
aF1689.5853996145902
aa(lp3452
VOgre
p3453
aF1689.6222358398593
aa(lp3454
VCharlie
p3455
aF1689.7848208072708
aa(lp3456
VGoenitz
p3457
aF1689.8115813640509
aa(lp3458
VBlackheart
p3459
aF1689.8700958128104
aa(lp3460
VThor
p3461
aF1689.9852277710677
aa(lp3462
VVoid
p3463
aF1689.995475943872
aa(lp3464
VNail
p3465
aF1690.2042577838795
aa(lp3466
VIkkaku
p3467
aF1690.230236448264
aa(lp3468
VSatsuki
p3469
aF1690.521856713289
aa(lp3470
VIchi
p3471
aF1690.822832281971
aa(lp3472
VCaptain commando
p3473
aF1691.1599487174049
aa(lp3474
VClark
p3475
aF1691.167975778964
aa(lp3476
VAlex mercer
p3477
aF1691.2367082995147
aa(lp3478
VCaptain america
p3479
aF1691.553562915015
aa(lp3480
VRyu plus
p3481
aF1691.7500059738054
aa(lp3482
VRare akuma
p3483
aF1691.9315958834738
aa(lp3484
VSad claps
p3485
aF1692.3027122100655
aa(lp3486
VBishop
p3487
aF1692.542186169115
aa(lp3488
VKung fu fiunn
p3489
aF1692.7020443716397
aa(lp3490
VLucky 71113
p3491
aF1692.9261310849827
aa(lp3492
VShin kazuma
p3493
aF1692.9619098464832
aa(lp3494
VDonald
p3495
aF1693.1609833369623
aa(lp3496
VSasquatch
p3497
aF1693.7529236412697
aa(lp3498
VJimmy lee
p3499
aF1694.3910680802362
aa(lp3500
VRandy m. green
p3501
aF1694.413235578924
aa(lp3502
VWolverine
p3503
aF1695.022668298268
aa(lp3504
VMephisto
p3505
aF1695.1634376094298
aa(lp3506
VDink smallwood
p3507
aF1695.8573260895148
aa(lp3508
VSpiderman
p3509
aF1695.9287683174964
aa(lp3510
VBlack tiger
p3511
aF1696.2706423344262
aa(lp3512
VBilly lee
p3513
aF1696.2790933970923
aa(lp3514
VMongul
p3515
aF1697.1013232100167
aa(lp3516
VKouryu
p3517
aF1697.7935206370576
aa(lp3518
VNakoruru
p3519
aF1697.8113341190763
aa(lp3520
VAnakaris
p3521
aF1698.089786053514
aa(lp3522
VMech zangief
p3523
aF1698.806207467183
aa(lp3524
VAlien queen
p3525
aF1698.8411811021965
aa(lp3526
VDr.doom
p3527
aF1698.98022328387
aa(lp3528
VUltron
p3529
aF1699.4763230231388
aa(lp3530
VIronpatriot
p3531
aF1700.0111185812818
aa(lp3532
VIori 71113
p3533
aF1700.1367587156876
aa(lp3534
VRajaamaki
p3535
aF1700.2787211195366
aa(lp3536
VTalon
p3537
aF1700.3531556986243
aa(lp3538
VWonderman
p3539
aF1700.4577481507376
aa(lp3540
VFordy
p3541
aF1700.8170224365113
aa(lp3542
VGuy
p3543
aF1700.8659277888594
aa(lp3544
VDooby dummy
p3545
aF1700.9033902050194
aa(lp3546
VViolent dan
p3547
aF1701.6027270158509
aa(lp3548
VRogue
p3549
aF1701.974683631517
aa(lp3550
VSailor jupiter
p3551
aF1702.000783097043
aa(lp3552
VChizuru kagura
p3553
aF1702.7723337893653
aa(lp3554
VKraken
p3555
aF1702.8013287455733
aa(lp3556
VBerserk
p3557
aF1702.89984310319
aa(lp3558
VSuper metroid
p3559
aF1703.029880343318
aa(lp3560
VOrchid
p3561
aF1703.1534931482502
aa(lp3562
VE-terry 71113
p3563
aF1703.255398047869
aa(lp3564
VGreen lantern
p3565
aF1703.829002039226
aa(lp3566
VReptile
p3567
aF1704.0780490721347
aa(lp3568
VMexican typhoon
p3569
aF1704.157490186068
aa(lp3570
VOssan
p3571
aF1704.8471780694017
aa(lp3572
VSion
p3573
aF1705.1621908769052
aa(lp3574
VSailor venus
p3575
aF1705.3913188009421
aa(lp3576
VShin gouki
p3577
aF1705.4072689434522
aa(lp3578
VArmored gohan
p3579
aF1705.6239948136792
aa(lp3580
VShadow dio
p3581
aF1705.94443723416
aa(lp3582
VHato sabure
p3583
aF1706.378662159091
aa(lp3584
VCrystal
p3585
aF1707.3668802916497
aa(lp3586
VGhost rider
p3587
aF1707.740969610218
aa(lp3588
VLayla
p3589
aF1707.7711312573463
aa(lp3590
VHulk
p3591
aF1707.8833137836957
aa(lp3592
VLavos spawn
p3593
aF1708.1437217128523
aa(lp3594
VCyclops
p3595
aF1708.2302976932701
aa(lp3596
VRai
p3597
aF1708.2631668365443
aa(lp3598
VYue
p3599
aF1708.3005317255725
aa(lp3600
VRamon 71113
p3601
aF1709.3908706136008
aa(lp3602
VK9999
p3603
aF1710.0388498937068
aa(lp3604
VMature
p3605
aF1710.5954650851365
aa(lp3606
VMarrow
p3607
aF1710.9203724011786
aa(lp3608
VPyro
p3609
aF1710.9761399931365
aa(lp3610
VEvil ryu
p3611
aF1711.304229462983
aa(lp3612
VArcueid
p3613
aF1711.3498560409867
aa(lp3614
VDr.gero
p3615
aF1711.4153665925248
aa(lp3616
VDiablo_skeleton
p3617
aF1711.452856582889
aa(lp3618
VApocalypse
p3619
aF1711.662759045076
aa(lp3620
VSodom
p3621
aF1711.9864064725314
aa(lp3622
VJin saotome
p3623
aF1712.1639043184061
aa(lp3624
VOozura bebi
p3625
aF1713.1373925438527
aa(lp3626
VCable
p3627
aF1713.5081632548583
aa(lp3628
VWarakia
p3629
aF1713.5981381789948
aa(lp3630
VStrider hiryu
p3631
aF1715.1308565482182
aa(lp3632
VSegalow
p3633
aF1715.1383863913852
aa(lp3634
VSynn
p3635
aF1716.5813480111378
aa(lp3636
VSentinel
p3637
aF1716.6855672406277
aa(lp3638
VOgre akuma
p3639
aF1716.7101853908823
aa(lp3640
VHisui
p3641
aF1716.9250162193969
aa(lp3642
VGideon
p3643
aF1717.193419204969
aa(lp3644
VTerry bogard
p3645
aF1717.474555958502
aa(lp3646
VRock
p3647
aF1718.2835418219104
aa(lp3648
VHel'lauren
p3649
aF1718.4338362962123
aa(lp3650
VDonovan
p3651
aF1718.4931101275495
aa(lp3652
VMisty
p3653
aF1719.0725223751335
aa(lp3654
VSymbiote spider-man
p3655
aF1719.444682620428
aa(lp3656
VKamek
p3657
aF1719.9895330649308
aa(lp3658
VBlaze agent
p3659
aF1720.2905356129788
aa(lp3660
VOnslaught
p3661
aF1720.5163831482998
aa(lp3662
VDeath ogre
p3663
aF1721.0262558256914
aa(lp3664
VOverlord
p3665
aF1721.2558958464224
aa(lp3666
VSonson
p3667
aF1721.4276500325175
aa(lp3668
VBroken
p3669
aF1721.43611742747
aa(lp3670
VKazama kazuki
p3671
aF1721.4726297790382
aa(lp3672
VDemitri
p3673
aF1721.7255815860435
aa(lp3674
VMb-02
p3675
aF1722.8794928488114
aa(lp3676
VOrochi vega
p3677
aF1723.0099563696274
aa(lp3678
VZeeky h. bomb
p3679
aF1723.1710057843904
aa(lp3680
VEvil dan
p3681
aF1723.8920560801616
aa(lp3682
VNeco-arc
p3683
aF1724.5861759009297
aa(lp3684
VKanna
p3685
aF1724.6351827537733
aa(lp3686
VHomero
p3687
aF1724.9511310961627
aa(lp3688
VDragon claw
p3689
aF1725.341377086847
aa(lp3690
VSuper androide 17 hd
p3691
aF1725.636595015388
aa(lp3692
VJohnny cage
p3693
aF1727.0079411678691
aa(lp3694
VSuper skrull
p3695
aF1727.252015655881
aa(lp3696
VFlonne
p3697
aF1727.6505794949076
aa(lp3698
VSasuke kun
p3699
aF1728.460752698586
aa(lp3700
VDarkseid
p3701
aF1730.047843343322
aa(lp3702
VChiel
p3703
aF1730.1046453559607
aa(lp3704
VThe flash
p3705
aF1730.4184019910433
aa(lp3706
VShishio
p3707
aF1730.5862860421685
aa(lp3708
VKoryu
p3709
aF1731.5017433118642
aa(lp3710
VT. kawk
p3711
aF1731.7700299108506
aa(lp3712
VMs. fanservice
p3713
aF1732.282074146904
aa(lp3714
VGoku nex
p3715
aF1732.580931597292
aa(lp3716
VNrvnqsr chaos
p3717
aF1732.8731580695628
aa(lp3718
VSpiral
p3719
aF1732.9799430166154
aa(lp3720
VJuggernaut
p3721
aF1733.8612361173716
aa(lp3722
VDrdoom
p3723
aF1734.5852196043686
aa(lp3724
VLex luthor
p3725
aF1735.0479103144146
aa(lp3726
VMaster hand
p3727
aF1735.4969221805725
aa(lp3728
VRemilia
p3729
aF1736.004460923284
aa(lp3730
VSaori - athena
p3731
aF1736.1610869973847
aa(lp3732
VHyper neo-kamek
p3733
aF1736.402943723286
aa(lp3734
VBullseye
p3735
aF1736.5488441984944
aa(lp3736
VRonald
p3737
aF1736.713072299937
aa(lp3738
VThe blob
p3739
aF1737.184594962067
aa(lp3740
VSaint kyo
p3741
aF1737.1989647640619
aa(lp3742
VG-akiha
p3743
aF1737.943873470327
aa(lp3744
VAngus
p3745
aF1740.4524244444528
aa(lp3746
VThe dazzler
p3747
aF1741.0973770279995
aa(lp3748
VThe thing
p3749
aF1741.1144530250492
aa(lp3750
VSuper mario
p3751
aF1741.5938297179644
aa(lp3752
VPerfect storm x
p3753
aF1742.4427865264345
aa(lp3754
VNaruto kun
p3755
aF1742.5270152627697
aa(lp3756
VCless alvein
p3757
aF1743.8833402011094
aa(lp3758
VWell
p3759
aF1744.6881549424274
aa(lp3760
VNero
p3761
aF1745.4695082955957
aa(lp3762
VChaos hiryu
p3763
aF1748.7055704220406
aa(lp3764
VDaimon 71113
p3765
aF1749.039910421723
aa(lp3766
VLion magnus
p3767
aF1749.3776879814486
aa(lp3768
VMaster sakura
p3769
aF1750.1951848371725
aa(lp3770
VG rugal
p3771
aF1750.2580219183947
aa(lp3772
VMishio
p3773
aF1750.2945434262851
aa(lp3774
VMega weapon
p3775
aF1750.5697703339385
aa(lp3776
VGhetto warmachine
p3777
aF1750.770865174278
aa(lp3778
VGohan ssj4
p3779
aF1751.1134920678555
aa(lp3780
VSsj5 goku
p3781
aF1751.1180162913572
aa(lp3782
VRock volnutt
p3783
aF1752.5244037052255
aa(lp3784
VRadish ssj4
p3785
aF1753.4352403786854
aa(lp3786
VRyu
p3787
aF1753.6177798064648
aa(lp3788
VGohan  grande normale
p3789
aF1754.4283153602948
aa(lp3790
VBarney
p3791
aF1755.297517062653
aa(lp3792
VShuma gorath
p3793
aF1761.958680110149
aa(lp3794
VHoly ken
p3795
aF1762.0502533526167
aa(lp3796
VKiller whale
p3797
aF1765.3435564165602
aa(lp3798
VPossessed heita
p3799
aF1767.0843133328747
aa(lp3800
VPatchouli
p3801
aF1768.2481287126268
aa(lp3802
VSilversamurai
p3803
aF1770.3557461585203
aa(lp3804
VAlter amiba
p3805
aF1774.401610838539
aa(lp3806
VSandman
p3807
aF1781.6065789268782
aa(lp3808
VSakura kinomoto
p3809
aF1787.844954366991
aa(lp3810
VEvil ken
p3811
aF1817.8992894848616
aatp3812
Rp3813
.