ccollections
OrderedDict
p0
((lp1
(lp2
VGinew
p3
aF1398.1558896973784
aa(lp4
VVegeta ssj1
p5
aF1408.727825798935
aa(lp6
VVega
p7
aF1415.727142815586
aa(lp8
VWindows me
p9
aF1416.0896123027928
aa(lp10
VCatwoman
p11
aF1428.129692277675
aa(lp12
VSuigintou
p13
aF1430.1948249683703
aa(lp14
VMajin buu
p15
aF1432.5911955988747
aa(lp16
VGoku sb1
p17
aF1432.7589458117359
aa(lp18
VBlob
p19
aF1434.9930129006284
aa(lp20
V95
p21
aF1437.1417690509606
aa(lp22
VHebiitigo
p23
aF1439.291601959175
aa(lp24
VDio brando
p25
aF1439.608227289971
aa(lp26
VPikachu
p27
aF1441.4162848658416
aa(lp28
VTrunks
p29
aF1442.7112436667935
aa(lp30
VRouge
p31
aF1443.4361842143835
aa(lp32
VTao jun
p33
aF1443.7708582791915
aa(lp34
VVisbou
p35
aF1444.6833224969478
aa(lp36
VMarie
p37
aF1445.179266805957
aa(lp38
VNyaonyao
p39
aF1445.8961915711934
aa(lp40
VEdward elrick
p41
aF1450.2854941199457
aa(lp42
VMaximum frieza
p43
aF1451.7971592035265
aa(lp44
VDinozord
p45
aF1452.9446939174716
aa(lp46
VKrillin
p47
aF1453.1576551370965
aa(lp48
VSub zero
p49
aF1453.5106119219672
aa(lp50
VYellow-pipo
p51
aF1454.8565977769206
aa(lp52
VRecoome
p53
aF1456.920323568981
aa(lp54
VZidane
p55
aF1457.0476799679484
aa(lp56
VYakui san
p57
aF1457.3669583076648
aa(lp58
VBlack manta
p59
aF1457.617877539228
aa(lp60
VKagome
p61
aF1457.9832289396702
aa(lp62
VMiyazato erika
p63
aF1458.1840216012527
aa(lp64
VDante
p65
aF1458.3181274693961
aa(lp66
VAmy
p67
aF1458.3242333877386
aa(lp68
VGokussj4d
p69
aF1458.6183660662089
aa(lp70
VZaku
p71
aF1458.8203350594263
aa(lp72
VNightmare
p73
aF1459.0646920695606
aa(lp74
VBlaster
p75
aF1460.2045749870583
aa(lp76
VCell
p77
aF1461.475252250203
aa(lp78
VOgitafanada
p79
aF1463.4099386183113
aa(lp80
VSsj4gohan
p81
aF1463.4963113105448
aa(lp82
V2ban-tan
p83
aF1464.5858168247366
aa(lp84
VMarle
p85
aF1466.015238012327
aa(lp86
VTetsuo
p87
aF1466.1095854626817
aa(lp88
VHercule gt
p89
aF1467.8818597642532
aa(lp90
VModoi-san
p91
aF1468.4841775017658
aa(lp92
VOmegamon
p93
aF1469.4155637973477
aa(lp94
VMega piccolo
p95
aF1469.5905050707372
aa(lp96
VSinku
p97
aF1469.604828351642
aa(lp98
VVanilla ice
p99
aF1469.7598120702512
aa(lp100
VCrono
p101
aF1469.7958266491953
aa(lp102
VXanmi chan
p103
aF1470.032349928943
aa(lp104
VAnother jissou seki
p105
aF1470.3657590703701
aa(lp106
VThink
p107
aF1470.6459465068654
aa(lp108
VZemial
p109
aF1470.892350581971
aa(lp110
VYoshikage killa
p111
aF1470.9429731101036
aa(lp112
VSol
p113
aF1470.9775399132386
aa(lp114
VYamiyuki
p115
aF1472.1142888843735
aa(lp116
VBrainiac
p117
aF1472.900795126573
aa(lp118
VNobunaga
p119
aF1472.9110585301516
aa(lp120
VSparta_heika
p121
aF1473.0980991127246
aa(lp122
VX
p123
aF1473.5197378227213
aa(lp124
VMagus
p125
aF1473.5436123854322
aa(lp126
VMega gohan
p127
aF1475.741685157135
aa(lp128
VScorpion
p129
aF1476.2226079147201
aa(lp130
VGogeta ssj
p131
aF1476.3435591615428
aa(lp132
VKomepo
p133
aF1477.85251701775
aa(lp134
VChaos
p135
aF1478.228787846793
aa(lp136
VAlucard
p137
aF1478.4524104559146
aa(lp138
VE-102r
p139
aF1478.5044872953495
aa(lp140
VBabidi
p141
aF1478.9757136908647
aa(lp142
VChipp
p143
aF1479.620478223049
aa(lp144
VBaiken
p145
aF1481.785622284744
aa(lp146
VShangtsung
p147
aF1482.4225022319122
aa(lp148
VGarlic junior
p149
aF1482.679893082839
aa(lp150
VThierry henry
p151
aF1482.8787084675685
aa(lp152
VMunch
p153
aF1483.3595691304124
aa(lp154
VThunder megazord
p155
aF1483.5097238673416
aa(lp156
VSuperboy
p157
aF1483.5121102901212
aa(lp158
VWind
p159
aF1483.8141381217008
aa(lp160
VChloe
p161
aF1483.8389935944215
aa(lp162
VTenshinham
p163
aF1484.000091181075
aa(lp164
VKaguya kimimaro
p165
aF1484.2418586586377
aa(lp166
VAsuta-san
p167
aF1484.6767648377272
aa(lp168
VMr.satan
p169
aF1485.3511007164493
aa(lp170
VGorunks ssj4
p171
aF1485.8043700839155
aa(lp172
VMotokoaoyama
p173
aF1486.156260762413
aa(lp174
VGambit
p175
aF1486.8072656537558
aa(lp176
VKumao
p177
aF1488.1913652815592
aa(lp178
VJissou seki
p179
aF1488.5093980430534
aa(lp180
VKnuckles
p181
aF1489.1466587643695
aa(lp182
VGoku normal hd
p183
aF1489.6849794030802
aa(lp184
VGoku ssj gt
p185
aF1489.84965384284
aa(lp186
VNorimaro
p187
aF1490.2500840611344
aa(lp188
VDrill asamin
p189
aF1491.1839531878827
aa(lp190
VI-no
p191
aF1491.3980025992867
aa(lp192
VB. magic girl
p193
aF1491.6585946862547
aa(lp194
VTakuma.s_xiii
p195
aF1492.1162628271722
aa(lp196
VHisui&kohaku;
p197
aF1492.3473967630105
aa(lp198
VXp(pro)
p199
aF1492.6787987115588
aa(lp200
VKid gohan
p201
aF1492.7194900392344
aa(lp202
VGarfield
p203
aF1492.874846183796
aa(lp204
VMio
p205
aF1493.1808107672016
aa(lp206
VBaldhead
p207
aF1493.2294606282069
aa(lp208
VShadir
p209
aF1493.40633558844
aa(lp210
VNoroko
p211
aF1493.7262323998139
aa(lp212
VSajin
p213
aF1493.9214250667396
aa(lp214
VPolnareff
p215
aF1493.962113382149
aa(lp216
VSimba
p217
aF1494.9383110296499
aa(lp218
VGuerrero divino del dragn
p219
aF1495.4147028629804
aa(lp220
VSango
p221
aF1495.5597902851778
aa(lp222
VCartman
p223
aF1495.6192118941517
aa(lp224
V2k
p225
aF1495.852721136892
aa(lp226
VZettaiaku
p227
aF1496.2290181759272
aa(lp228
VBoo
p229
aF1497.0806110809567
aa(lp230
VEnya
p231
aF1497.5900910386579
aa(lp232
VBlue ranger
p233
aF1497.9723763232769
aa(lp234
VAoi-ko
p235
aF1498.4356657776093
aa(lp236
VPiccolo daimaoh
p237
aF1499.2691404302104
aa(lp238
VKairi
p239
aF1499.8313549753962
aa(lp240
VJill
p241
aF1499.8977830177987
aa(lp242
VKhan
p243
aF1499.9153554459238
aa(lp244
VKakashi
p245
aF1499.9173555434547
aa(lp246
VAnother iori
p247
aF1500.433359801385
aa(lp248
VSponge bob
p249
aF1500.4747820273612
aa(lp250
VMega vegeta
p251
aF1501.0068521727173
aa(lp252
VVegeta sb1
p253
aF1501.501628732244
aa(lp254
VChibi ubuu
p255
aF1501.8825912449531
aa(lp256
VKabal
p257
aF1502.1718042915556
aa(lp258
VSimonkin2006
p259
aF1502.2087910260493
aa(lp260
VBishamon
p261
aF1502.4987963453623
aa(lp262
VJohnny
p263
aF1502.6017993283597
aa(lp264
VMariah
p265
aF1502.857629951739
aa(lp266
VRinfa
p267
aF1502.9254267193285
aa(lp268
VNobuhiko
p269
aF1503.3825182118442
aa(lp270
VMestre kame
p271
aF1503.3878714657217
aa(lp272
VMegazord
p273
aF1503.805966492667
aa(lp274
VUryuu
p275
aF1503.9289405271345
aa(lp276
VAlice
p277
aF1504.1684020597193
aa(lp278
VHarpagos
p279
aF1504.2455084148705
aa(lp280
VSnoopy
p281
aF1504.7525128659547
aa(lp282
VWolvenom
p283
aF1505.1175831534183
aa(lp284
VKanon
p285
aF1505.3050031254445
aa(lp286
VBebi vegeta
p287
aF1505.587377579269
aa(lp288
VHeika
p289
aF1506.4450542474863
aa(lp290
VSuper vegeta
p291
aF1506.4799410719074
aa(lp292
VBrimstone
p293
aF1506.5566540158304
aa(lp294
VAbui
p295
aF1506.8663304087186
aa(lp296
VV.akiha
p297
aF1506.9407451096718
aa(lp298
VKszsk-shuko
p299
aF1506.9835767887798
aa(lp300
VGrappler_hiyama
p301
aF1507.5083332305994
aa(lp302
VShuh
p303
aF1507.937053385986
aa(lp304
VWinnie the pooh
p305
aF1508.2292335673762
aa(lp306
VMaxima
p307
aF1508.2769021174904
aa(lp308
VHyper buu
p309
aF1508.3075311786713
aa(lp310
VRusty
p311
aF1508.631532449189
aa(lp312
VHol horse
p313
aF1509.3813895417384
aa(lp314
VFreeza 100%
p315
aF1509.5088072936085
aa(lp316
VAthena
p317
aF1509.685246293435
aa(lp318
VRose
p319
aF1509.7446723351761
aa(lp320
V95 no danna
p321
aF1509.7810856667875
aa(lp322
VMisery
p323
aF1510.3096687827983
aa(lp324
VThe joker
p325
aF1510.3628501615387
aa(lp326
VInvisible woman
p327
aF1510.5144837429689
aa(lp328
VJagi
p329
aF1510.5734725365394
aa(lp330
V98
p331
aF1511.177264287845
aa(lp332
VKimberly
p333
aF1511.6029839414148
aa(lp334
VShin ryu
p335
aF1511.9865145956137
aa(lp336
VHads
p337
aF1511.9974016791496
aa(lp338
VRobo-kyii
p339
aF1512.0671366534868
aa(lp340
VAxl
p341
aF1512.228678093514
aa(lp342
VSakura shingouji
p343
aF1512.2401257412114
aa(lp344
VGoku kaiouken x4
p345
aF1512.3174400888815
aa(lp346
VSakon
p347
aF1512.3550071889463
aa(lp348
VWhite ranger
p349
aF1512.7167558565575
aa(lp350
VHol 'butt king' funtimes
p351
aF1512.7998521328207
aa(lp352
VRubber soul
p353
aF1513.0376040169895
aa(lp354
VCaptain ginyu
p355
aF1513.2160420370092
aa(lp356
VRayman
p357
aF1513.3415400235917
aa(lp358
VG-bit
p359
aF1513.445378842251
aa(lp360
VGoku kid
p361
aF1513.5012184892094
aa(lp362
VTabasa
p363
aF1513.5880884270032
aa(lp364
VToki
p365
aF1513.629279126392
aa(lp366
VTetuwo
p367
aF1514.2398918638175
aa(lp368
VHokage
p369
aF1514.274147782254
aa(lp370
VTayuya
p371
aF1514.4434466592636
aa(lp372
VBatgirl
p373
aF1514.9266148593672
aa(lp374
VBlack polnareff
p375
aF1514.9906107547758
aa(lp376
VRock howard
p377
aF1515.1561407841305
aa(lp378
VPachet
p379
aF1515.4507749957793
aa(lp380
VGold warmachine
p381
aF1515.497496478685
aa(lp382
VDevo
p383
aF1516.0460414173706
aa(lp384
VRhino
p385
aF1516.2611744168735
aa(lp386
VTakakazu abe
p387
aF1516.2901374695061
aa(lp388
V98se
p389
aF1516.5050258277206
aa(lp390
VRecoom
p391
aF1516.6730884916408
aa(lp392
VAndroid 18
p393
aF1516.6991553170878
aa(lp394
VBack beard
p395
aF1516.8974092954038
aa(lp396
VKoola
p397
aF1517.0196591844522
aa(lp398
VVenom
p399
aF1517.4305746770904
aa(lp400
VKid gohan ssj1
p401
aF1517.4580732084746
aa(lp402
VPizza
p403
aF1517.6226851163858
aa(lp404
VRorschach
p405
aF1517.8174819971566
aa(lp406
VNaruto
p407
aF1517.8734527635622
aa(lp408
VDark ryu
p409
aF1517.9342005371273
aa(lp410
VMedoi-san
p411
aF1518.0509461555246
aa(lp412
VAmiba
p413
aF1518.449085759376
aa(lp414
VTakobue
p415
aF1518.9910415771053
aa(lp416
VPoison
p417
aF1519.2984066111505
aa(lp418
VPrincess peach
p419
aF1519.730001851459
aa(lp420
VTen-sing
p421
aF1519.8589314248193
aa(lp422
VInuzuka kiba
p423
aF1520.178088781173
aa(lp424
VBalrog
p425
aF1520.1901245914078
aa(lp426
VK' xiii
p427
aF1520.3009909855466
aa(lp428
VNeyufeulle
p429
aF1520.3424192570433
aa(lp430
VDragon guy
p431
aF1520.5240198268893
aa(lp432
VExocist(dnf)
p433
aF1520.7704234696837
aa(lp434
VBrian griffin
p435
aF1520.7774534190735
aa(lp436
VFubuki sakuragasaki
p437
aF1520.9537093775264
aa(lp438
VShikamaru
p439
aF1520.9691646775998
aa(lp440
VMyon
p441
aF1521.0290503465092
aa(lp442
VSyo hayate
p443
aF1521.1673499379824
aa(lp444
VGrover
p445
aF1521.6912495388112
aa(lp446
VGoku ssj5
p447
aF1521.6934496151312
aa(lp448
VGoten
p449
aF1521.8755553741744
aa(lp450
VDabura
p451
aF1522.189265890132
aa(lp452
VAngel ryu
p453
aF1522.2787830495367
aa(lp454
VOre
p455
aF1522.6788104512332
aa(lp456
VYuki in midday
p457
aF1522.7027128475138
aa(lp458
VMorgiana
p459
aF1522.7326441576902
aa(lp460
VRobert
p461
aF1523.2262906275685
aa(lp462
VComplete cell
p463
aF1523.5584690425826
aa(lp464
VA.b.a
p465
aF1523.6410519171736
aa(lp466
VLink
p467
aF1524.1510559912883
aa(lp468
VPlastic man
p469
aF1524.5002698804726
aa(lp470
VKarin kanzuki
p471
aF1524.8303671042565
aa(lp472
VLi'l gohan
p473
aF1524.94392398807
aa(lp474
VGobotenn
p475
aF1525.321491558115
aa(lp476
VAlessi
p477
aF1525.4935571926076
aa(lp478
VDark psylocke
p479
aF1525.5392697985924
aa(lp480
VZero svc
p481
aF1526.3647034764772
aa(lp482
VSuper boo
p483
aF1526.4109686278487
aa(lp484
VNightwing
p485
aF1526.5000242644653
aa(lp486
VTibigintou
p487
aF1526.6754744751934
aa(lp488
VRobo-ky
p489
aF1526.7477801794162
aa(lp490
VGoku db
p491
aF1526.8707178755208
aa(lp492
VChill penguin
p493
aF1527.0502837078652
aa(lp494
VIno
p495
aF1527.1557333153196
aa(lp496
VFloren
p497
aF1527.3765188971456
aa(lp498
VLucca
p499
aF1527.6101183264948
aa(lp500
VS.p.o. ryu
p501
aF1527.7243320938517
aa(lp502
VAnna
p503
aF1527.7763928595691
aa(lp504
VGuy gardner
p505
aF1528.1964243730365
aa(lp506
VAkane satomura
p507
aF1528.6137176214593
aa(lp508
VKuroko
p509
aF1529.0023541746684
aa(lp510
VChange dragon
p511
aF1529.0649922400294
aa(lp512
VNenaikodareda
p513
aF1529.1788254850903
aa(lp514
VReimi jyahana
p515
aF1529.1837010406934
aa(lp516
VPsylocke
p517
aF1529.4764294192435
aa(lp518
VYagumo
p519
aF1529.5158429649803
aa(lp520
VKen & gang
p521
aF1529.5788972558603
aa(lp522
VPetshop
p523
aF1529.5920245646707
aa(lp524
VLion-o
p525
aF1529.6282261719266
aa(lp526
VBojack
p527
aF1529.8365056045109
aa(lp528
VYashaoh
p529
aF1530.0037491661428
aa(lp530
VGreat saiyaman
p531
aF1530.0060618753305
aa(lp532
VDodoria
p533
aF1530.2264251567342
aa(lp534
VNanaya
p535
aF1530.3229100009637
aa(lp536
VDarkon
p537
aF1530.6442294999288
aa(lp538
VLeela
p539
aF1530.6898292743651
aa(lp540
VBeavis
p541
aF1530.9760482120635
aa(lp542
VPolaris
p543
aF1531.3428507142578
aa(lp544
VSimonkin2005
p545
aF1531.5393818281188
aa(lp546
VHinata
p547
aF1531.8533973604249
aa(lp548
VJoseph the b.b.
p549
aF1531.8885127721974
aa(lp550
VSanzou_kongoumaru
p551
aF1531.9223330327754
aa(lp552
VTapion
p553
aF1531.9927663093292
aa(lp554
VIkisan
p555
aF1532.183904436502
aa(lp556
VRanma saotome
p557
aF1532.4166000610942
aa(lp558
VDark ash
p559
aF1532.532600518241
aa(lp560
VRouga_zanma
p561
aF1532.5634610331304
aa(lp562
VSatori
p563
aF1533.287591976944
aa(lp564
VMickey
p565
aF1533.3063015632372
aa(lp566
VZarbom
p567
aF1533.5231598178664
aa(lp568
VGohan fight money
p569
aF1533.6053550851097
aa(lp570
VTensinhan
p571
aF1533.6984789356934
aa(lp572
VMeirin
p573
aF1534.000917816777
aa(lp574
VKeine
p575
aF1534.067848319246
aa(lp576
VDosu
p577
aF1534.181129191529
aa(lp578
VSuperman
p579
aF1534.2763475052168
aa(lp580
VGoku pce
p581
aF1534.3801822933513
aa(lp582
VTerry
p583
aF1534.5991927792375
aa(lp584
VDevil_daigo
p585
aF1535.0078871835367
aa(lp586
VW len ar
p587
aF1535.6704218698437
aa(lp588
VMystia
p589
aF1535.725242517143
aa(lp590
VMr buu
p591
aF1535.7726205131503
aa(lp592
VPhoenix
p593
aF1535.9642358999822
aa(lp594
VAgito_of_the_dark
p595
aF1536.0242376695094
aa(lp596
VNemesis
p597
aF1536.3143767347074
aa(lp598
VBlanka
p599
aF1536.582617862853
aa(lp600
VRen_idagawa
p601
aF1536.7131012119821
aa(lp602
VPengintou
p603
aF1536.889621549149
aa(lp604
VGotenks ssj3
p605
aF1537.0545138717666
aa(lp606
VGod ken
p607
aF1537.279654123437
aa(lp608
VFireman
p609
aF1537.6650096768828
aa(lp610
VSaya
p611
aF1537.686803113606
aa(lp612
VYuri sakazaki
p613
aF1537.8072493679404
aa(lp614
VHuman torch
p615
aF1538.3301707804196
aa(lp616
VMayko
p617
aF1538.8713427647383
aa(lp618
VPunisher
p619
aF1538.9495227388206
aa(lp620
VMora
p621
aF1538.9827390208372
aa(lp622
VHe-man
p623
aF1539.488746049093
aa(lp624
VMr burns
p625
aF1539.6558511841336
aa(lp626
VTimmy turner
p627
aF1539.7173479955732
aa(lp628
VHory marlu
p629
aF1539.7759389008663
aa(lp630
VItachi
p631
aF1539.920173469916
aa(lp632
VEiji kisaragi
p633
aF1540.6777032513862
aa(lp634
VArchetype:earth
p635
aF1540.8111408802058
aa(lp636
VKy
p637
aF1541.0636945709487
aa(lp638
VSuper sonic
p639
aF1541.2363034318762
aa(lp640
VHigyo-pam
p641
aF1541.4042730186297
aa(lp642
VHulk 2099
p643
aF1541.5255839442473
aa(lp644
VOjisama-chaos
p645
aF1542.0707853518109
aa(lp646
VHanny
p647
aF1542.6769578881983
aa(lp648
VWildcat
p649
aF1542.7148147243026
aa(lp650
VUltimate-gohan
p651
aF1542.7226812751853
aa(lp652
VMai
p653
aF1542.784356153741
aa(lp654
VMega goku
p655
aF1543.2940742090584
aa(lp656
VMajin boo
p657
aF1543.5475038551037
aa(lp658
VBlack.t
p659
aF1543.6054454951764
aa(lp660
VHirasawa_yui
p661
aF1543.6069494685055
aa(lp662
VWarmachine
p663
aF1543.6377918923372
aa(lp664
VT.hawk
p665
aF1543.6957425373698
aa(lp666
VPan
p667
aF1543.8349160141936
aa(lp668
VKanmi chan
p669
aF1543.8618954402575
aa(lp670
VKaori&shiori;
p671
aF1544.0119948703953
aa(lp672
VSsj goku
p673
aF1544.0815553553396
aa(lp674
VLunasa prismriver
p675
aF1544.5688782408051
aa(lp676
VJotaro kujo
p677
aF1544.7467463303083
aa(lp678
VLord shaolin lee
p679
aF1545.6493899427649
aa(lp680
VNanase(+d)&mayu;
p681
aF1545.8293153822033
aa(lp682
VHideo&kyoko;
p683
aF1545.8324836805343
aa(lp684
VAmingo
p685
aF1545.9944329567234
aa(lp686
VElectro
p687
aF1546.1436543264333
aa(lp688
VUzumaki naruto
p689
aF1546.1765620065337
aa(lp690
VWar machine
p691
aF1546.5618934943159
aa(lp692
VGoku ssj 3
p693
aF1547.0812019501427
aa(lp694
VJustice
p695
aF1547.308733984831
aa(lp696
VRuili
p697
aF1547.3275997535336
aa(lp698
VSylphie
p699
aF1547.3536623687073
aa(lp700
VAndromeda
p701
aF1547.523181912282
aa(lp702
VShun
p703
aF1547.8265129249555
aa(lp704
VJiroubou
p705
aF1547.8688957020167
aa(lp706
VLipsyncher
p707
aF1547.879322877785
aa(lp708
VKano
p709
aF1547.8938224901735
aa(lp710
VKino
p711
aF1547.9286093965618
aa(lp712
VRyu hayabusa
p713
aF1547.9705937849499
aa(lp714
VYuri di aaaaaaa
p715
aF1548.0476789270976
aa(lp716
VHaku
p717
aF1548.143796057674
aa(lp718
VIchijo akari
p719
aF1548.449231361836
aa(lp720
VKenshiro
p721
aF1548.5290270296184
aa(lp722
VFox mccloud
p723
aF1548.6061887948956
aa(lp724
VWhite len
p725
aF1548.6317487534657
aa(lp726
VUkitake
p727
aF1548.753334379453
aa(lp728
VZangya
p729
aF1549.069933862843
aa(lp730
VSinestro
p731
aF1549.1410900615915
aa(lp732
VTron bonne
p733
aF1549.1543047358882
aa(lp734
VMamizou
p735
aF1549.1904320917101
aa(lp736
VWriggle
p737
aF1549.2580132652267
aa(lp738
VSamurai jack
p739
aF1549.6162372345484
aa(lp740
VEddie
p741
aF1549.6430026706605
aa(lp742
VGaara
p743
aF1549.67078294599
aa(lp744
VPeter
p745
aF1549.8272021810817
aa(lp746
VBra
p747
aF1549.8463549462458
aa(lp748
VKikuri
p749
aF1549.8520578443681
aa(lp750
VPsychopath kyo
p751
aF1549.8793995969097
aa(lp752
VRaditz
p753
aF1550.080731062387
aa(lp754
VEmma frost
p755
aF1550.2516763418087
aa(lp756
VChris sakurigan
p757
aF1550.3137474615878
aa(lp758
VChouji
p759
aF1550.3223497845167
aa(lp760
VRuby heart
p761
aF1550.4702757792581
aa(lp762
VMarco
p763
aF1550.6869151701721
aa(lp764
VUesugi kensin
p765
aF1550.9223499672573
aa(lp766
VSkull-man
p767
aF1551.1534570665176
aa(lp768
VSpider girl
p769
aF1551.2318059174631
aa(lp770
VAstroboy
p771
aF1551.2367857941204
aa(lp772
VJuda
p773
aF1551.5413608545614
aa(lp774
VVegeta normal 2
p775
aF1551.6012468089543
aa(lp776
VAnji
p777
aF1551.6307993697067
aa(lp778
VAsahina mikuru
p779
aF1551.8666014693015
aa(lp780
VSlayer
p781
aF1552.3992159438483
aa(lp782
VHobgoblin
p783
aF1552.4903598599385
aa(lp784
VZatanna
p785
aF1552.6537044285565
aa(lp786
VBurai_yamamoto
p787
aF1552.776416084794
aa(lp788
VSkeletor
p789
aF1552.777088610191
aa(lp790
VSsj gohan
p791
aF1553.3011208813832
aa(lp792
VBilly_xiii
p793
aF1553.3457543564505
aa(lp794
VNightmare yamazaki
p795
aF1553.5276235605093
aa(lp796
VBig chicken
p797
aF1553.592682025253
aa(lp798
VKang
p799
aF1553.6553498265937
aa(lp800
VChibi goku
p801
aF1554.1107078475588
aa(lp802
VRed tornado
p803
aF1554.4701773874567
aa(lp804
VQueen beryl
p805
aF1554.5474622415484
aa(lp806
VNitori
p807
aF1554.5918423168791
aa(lp808
VBanshee
p809
aF1554.685367666846
aa(lp810
VPicapiedra
p811
aF1554.7077049523684
aa(lp812
V009
p813
aF1554.7530110602943
aa(lp814
VPredator
p815
aF1554.9802760043392
aa(lp816
VShin scrub ken
p817
aF1555.075800319647
aa(lp818
VGohan ssj2
p819
aF1555.1635559267697
aa(lp820
VJin
p821
aF1555.2096809645939
aa(lp822
VCell genesis
p823
aF1555.23517590504
aa(lp824
VThe nightmare
p825
aF1555.3345875161708
aa(lp826
VNue houjuu
p827
aF1555.4311984376493
aa(lp828
VYoh
p829
aF1555.6595193615267
aa(lp830
VHuninki
p831
aF1555.6635670996309
aa(lp832
VShen
p833
aF1555.827575543151
aa(lp834
VMay
p835
aF1555.9203869701635
aa(lp836
VKyo kusanagi
p837
aF1555.9491512212921
aa(lp838
VAtusi
p839
aF1555.9557072878674
aa(lp840
VGoku sayajin
p841
aF1556.1290413195936
aa(lp842
VGoku gt ssj3
p843
aF1556.3470633241059
aa(lp844
VFoxy
p845
aF1556.393683937194
aa(lp846
VHeita zinnai
p847
aF1556.554665184371
aa(lp848
VGogeta ssj4
p849
aF1556.6700140449693
aa(lp850
VSilver horns
p851
aF1556.6933713991543
aa(lp852
VAndroid 17
p853
aF1556.8265453175184
aa(lp854
VReisen
p855
aF1556.911361979548
aa(lp856
VMega and.18
p857
aF1557.606919206446
aa(lp858
VAquaman
p859
aF1557.6677083382963
aa(lp860
VBootleg ryu
p861
aF1557.9787230492948
aa(lp862
VJuri
p863
aF1558.0837556533481
aa(lp864
VAraki runa
p865
aF1558.222976565019
aa(lp866
VMoorhunn
p867
aF1559.3371687195956
aa(lp868
VJudgement
p869
aF1559.5564610194376
aa(lp870
VKosmos
p871
aF1559.647533870822
aa(lp872
VSailor moon
p873
aF1559.7620154981073
aa(lp874
VDaigo
p875
aF1559.9801644174895
aa(lp876
VMr. increible
p877
aF1560.0970306062643
aa(lp878
VSailor neptune
p879
aF1560.3020513774309
aa(lp880
VMetallo
p881
aF1560.3517595357314
aa(lp882
VMokou
p883
aF1560.4689493412195
aa(lp884
VSasuke
p885
aF1560.6454082706875
aa(lp886
V20 (dr. gero)
p887
aF1560.9914378944982
aa(lp888
VViuda negra
p889
aF1561.2140231855315
aa(lp890
VMegaman.exe
p891
aF1561.405274371149
aa(lp892
VPiccolo sb1
p893
aF1561.6392719188163
aa(lp894
VIbuki
p895
aF1561.8509069615636
aa(lp896
VDaffy duck
p897
aF1561.9211711394767
aa(lp898
VSongoku-snk/sf
p899
aF1561.9703144926527
aa(lp900
VTewi_inaba
p901
aF1561.9861483954203
aa(lp902
VDr gero-and20
p903
aF1562.1868951023714
aa(lp904
VTemari
p905
aF1562.2287480988557
aa(lp906
VKagami kyosuke
p907
aF1562.2904861983636
aa(lp908
VTrevor spacer
p909
aF1562.3062597593741
aa(lp910
VVegetto ex
p911
aF1562.3979527710046
aa(lp912
VVegeta ssj4
p913
aF1562.5451227226936
aa(lp914
VKaio shin
p915
aF1562.978453644308
aa(lp916
VHenri
p917
aF1563.0450040800897
aa(lp918
VGreat gohan
p919
aF1563.0468222325562
aa(lp920
VKarnov
p921
aF1563.6244770042306
aa(lp922
VTyouunn-shiryu
p923
aF1563.6510128118753
aa(lp924
VYamcha
p925
aF1563.9419012739356
aa(lp926
VMidler
p927
aF1564.0948613465553
aa(lp928
VSinki
p929
aF1564.2114315507295
aa(lp930
VAntman
p931
aF1564.2550715640634
aa(lp932
VMr. bison
p933
aF1564.4282672268014
aa(lp934
VTung fu rue
p935
aF1564.5951898264077
aa(lp936
VShe-hulk
p937
aF1564.6717503390607
aa(lp938
VOjisama
p939
aF1564.9919284911018
aa(lp940
VHina
p941
aF1565.4654289843004
aa(lp942
VMonky d luffy
p943
aF1565.854846954242
aa(lp944
VNayuki minase
p945
aF1565.9396661408327
aa(lp946
VZabuza
p947
aF1565.9926933720963
aa(lp948
VKyouko
p949
aF1566.2403365820721
aa(lp950
VOmega red
p951
aF1566.2568953962866
aa(lp952
VKunagi_tenrou
p953
aF1566.2900976915103
aa(lp954
VElena
p955
aF1566.2905156094107
aa(lp956
VBlockhead
p957
aF1566.4569547802932
aa(lp958
VLelouch
p959
aF1566.6488466820144
aa(lp960
VShadow vegeta
p961
aF1566.9408197428745
aa(lp962
VHavok
p963
aF1567.1980286281544
aa(lp964
VSpenoza
p965
aF1567.349460105697
aa(lp966
VYuki
p967
aF1567.5488366931963
aa(lp968
VLetty whiterock
p969
aF1567.5738869179227
aa(lp970
VGuile
p971
aF1567.6114601168065
aa(lp972
VBlaziken
p973
aF1567.7221846500372
aa(lp974
VMurasa
p975
aF1567.813331258315
aa(lp976
VGundam heavy arms
p977
aF1568.0515501158457
aa(lp978
VManbou
p979
aF1568.0684356539296
aa(lp980
VHeihachi mishima
p981
aF1568.526718828118
aa(lp982
VP-gohan ssj2
p983
aF1568.5740041914232
aa(lp984
VAvdol ver 2001/01/30 by camrat
p985
aF1568.603948763866
aa(lp986
VDudley
p987
aF1568.6045939882522
aa(lp988
VElecman
p989
aF1568.6219098633799
aa(lp990
VVegeta ultra ssj
p991
aF1568.7273089435537
aa(lp992
VKyo 71113
p993
aF1568.9664853373192
aa(lp994
VGreen ranger
p995
aF1569.0043749513427
aa(lp996
VElastigirl
p997
aF1569.052332747741
aa(lp998
VKogasa
p999
aF1569.0882045510393
aa(lp1000
VKaren na hito
p1001
aF1569.2711522204759
aa(lp1002
VLord raptor
p1003
aF1569.3680780643565
aa(lp1004
VSsjgoku
p1005
aF1569.4426804463856
aa(lp1006
VPrince vegeta
p1007
aF1569.5386266838705
aa(lp1008
VInspector gadget
p1009
aF1569.8232903125836
aa(lp1010
VAeris ;or if you prefer, use aerith
p1011
aF1570.1468143561726
aa(lp1012
VCrashman
p1013
aF1570.673831559933
aa(lp1014
VKenshirou
p1015
aF1570.9885575396486
aa(lp1016
VMega lilde
p1017
aF1571.480028438212
aa(lp1018
VKyon
p1019
aF1571.9125333150869
aa(lp1020
VHaruno sakura
p1021
aF1571.9665426010436
aa(lp1022
VRobert garcia
p1023
aF1572.1539537047545
aa(lp1024
VToramaru syou
p1025
aF1572.5777789405083
aa(lp1026
VStarfire
p1027
aF1572.6258522003227
aa(lp1028
VLeonardo
p1029
aF1572.754013888572
aa(lp1030
VTrunks ssj4
p1031
aF1572.7836716179754
aa(lp1032
VChichi
p1033
aF1572.8144496427597
aa(lp1034
VTara-gyouza
p1035
aF1572.9910062235062
aa(lp1036
VChibi trunks
p1037
aF1573.0472230977473
aa(lp1038
VAlice margatroid
p1039
aF1573.0748998342615
aa(lp1040
VNate summers
p1041
aF1573.1980935875008
aa(lp1042
VElongated man
p1043
aF1573.463739272608
aa(lp1044
VIori yagami
p1045
aF1573.4886093328084
aa(lp1046
VYatogi tetsu
p1047
aF1573.5042252700184
aa(lp1048
VFio
p1049
aF1573.5126237228187
aa(lp1050
VLupin the 3rd
p1051
aF1573.5357449855649
aa(lp1052
VSanae
p1053
aF1573.5482309726647
aa(lp1054
VSion_tatari
p1055
aF1573.8739286088876
aa(lp1056
VSuper #13
p1057
aF1574.156622750465
aa(lp1058
VYuugi
p1059
aF1574.1597489576661
aa(lp1060
VDodgers
p1061
aF1574.4276980829247
aa(lp1062
VSuwako moriya
p1063
aF1574.7026316573074
aa(lp1064
VHwa jai
p1065
aF1574.7477485579166
aa(lp1066
VShadowcat
p1067
aF1574.8266857210472
aa(lp1068
VNoriaki kakyoin
p1069
aF1574.8976457365868
aa(lp1070
VFrog
p1071
aF1574.9682734380128
aa(lp1072
VBenimaru_xiii
p1073
aF1575.5381245957985
aa(lp1074
VTeam nicktoon
p1075
aF1575.639926795758
aa(lp1076
VGray fly
p1077
aF1575.6972259338206
aa(lp1078
VGohan school
p1079
aF1576.5304760270062
aa(lp1080
VSephiroth
p1081
aF1576.6557923069556
aa(lp1082
VTrunks sb1
p1083
aF1576.7392018071266
aa(lp1084
VTails
p1085
aF1577.0539957701849
aa(lp1086
VNeji
p1087
aF1577.218229579827
aa(lp1088
VD-rugal
p1089
aF1577.6857253523683
aa(lp1090
VKing
p1091
aF1577.6966830022313
aa(lp1092
VPrincess Peach
p1093
aF1577.8167441332198
aa(lp1094
VShino
p1095
aF1577.8861491182572
aa(lp1096
VGurocure
p1097
aF1577.9319081604988
aa(lp1098
VMr Satan
p1099
aF1578.0220021916712
aa(lp1100
VSaibaman
p1101
aF1578.2569987633065
aa(lp1102
VSon trunks
p1103
aF1578.335118542279
aa(lp1104
VFei-long
p1105
aF1578.7549310753063
aa(lp1106
VMomizi
p1107
aF1578.9238134324733
aa(lp1108
VNormal chibi trunks
p1109
aF1578.9758402007453
aa(lp1110
VLesty
p1111
aF1579.3449051911239
aa(lp1112
VKaede
p1113
aF1579.4860281912656
aa(lp1114
VMako
p1115
aF1579.747723899024
aa(lp1116
VScarlet witch
p1117
aF1580.3162746884734
aa(lp1118
VTiger
p1119
aF1580.4437937744979
aa(lp1120
VZero
p1121
aF1580.4986773145827
aa(lp1122
VSupergirl
p1123
aF1580.6013596343157
aa(lp1124
VGreen goblin
p1125
aF1580.7491950124684
aa(lp1126
VMekazawa
p1127
aF1580.7832937854403
aa(lp1128
VAsh
p1129
aF1580.8213086816816
aa(lp1130
VSpider-man 2099
p1131
aF1581.0695785238747
aa(lp1132
VBomber man
p1133
aF1581.3243693636448
aa(lp1134
VLi sheng long
p1135
aF1581.4336127293702
aa(lp1136
VLee
p1137
aF1581.6452717421619
aa(lp1138
VBlack ranger
p1139
aF1581.6569374423882
aa(lp1140
VChris
p1141
aF1581.7256181103605
aa(lp1142
VLizardman
p1143
aF1581.7768587982189
aa(lp1144
VBulleta
p1145
aF1582.1740780043826
aa(lp1146
VSaba
p1147
aF1582.954868572892
aa(lp1148
VArthur
p1149
aF1583.019999091218
aa(lp1150
VDee jay
p1151
aF1583.1556329338184
aa(lp1152
VPsycho weapon
p1153
aF1583.236338143741
aa(lp1154
VReimu
p1155
aF1583.3422555087745
aa(lp1156
VSilver samurai
p1157
aF1583.4746057798457
aa(lp1158
VPotemkin
p1159
aF1583.5072691699338
aa(lp1160
VChise
p1161
aF1583.6579658598946
aa(lp1162
VGreat sayaman
p1163
aF1583.8686632305366
aa(lp1164
VSpiderman 2099
p1165
aF1584.0045369316351
aa(lp1166
VHagen
p1167
aF1584.0121573067124
aa(lp1168
VChrisg sakurigan
p1169
aF1584.1368482571152
aa(lp1170
VVegettossj3
p1171
aF1584.2371514094743
aa(lp1172
VFreeza 1st form
p1173
aF1584.5295915346555
aa(lp1174
VBeast
p1175
aF1584.560591181474
aa(lp1176
VSpelunker
p1177
aF1584.5765004560446
aa(lp1178
VGohan gt
p1179
aF1584.581772898278
aa(lp1180
VTokiko
p1181
aF1584.6102851193634
aa(lp1182
VNormal sword trunks
p1183
aF1584.7025389619591
aa(lp1184
VDocOck
p1185
aF1584.7467893092917
aa(lp1186
VTakakazu Abe
p1187
aF1584.7483049961086
aa(lp1188
VGhetto Warmachine
p1189
aF1584.7496892928036
aa(lp1190
VSuper Buu
p1191
aF1584.7537051982956
aa(lp1192
VSpopovich
p1193
aF1584.7556274349154
aa(lp1194
VMike Tyson
p1195
aF1584.7664021499313
aa(lp1196
VNick fury
p1197
aF1584.7936910508483
aa(lp1198
VTest a.i.
p1199
aF1584.8064784640237
aa(lp1200
VBrian Griffin
p1201
aF1584.911992986214
aa(lp1202
VMaster chief
p1203
aF1584.9473800876308
aa(lp1204
VBardock
p1205
aF1584.950406791646
aa(lp1206
VEiji Kisaragi
p1207
aF1585.0813585727308
aa(lp1208
VAirman
p1209
aF1585.2072305341226
aa(lp1210
VTurles
p1211
aF1585.2503686614048
aa(lp1212
VPitt
p1213
aF1585.253648013946
aa(lp1214
VKid Gohan
p1215
aF1585.2936763096725
aa(lp1216
VMetal Man
p1217
aF1585.4425149153049
aa(lp1218
VGuldo
p1219
aF1586.0284573835038
aa(lp1220
VBebi vegeta form 1
p1221
aF1586.0369011113385
aa(lp1222
VBattlemage_[dnf]
p1223
aF1586.6699386183946
aa(lp1224
VPopeye
p1225
aF1586.6917340414466
aa(lp1226
VPicurin
p1227
aF1586.7599903938135
aa(lp1228
VRaoh
p1229
aF1586.8697995348637
aa(lp1230
VZeroko
p1231
aF1587.0674621207156
aa(lp1232
VPegasus di fuoco
p1233
aF1587.1083233762556
aa(lp1234
VBizarro
p1235
aF1588.1255187851953
aa(lp1236
VChiaotzu
p1237
aF1588.2344975317824
aa(lp1238
VKingpin
p1239
aF1588.6575419209107
aa(lp1240
VLord ravenous
p1241
aF1588.8023284425474
aa(lp1242
VKiller Whale
p1243
aF1589.150792021785
aa(lp1244
VVidel
p1245
aF1589.888142035186
aa(lp1246
VDeath maul
p1247
aF1589.8914627045292
aa(lp1248
VFlash
p1249
aF1590.3497872980236
aa(lp1250
VCharizard
p1251
aF1590.3624443635535
aa(lp1252
VGato
p1253
aF1590.4827708511823
aa(lp1254
VYuriesbyfe
p1255
aF1590.7210646769868
aa(lp1256
VProtoman
p1257
aF1590.8218295957852
aa(lp1258
VMakoto
p1259
aF1591.0199152518544
aa(lp1260
VVicViper
p1261
aF1591.3025551989574
aa(lp1262
VAdon
p1263
aF1591.4699624810346
aa(lp1264
VSora
p1265
aF1591.4808372629532
aa(lp1266
VBlack Polnareff
p1267
aF1591.8117804123644
aa(lp1268
VYakui San
p1269
aF1591.8250675261702
aa(lp1270
VOjisama-Chaos
p1271
aF1591.8250675261702
aa(lp1272
VUzumaki Naruto
p1273
aF1591.837289183114
aa(lp1274
VGundam Heavy Arms
p1275
aF1591.8428175711974
aa(lp1276
VZangief
p1277
aF1591.9504062200856
aa(lp1278
VGreen lantern js
p1279
aF1591.9699114987275
aa(lp1280
VRock Howard
p1281
aF1592.0444915518758
aa(lp1282
VVoigil
p1283
aF1592.1846218042353
aa(lp1284
VMech Gouki
p1285
aF1592.193415553329
aa(lp1286
VYuri Di AAAAAA
p1287
aF1592.2064913248219
aa(lp1288
VDr Gero and 20
p1289
aF1592.2116549273721
aa(lp1290
VParsee
p1291
aF1592.227020976981
aa(lp1292
VThanoseid
p1293
aF1592.232015215442
aa(lp1294
VBlack Adam
p1295
aF1592.348262935135
aa(lp1296
VNormal trunks
p1297
aF1592.352373130004
aa(lp1298
VChibi gohan nex
p1299
aF1592.353959383624
aa(lp1300
VHomer
p1301
aF1592.3559537257406
aa(lp1302
VHydra
p1303
aF1592.3646733765163
aa(lp1304
VSuper Vegeta
p1305
aF1592.4015679822148
aa(lp1306
VMr Bison
p1307
aF1592.4015679822148
aa(lp1308
VJin Kazama
p1309
aF1592.4015679822148
aa(lp1310
V*Nanaya
p1311
aF1592.4015679822148
aa(lp1312
VXP Pro
p1313
aF1592.4015679822148
aa(lp1314
VLady Deathstrike
p1315
aF1592.4015679822148
aa(lp1316
VFat Albert
p1317
aF1592.4015679822148
aa(lp1318
VMr Karate
p1319
aF1592.4015679822148
aa(lp1320
VTara Gyouza
p1321
aF1592.4015679822148
aa(lp1322
VHercule GT
p1323
aF1592.4015679822148
aa(lp1324
VKarin Kanzuki
p1325
aF1592.4015679822148
aa(lp1326
VSamurai Jack
p1327
aF1592.5284836087883
aa(lp1328
VSSJ Goku
p1329
aF1592.5357917683389
aa(lp1330
VSonGoku SNK SF
p1331
aF1592.5451085393909
aa(lp1332
VDr Doom
p1333
aF1592.575868374993
aa(lp1334
VWindows ME
p1335
aF1592.575868374993
aa(lp1336
VPiccolo Daimaoh
p1337
aF1592.7254468550007
aa(lp1338
VBoulma
p1339
aF1592.7356053390092
aa(lp1340
V20 Dr. Gero
p1341
aF1592.9325843771649
aa(lp1342
VGotenks
p1343
aF1592.956393787965
aa(lp1344
VNeco chaos
p1345
aF1593.1034460953363
aa(lp1346
VKoopa Troopa
p1347
aF1593.1119236937702
aa(lp1348
VUnknown
p1349
aF1593.1344716992248
aa(lp1350
VJanemba
p1351
aF1593.287135096232
aa(lp1352
VSyo Hayate
p1353
aF1593.4210535034085
aa(lp1354
VGill
p1355
aF1593.4339438279585
aa(lp1356
VErza
p1357
aF1593.4534392780922
aa(lp1358
VCyborg + Chaos
p1359
aF1593.454130238799
aa(lp1360
VHal jordan
p1361
aF1593.5952357737974
aa(lp1362
VGold Warmachine
p1363
aF1593.6060131927659
aa(lp1364
VMs. Fanservice
p1365
aF1593.6808208252655
aa(lp1366
VIwao
p1367
aF1593.8447750154257
aa(lp1368
VCaptain marvell
p1369
aF1594.6389841144683
aa(lp1370
VCell jr
p1371
aF1594.741220096043
aa(lp1372
VNamek gohan
p1373
aF1595.1775750803654
aa(lp1374
VM.bison
p1375
aF1595.3950444274933
aa(lp1376
VOozaru
p1377
aF1595.613717955803
aa(lp1378
VKujo jotaro
p1379
aF1595.677342151403
aa(lp1380
VIchigo
p1381
aF1595.943312739291
aa(lp1382
VMeta-knight
p1383
aF1595.9830060721556
aa(lp1384
VYumi
p1385
aF1596.2681139115255
aa(lp1386
VDonatello
p1387
aF1596.7644374513893
aa(lp1388
VElisabeth blanctorche xiii
p1389
aF1596.8413472858363
aa(lp1390
VMarvel spider-man
p1391
aF1597.1014975407693
aa(lp1392
VSpawn
p1393
aF1597.3620932168851
aa(lp1394
VWario
p1395
aF1597.6369405685089
aa(lp1396
VWing zero
p1397
aF1597.7644039024847
aa(lp1398
VButtercup
p1399
aF1597.815357131059
aa(lp1400
VZantetsu
p1401
aF1598.1159802812394
aa(lp1402
VTifa lockhart
p1403
aF1598.1502022556767
aa(lp1404
VZangia
p1405
aF1598.7707082544616
aa(lp1406
VRimururu
p1407
aF1598.948843222555
aa(lp1408
VUtsuho reiuji
p1409
aF1598.9694635810456
aa(lp1410
VDespero
p1411
aF1599.0170070908987
aa(lp1412
VKisume
p1413
aF1599.6089074451454
aa(lp1414
VSailor Jupiter
p1415
aF1599.6606887652158
aa(lp1416
VLou
p1417
aF1599.748953845936
aa(lp1418
VBaitang
p1419
aF1599.8089321398159
aa(lp1420
VNeodio
p1421
aF1599.9361293601742
aa(lp1422
VVegeta SSJ3
p1423
aF1599.9963547092923
aa(lp1424
VGod Ken
p1425
aI1600
aa(lp1426
VVegeta Ultra SSJ
p1427
aI1600
aa(lp1428
V*Marco
p1429
aI1600
aa(lp1430
V*Orione
p1431
aI1600
aa(lp1432
VBender
p1433
aI1600
aa(lp1434
VGotenks SSJ
p1435
aI1600
aa(lp1436
VSSJ4Gohan
p1437
aI1600
aa(lp1438
V*Bane
p1439
aI1600
aa(lp1440
VLord Ravenous
p1441
aI1600
aa(lp1442
VVegetto EX
p1443
aI1600
aa(lp1444
VCatwalk
p1445
aI1600
aa(lp1446
V*The Joker
p1447
aI1600
aa(lp1448
VGogeta SSJ2
p1449
aI1600
aa(lp1450
V*Beast
p1451
aI1600
aa(lp1452
VTest2
p1453
aI1600
aa(lp1454
VTest4
p1455
aI1600
aa(lp1456
Vpizza\u005cpizza.def
p1457
aI1600
aa(lp1458
VJones
p1459
aI1600
aa(lp1460
VHigh Dio
p1461
aI1600
aa(lp1462
VA.B.A.
p1463
aI1600
aa(lp1464
VTao Jun
p1465
aI1600
aa(lp1466
VKaren Na Hito
p1467
aI1600
aa(lp1468
Vgill\u005cgill.def
p1469
aI1600
aa(lp1470
VRuby Heart
p1471
aI1600
aa(lp1472
VTrunks SB1
p1473
aI1600
aa(lp1474
VNeo-arc Chaos
p1475
aI1600
aa(lp1476
VDunbai san
p1477
aI1600
aa(lp1478
VDeathOgre + GhettoWar
p1479
aI1600
aa(lp1480
V*Spiral
p1481
aI1600
aa(lp1482
VGoku Vegeta
p1483
aI1600
aa(lp1484
VKazuya
p1485
aI1600
aa(lp1486
VNate Summers
p1487
aI1600
aa(lp1488
VDio Di Musca
p1489
aI1600
aa(lp1490
VGoku DB
p1491
aI1600
aa(lp1492
V*Superman
p1493
aI1600
aa(lp1494
VVic Viper
p1495
aI1600
aa(lp1496
VRorscach
p1497
aI1600
aa(lp1498
VGreen Lantern GG
p1499
aI1600
aa(lp1500
VSolid Snake
p1501
aI1600
aa(lp1502
VCream
p1503
aI1600
aa(lp1504
VSuper Skrull
p1505
aI1600
aa(lp1506
VSSJ3 Goku
p1507
aI1600
aa(lp1508
VWaha
p1509
aI1600
aa(lp1510
VTung Fu Rue
p1511
aI1600
aa(lp1512
VMinikata Moriya
p1513
aI1600
aa(lp1514
V*Geese
p1515
aI1600
aa(lp1516
VMega Piccolo
p1517
aI1600
aa(lp1518
V*Pegasus Di Fuoco
p1519
aI1600
aa(lp1520
VAraki Runa
p1521
aI1600
aa(lp1522
VThierry Henry
p1523
aI1600
aa(lp1524
VDeath Maul
p1525
aI1600
aa(lp1526
VSadclaps x2
p1527
aI1600
aa(lp1528
VChizuru Kagura
p1529
aI1600
aa(lp1530
VShuma Gorath
p1531
aI1600
aa(lp1532
V*Hydra
p1533
aI1600
aa(lp1534
VChill Penguin
p1535
aI1600
aa(lp1536
V98SE
p1537
aI1600
aa(lp1538
VChibi Goku
p1539
aI1600
aa(lp1540
VGoku SB1
p1541
aI1600
aa(lp1542
VSpider Girl
p1543
aI1600
aa(lp1544
VVegetto
p1545
aI1600
aa(lp1546
VGogeta SSJ
p1547
aI1600
aa(lp1548
VLord Raptor
p1549
aI1600
aa(lp1550
VDark Ryu
p1551
aI1600
aa(lp1552
VBulma
p1553
aI1600
aa(lp1554
VSSJGoku
p1555
aI1600
aa(lp1556
VReimi Jyahana
p1557
aI1600
aa(lp1558
VMega Vegeta
p1559
aI1600
aa(lp1560
VGreat S Man
p1561
aI1600
aa(lp1562
Vgohanex\u005cgohanex.def
p1563
aI1600
aa(lp1564
V*Piccolo Daimaoh
p1565
aI1600
aa(lp1566
VMega Lilde
p1567
aI1600
aa(lp1568
VVegeta Normal 3
p1569
aI1600
aa(lp1570
VYoshikage Killa
p1571
aI1600
aa(lp1572
VMega Gohan
p1573
aI1600
aa(lp1574
VLord Shaolin Lee
p1575
aI1600
aa(lp1576
VPiccolo SB1
p1577
aI1600
aa(lp1578
Vu
p1579
aI1600
aa(lp1580
VShin Gouki
p1581
aI1600
aa(lp1582
V*Super Vegeta
p1583
aI1600
aa(lp1584
VHuman Torch
p1585
aI1600
aa(lp1586
VRamon and Daimon 71113
p1587
aI1600
aa(lp1588
VComplete Cell
p1589
aI1600
aa(lp1590
V*Yuki
p1591
aI1600
aa(lp1592
VChaotzu
p1593
aI1600
aa(lp1594
VGreat Saiyaman
p1595
aI1600
aa(lp1596
VShang Tsung
p1597
aI1600
aa(lp1598
VOpera Elmer
p1599
aI1600
aa(lp1600
VMestre Kame
p1601
aI1600
aa(lp1602
VGoku GT SSJ3
p1603
aI1600
aa(lp1604
VS-kyo + Holy Ken
p1605
aI1600
aa(lp1606
VE-102R
p1607
aI1600
aa(lp1608
VHisui&Kohaku;
p1609
aI1600
aa(lp1610
VGohan Zeta
p1611
aI1600
aa(lp1612
VInuzuma Kiba
p1613
aI1600
aa(lp1614
VVenon
p1615
aI1600
aa(lp1616
VAnother Jissou Seki
p1617
aI1600
aa(lp1618
VYayoi
p1619
aI1600
aa(lp1620
V*Predator
p1621
aI1600
aa(lp1622
VVegeta Normal 2
p1623
aI1600
aa(lp1624
VGohan School
p1625
aI1600
aa(lp1626
V*Vanilla Ice
p1627
aI1600
aa(lp1628
VGoku SSJ4
p1629
aI1600
aa(lp1630
VGoku SSJ2
p1631
aI1600
aa(lp1632
VTrevor Spacer
p1633
aI1600
aa(lp1634
VFreeza 1st Form
p1635
aI1600
aa(lp1636
VKara Na Hito
p1637
aI1600
aa(lp1638
VCaptain Ginyu
p1639
aI1600
aa(lp1640
VCell Genesis
p1641
aI1600
aa(lp1642
VCaptan Ginew
p1643
aI1600
aa(lp1644
VResume before 12:55am
p1645
aI1600
aa(lp1646
V*Cammy
p1647
aI1600
aa(lp1648
V*Punisher
p1649
aI1600
aa(lp1650
VSailor Venus
p1651
aI1600
aa(lp1652
VSpelunker Sensei
p1653
aI1600
aa(lp1654
VGray Fly 1
p1655
aI1600
aa(lp1656
VSuper Boo
p1657
aI1600
aa(lp1658
VClaps + Uppercut
p1659
aI1600
aa(lp1660
VSailor Moon
p1661
aI1600
aa(lp1662
V95 No Danna
p1663
aI1600
aa(lp1664
VBra 1
p1665
aI1600
aa(lp1666
V*Emma Frost
p1667
aI1600
aa(lp1668
VInvisible Woman
p1669
aI1600
aa(lp1670
VVegeth SSJ2
p1671
aI1600
aa(lp1672
V*Mr. Fantastic
p1673
aI1600
aa(lp1674
VVanilla Ice
p1675
aI1600
aa(lp1676
V*Airman
p1677
aI1600
aa(lp1678
VMega And 18
p1679
aI1600
aa(lp1680
VGotenks SSJ3
p1681
aI1600
aa(lp1682
VLion-O
p1683
aI1600
aa(lp1684
VHel Lauren
p1685
aI1600
aa(lp1686
V2Ban-tan
p1687
aI1600
aa(lp1688
VGoku SSJ 3
p1689
aI1600
aa(lp1690
VButthead
p1691
aI1600
aa(lp1692
V*Human Torch
p1693
aI1600
aa(lp1694
VRubber Soul
p1695
aI1600
aa(lp1696
VYellow devil;<-- replace with name to display
p1697
aI1600
aa(lp1698
VSailor Mercury
p1699
aI1600
aa(lp1700
VShadowman CFAS
p1701
aI1600
aa(lp1702
VMega Goku
p1703
aI1600
aa(lp1704
VGinew 2
p1705
aI1600
aa(lp1706
VCell Junior
p1707
aI1600
aa(lp1708
VNate
p1709
aI1600
aa(lp1710
VBack Beard
p1711
aI1600
aa(lp1712
VPetShop
p1713
aF1600.0369792869265
aa(lp1714
VAlter Amiba
p1715
aF1600.0459648911892
aa(lp1716
VFat albert
p1717
aF1600.1990472216887
aa(lp1718
VNega Joe
p1719
aF1600.2338890315925
aa(lp1720
VYoutube poop robotnik
p1721
aF1600.299315501815
aa(lp1722
VChibi Gohan Nex
p1723
aF1600.365495233884
aa(lp1724
VP Chunli
p1725
aF1600.3919626885329
aa(lp1726
VGohan SSJ2
p1727
aF1600.4065551773742
aa(lp1728
VAnother Iori
p1729
aF1600.4322789462449
aa(lp1730
VHol Horse
p1731
aF1600.5674798752502
aa(lp1732
VQuicksilver
p1733
aF1600.6171246044553
aa(lp1734
VPepe
p1735
aF1600.6505670477115
aa(lp1736
VTron Bonne
p1737
aF1600.7246279244762
aa(lp1738
VWar Machine
p1739
aF1600.9073643568506
aa(lp1740
VMultiple Man
p1741
aF1600.9344475545386
aa(lp1742
VStorm
p1743
aF1601.0121900335225
aa(lp1744
VMorfo
p1745
aF1601.3502540707564
aa(lp1746
VSad Claps
p1747
aF1601.4519163129585
aa(lp1748
VNanaya Shiki
p1749
aF1601.4545454545455
aa(lp1750
VBaby Commando
p1751
aF1601.4545454545455
aa(lp1752
VYusuke
p1753
aF1601.4545454545455
aa(lp1754
VSakura Shingouji
p1755
aF1601.4545454545455
aa(lp1756
VLuigi
p1757
aF1601.4906671774793
aa(lp1758
VDragon Guy
p1759
aF1601.5656440710568
aa(lp1760
VDeath13
p1761
aF1601.7129332995191
aa(lp1762
VGlacius
p1763
aF1601.8979348377816
aa(lp1764
VVenom Scorpion
p1765
aF1601.9322634686798
aa(lp1766
VButt-head
p1767
aF1602.0475232791625
aa(lp1768
VNamor
p1769
aF1602.1402811205264
aa(lp1770
VSolid snake
p1771
aF1602.2994131805517
aa(lp1772
VOrione
p1773
aF1602.3203049287265
aa(lp1774
VSsj4 goten
p1775
aF1602.551963560567
aa(lp1776
VDoparmin
p1777
aF1602.8212261607503
aa(lp1778
VVictor
p1779
aF1602.8610207448176
aa(lp1780
VNanaya shiki
p1781
aF1603.061954884584
aa(lp1782
VMaster Sakura
p1783
aF1603.1386666599424
aa(lp1784
VChaka
p1785
aF1603.1972590753876
aa(lp1786
VObsidian
p1787
aF1603.2562794590524
aa(lp1788
VKiba
p1789
aF1603.4015723705202
aa(lp1790
VAstaroth
p1791
aF1603.4785431406435
aa(lp1792
VJeice
p1793
aF1603.6351566135063
aa(lp1794
VAndy_xiii
p1795
aF1603.6821340426166
aa(lp1796
VSalty goku
p1797
aF1603.7123685851943
aa(lp1798
VAnother kyo
p1799
aF1603.9103841003835
aa(lp1800
VHawkman
p1801
aF1604.6897886873408
aa(lp1802
VSalty and Zeroko
p1803
aF1604.9905890631042
aa(lp1804
VMajin vegeta ssj6
p1805
aF1605.6821728848352
aa(lp1806
VChaos blanka
p1807
aF1605.7637825203672
aa(lp1808
VKyle dunamis
p1809
aF1605.8631630562325
aa(lp1810
VMinakata moriya
p1811
aF1606.0716601975066
aa(lp1812
VMr. x
p1813
aF1606.1197774645507
aa(lp1814
VNinja megazord
p1815
aF1606.6236749490058
aa(lp1816
VNeco-arc chaos
p1817
aF1606.701726058954
aa(lp1818
VGogeta SSJ4
p1819
aF1606.9352873698786
aa(lp1820
VGajeel
p1821
aF1606.9804458568397
aa(lp1822
VGoku GT
p1823
aF1607.110288700279
aa(lp1824
VVulture
p1825
aF1607.2399551770459
aa(lp1826
VAngel Ryu
p1827
aF1607.4532270674206
aa(lp1828
VBartman
p1829
aF1607.4614551689324
aa(lp1830
VPrime sentinels
p1831
aF1607.4865099788829
aa(lp1832
VShin mr. karate
p1833
aF1607.4992890601814
aa(lp1834
VPiccolo
p1835
aF1607.6051813809763
aa(lp1836
VM-Vegeta SSJ3
p1837
aF1607.6407689140294
aa(lp1838
VJoe Higashi
p1839
aF1607.645093904122
aa(lp1840
VGuile Machine
p1841
aF1607.6490073176449
aa(lp1842
VOmega Tom Hanks
p1843
aF1607.6490073176449
aa(lp1844
VYatogi Tetsu
p1845
aF1607.6566965529134
aa(lp1846
VShiki Tohno
p1847
aF1607.6619385207498
aa(lp1848
VGoku kid_ssj
p1849
aF1607.7397838684847
aa(lp1850
VAndroide 18
p1851
aF1607.7561329991647
aa(lp1852
VCell (2 forma)
p1853
aF1607.7564863324126
aa(lp1854
VP-Gohan SSJ2
p1855
aF1607.8161183523405
aa(lp1856
VSlash
p1857
aF1607.8250675261702
aa(lp1858
VGiygas
p1859
aF1607.8288804843507
aa(lp1860
VChosu
p1861
aF1607.8330298350645
aa(lp1862
VBastion
p1863
aF1607.8330298350645
aa(lp1864
VVegeta SSJ4
p1865
aF1607.8330298350645
aa(lp1866
VMai_K
p1867
aF1607.8866416441585
aa(lp1868
VAnnie Murakami
p1869
aF1607.9965126642105
aa(lp1870
VYellow-Pipo
p1871
aF1608.000851479545
aa(lp1872
VArmored Gohan
p1873
aF1608.023792313902
aa(lp1874
VMajin Buu
p1875
aF1608.027950194659
aa(lp1876
VChun Lee Dark Bolt
p1877
aF1608.033491951137
aa(lp1878
VShadow Man
p1879
aF1608.033491951137
aa(lp1880
VShadow Vegeta
p1881
aF1608.033491951137
aa(lp1882
VPlastic Man
p1883
aF1608.033491951137
aa(lp1884
VShin Ninja Turtle
p1885
aF1608.033491951137
aa(lp1886
VNormal Chibi Trunks
p1887
aF1608.033491951137
aa(lp1888
VEvil Dan
p1889
aF1608.033491951137
aa(lp1890
VMecha Potemkin
p1891
aF1608.033491951137
aa(lp1892
VRandy M Green
p1893
aF1608.033491951137
aa(lp1894
VOmega tom hanks
p1895
aF1608.033491951137
aa(lp1896
VLast Adult Goku
p1897
aF1608.033491951137
aa(lp1898
VYellow Devil
p1899
aF1608.0560867893278
aa(lp1900
VGoku
p1901
aF1608.1652197950427
aa(lp1902
VGohan Grande Normale
p1903
aF1608.180595743736
aa(lp1904
VPerfect Storm X
p1905
aF1608.1849450297184
aa(lp1906
VArrange_kano
p1907
aF1608.1886586242056
aa(lp1908
VWonder Woman
p1909
aF1608.2084053466624
aa(lp1910
VGogeta SSJ3
p1911
aF1608.2084053466624
aa(lp1912
VEmerl
p1913
aF1608.3197306579884
aa(lp1914
VGoku ssj4
p1915
aF1608.3486905904479
aa(lp1916
VDr Gero
p1917
aF1608.390630601002
aa(lp1918
VMirai Trunks
p1919
aF1608.4241033561518
aa(lp1920
VJason Todd
p1921
aF1608.4996153418165
aa(lp1922
VIron Man
p1923
aF1608.555263745771
aa(lp1924
VBlaze Agent
p1925
aF1608.6523910314045
aa(lp1926
VCaptain America
p1927
aF1608.65518797464
aa(lp1928
VGoten GT
p1929
aF1608.7475246668062
aa(lp1930
VEmma Frost
p1931
aF1608.7475246668062
aa(lp1932
VMega Weapon
p1933
aF1608.7629818516916
aa(lp1934
VFirebrand
p1935
aF1608.7951432186305
aa(lp1936
V(sman)
p1937
aF1608.9901685193502
aa(lp1938
VBatman Beyond
p1939
aF1609.0529774723307
aa(lp1940
VAnother Kyo
p1941
aF1609.2092793202783
aa(lp1942
VSailor mars
p1943
aF1609.2440391766527
aa(lp1944
VDark Psylocke
p1945
aF1609.246140107883
aa(lp1946
VEvil Ryu
p1947
aF1609.4210535034085
aa(lp1948
VSentry
p1949
aF1609.455583594324
aa(lp1950
VUltraman
p1951
aF1609.5067894087106
aa(lp1952
VGreat s. man
p1953
aF1609.5257475654678
aa(lp1954
VNeo-sephiroth
p1955
aF1609.5401778282342
aa(lp1956
VYang
p1957
aF1609.5956790103473
aa(lp1958
VCless Alvein
p1959
aF1609.6387197140302
aa(lp1960
VCaptain Marvel
p1961
aF1609.6387197140302
aa(lp1962
VTenten
p1963
aF1609.7333141145582
aa(lp1964
VVanilla H
p1965
aF1609.7911019497149
aa(lp1966
VAlien Queen
p1967
aF1609.924051429373
aa(lp1968
VT Kawk
p1969
aF1610.1342201655239
aa(lp1970
VVegeth ssj2
p1971
aF1610.1663395743067
aa(lp1972
VGotenks ssj
p1973
aF1610.476944980498
aa(lp1974
VEri_hasumi
p1975
aF1611.199532170667
aa(lp1976
VWaha-
p1977
aF1611.2336892809842
aa(lp1978
VOrochi
p1979
aF1611.309001869428
aa(lp1980
VTenshi
p1981
aF1611.5013654360441
aa(lp1982
VSpider-carnage
p1983
aF1611.5738112229938
aa(lp1984
VBlack mask
p1985
aF1611.7047823629835
aa(lp1986
VBaby commando
p1987
aF1611.92840963759
aa(lp1988
VThe Flash
p1989
aF1611.9328651701303
aa(lp1990
VLucky 711131
p1991
aF1611.9925115298886
aa(lp1992
VVita
p1993
aF1612.0067725008746
aa(lp1994
VJess
p1995
aF1612.9838915207877
aa(lp1996
VKurama
p1997
aF1613.875343142053
aa(lp1998
VCyborg_mai
p1999
aF1613.9650671824752
aa(lp2000
VM-vegeta-ssj3
p2001
aF1614.0064276843827
aa(lp2002
VCv wakamoto
p2003
aF1614.0243351536535
aa(lp2004
VMoraga
p2005
aF1614.0403975557122
aa(lp2006
VPhobos
p2007
aF1614.1608940377155
aa(lp2008
VVice
p2009
aF1614.1932491992322
aa(lp2010
VOrochi iori
p2011
aF1614.71312740988
aa(lp2012
VShin bison
p2013
aF1614.781987662964
aa(lp2014
VRaphael
p2015
aF1614.9401716870686
aa(lp2016
VRoomi
p2017
aF1614.947172491705
aa(lp2018
VDhalsim
p2019
aF1614.9579605230388
aa(lp2020
VMiyako yoshika
p2021
aF1614.9882820049563
aa(lp2022
VRin natsume
p2023
aF1615.3157393912602
aa(lp2024
VRyuho
p2025
aF1615.3823034913466
aa(lp2026
VKenshin
p2027
aF1615.4049965075833
aa(lp2028
VDoom Vega
p2029
aF1615.473615943569
aa(lp2030
VViolent Dan
p2031
aF1615.498429075089
aa(lp2032
VShermie
p2033
aF1615.6246031256069
aa(lp2034
VEvil Ken
p2035
aF1615.6678114885333
aa(lp2036
VGreen Latern GG
p2037
aF1615.6802431450558
aa(lp2038
VLi Sheng Long
p2039
aF1615.8084471469501
aa(lp2040
VGoku SSJ4 DB Final Bout
p2041
aF1615.8485469214186
aa(lp2042
VMajin Vegeta
p2043
aF1615.8485469214186
aa(lp2044
VBurta
p2045
aF1615.907324346309
aa(lp2046
VHarley quinn
p2047
aF1615.9600518288978
aa(lp2048
VBlack Tiger
p2049
aF1615.996737858116
aa(lp2050
V*Chameleon
p2051
aI1616
aa(lp2052
VG-Rugal
p2053
aI1616
aa(lp2054
VJamian Di Corvus
p2055
aI1616
aa(lp2056
V*Krauser
p2057
aI1616
aa(lp2058
V*Prime Sentinels
p2059
aI1616
aa(lp2060
VSuper Goku
p2061
aI1616
aa(lp2062
VSatsuki Yumiduka
p2063
aI1616
aa(lp2064
VNero Chaos
p2065
aI1616
aa(lp2066
V*Hal Jordan
p2067
aI1616
aa(lp2068
VSSJ3 Broli
p2069
aI1616
aa(lp2070
VNeco-arc Chaos
p2071
aI1616
aa(lp2072
VRedLantern\u005cRedLantern.def
p2073
aI1616
aa(lp2074
VBB Hood
p2075
aI1616
aa(lp2076
VNeo Sephiroth
p2077
aI1616
aa(lp2078
VAracne De Tarantula
p2079
aI1616
aa(lp2080
V*Son Goku
p2081
aI1616
aa(lp2082
VMai Shiranui
p2083
aI1616
aa(lp2084
VEiko Magami
p2085
aI1616
aa(lp2086
VTest1
p2087
aI1616
aa(lp2088
VTest3
p2089
aI1616
aa(lp2090
VStrider Hiryu
p2091
aI1616
aa(lp2092
VMegaman.EXE
p2093
aI1616
aa(lp2094
V*Saito
p2095
aI1616
aa(lp2096
VGuerrero Divino
p2097
aI1616
aa(lp2098
VGoku Sayajin
p2099
aI1616
aa(lp2100
VFuture Trunks
p2101
aI1616
aa(lp2102
VKurokishi
p2103
aI1616
aa(lp2104
V*Android 16
p2105
aI1616
aa(lp2106
VGohan SSJ4
p2107
aI1616
aa(lp2108
VGohan SSJ3
p2109
aI1616
aa(lp2110
V*Miss Marvel
p2111
aI1616
aa(lp2112
VBlue Destiny 2
p2113
aI1616
aa(lp2114
VKazuya Mishima
p2115
aI1616
aa(lp2116
VGoku SSJ GT
p2117
aI1616
aa(lp2118
VAku Amakusa
p2119
aI1616
aa(lp2120
VOgre Akuma
p2121
aI1616
aa(lp2122
VYumeji Kurokouchi
p2123
aI1616
aa(lp2124
VMoleman\u005cMoleman.def
p2125
aI1616
aa(lp2126
VNagato Yuki
p2127
aI1616
aa(lp2128
VOrochi Iori
p2129
aI1616
aa(lp2130
VKanmi Chan
p2131
aI1616
aa(lp2132
VTara-Gyouza
p2133
aI1616
aa(lp2134
VGreen Devil
p2135
aI1616
aa(lp2136
VOnpu Segawa
p2137
aI1616
aa(lp2138
VYoko Yuki
p2139
aI1616
aa(lp2140
VDee Jay
p2141
aI1616
aa(lp2142
VMusashi Akatsuki
p2143
aI1616
aa(lp2144
VTrunks SSJ4
p2145
aI1616
aa(lp2146
VLex Luthor
p2147
aI1616
aa(lp2148
VStrider Hien
p2149
aI1616
aa(lp2150
V*Heihachi
p2151
aI1616
aa(lp2152
VGohan GT
p2153
aI1616
aa(lp2154
VCyborg Superman
p2155
aI1616
aa(lp2156
VYuki in Midday
p2157
aI1616
aa(lp2158
VMotoko-Aoyama
p2159
aI1616
aa(lp2160
VShiki VP
p2161
aI1616
aa(lp2162
VMr. Bison
p2163
aI1616
aa(lp2164
V*Moleman
p2165
aI1616
aa(lp2166
VLynn Baker
p2167
aI1616
aa(lp2168
VTiger + Ghetto
p2169
aI1616
aa(lp2170
VRobo-Kyii
p2171
aI1616
aa(lp2172
VSSJ5 Goku
p2173
aI1616
aa(lp2174
VGreat S man
p2175
aI1616
aa(lp2176
VNostalgic ballz
p2177
aI1616
aa(lp2178
VIron Lantern
p2179
aI1616
aa(lp2180
V*Felicia
p2181
aI1616
aa(lp2182
VPrime Sentinels
p2183
aI1616
aa(lp2184
VSub-Zero
p2185
aI1616
aa(lp2186
VJimmy Lee
p2187
aI1616
aa(lp2188
VJotaro Kujo
p2189
aI1616
aa(lp2190
VUsapi
p2191
aI1616
aa(lp2192
V*Sagat MB-02
p2193
aI1616
aa(lp2194
VNoriaki Kakyoin
p2195
aI1616
aa(lp2196
VJoseph the BB
p2197
aI1616
aa(lp2198
Vcellhd\u005ccellhd.def
p2199
aI1616
aa(lp2200
VCyborg Mai
p2201
aI1616
aa(lp2202
VSaori - Athena
p2203
aI1616
aa(lp2204
VGreen Lantern JS
p2205
aI1616
aa(lp2206
VViuda Negra
p2207
aI1616
aa(lp2208
VD-Rugal
p2209
aI1616
aa(lp2210
VCyborg_Mai
p2211
aI1616
aa(lp2212
VKazuki
p2213
aI1616
aa(lp2214
VOozura Vegeta
p2215
aI1616
aa(lp2216
VSaori-Athena
p2217
aI1616
aa(lp2218
VSymbiote onslaught
p2219
aI1616
aa(lp2220
VGreen Arrow
p2221
aI1616
aa(lp2222
VThe Joker
p2223
aI1616
aa(lp2224
VBlack Cat
p2225
aI1616
aa(lp2226
VBig Chicken
p2227
aI1616
aa(lp2228
VShin Ryu
p2229
aI1616
aa(lp2230
VUltimate Gohan
p2231
aI1616
aa(lp2232
VHonda Asuka
p2233
aI1616
aa(lp2234
VLisa
p2235
aI1616
aa(lp2236
VMr. Fantastic
p2237
aI1616
aa(lp2238
VRobo Rock
p2239
aI1616
aa(lp2240
VKung Lao
p2241
aI1616
aa(lp2242
V*Warmachine
p2243
aI1616
aa(lp2244
VKen and Gang
p2245
aI1616
aa(lp2246
VGod Yuri
p2247
aI1616
aa(lp2248
VShin Bison
p2249
aI1616
aa(lp2250
VGreat Sayaman
p2251
aI1616
aa(lp2252
VInsane Hiryu
p2253
aI1616
aa(lp2254
VUppercut x2
p2255
aI1616
aa(lp2256
VBomber Man
p2257
aI1616
aa(lp2258
VRyu Plus
p2259
aI1616
aa(lp2260
VGoku Nex
p2261
aI1616
aa(lp2262
VEvil Ken and Ryu
p2263
aI1616
aa(lp2264
V*Cyborg Superman
p2265
aI1616
aa(lp2266
VAmi BF
p2267
aI1616
aa(lp2268
VRobo Ky
p2269
aI1616
aa(lp2270
V*Donovan
p2271
aI1616
aa(lp2272
VSSJ Gohan
p2273
aI1616
aa(lp2274
VBart
p2275
aI1616
aa(lp2276
VGohan Saiya Jin EX
p2277
aI1616
aa(lp2278
VMSakura + PstormX
p2279
aI1616
aa(lp2280
VSadClaps + AltAmiba
p2281
aI1616
aa(lp2282
V*Bullseye
p2283
aI1616
aa(lp2284
V*Kim
p2285
aI1616
aa(lp2286
VMech Hisui
p2287
aI1616
aa(lp2288
VJoseph Joestar
p2289
aI1616
aa(lp2290
VZero Hotaru
p2291
aI1616
aa(lp2292
VCell Frieza
p2293
aI1616
aa(lp2294
VBra 2
p2295
aI1616
aa(lp2296
VJon Talbain
p2297
aI1616
aa(lp2298
VGray Fly 2
p2299
aI1616
aa(lp2300
VDrDoom
p2301
aI1616
aa(lp2302
VWild Ken Ex
p2303
aI1616
aa(lp2304
VKagami Kyosuke
p2305
aI1616
aa(lp2306
VChibi Ubuu
p2307
aI1616
aa(lp2308
VGinew 1
p2309
aI1616
aa(lp2310
VNorimaru
p2311
aI1616
aa(lp2312
VI-No
p2313
aI1616
aa(lp2314
VHyoga De Cisne
p2315
aI1616
aa(lp2316
VNamek Gohan
p2317
aI1616
aa(lp2318
VDark Chun Li
p2319
aI1616
aa(lp2320
VKoopa Troppa
p2321
aI1616
aa(lp2322
V*Maraiah
p2323
aI1616
aa(lp2324
V*Rajaamaki
p2325
aI1616
aa(lp2326
VManamana
p2327
aI1616
aa(lp2328
V*Kagami Kyosuke
p2329
aI1616
aa(lp2330
VWhite Len
p2331
aI1616
aa(lp2332
VSnake Eyes
p2333
aI1616
aa(lp2334
VAku-Amakusa
p2335
aI1616
aa(lp2336
V*Zangief Maskered
p2337
aI1616
aa(lp2338
VDr. Doom
p2339
aI1616
aa(lp2340
VResume on or after 12:55am
p2341
aI1616
aa(lp2342
VSean Matsuda
p2343
aI1616
aa(lp2344
VSSJ4 Gogeta
p2345
aI1616
aa(lp2346
VWakamoto
p2347
aI1616
aa(lp2348
VMars People
p2349
aI1616
aa(lp2350
VWinnie the Pooh
p2351
aI1616
aa(lp2352
VWing Zero
p2353
aF1616.0284977497868
aa(lp2354
VHoly Ken
p2355
aF1616.0384615826954
aa(lp2356
VNrvnqsr Chaos
p2357
aF1616.0720259371292
aa(lp2358
VFirestar
p2359
aF1616.1357712802017
aa(lp2360
VSuper Mario
p2361
aF1616.1760257302128
aa(lp2362
VRimle
p2363
aF1616.2269946390343
aa(lp2364
VIggy
p2365
aF1616.3093185798625
aa(lp2366
VCheap Boss Type
p2367
aF1616.4859784116572
aa(lp2368
VBloodrayne
p2369
aF1616.5162888592085
aa(lp2370
VFlandre scarlet
p2371
aF1616.7721879110586
aa(lp2372
VNatsu
p2373
aF1616.938588664131
aa(lp2374
VJay Garrick
p2375
aF1617.0335305187705
aa(lp2376
VSailor mercury
p2377
aF1617.1010784443693
aa(lp2378
VKen
p2379
aF1617.2047571936478
aa(lp2380
VKoopa troopa
p2381
aF1617.2780231015495
aa(lp2382
VOmega Red
p2383
aF1617.4545454545455
aa(lp2384
VEriol Hiiragizawa
p2385
aF1617.4545454545455
aa(lp2386
VThe Thing
p2387
aF1617.4545454545455
aa(lp2388
VJohnny Cage
p2389
aF1617.4545454545455
aa(lp2390
VChibiko
p2391
aF1617.4545454545455
aa(lp2392
V*Jay Garrick
p2393
aF1617.4545454545455
aa(lp2394
VPaul Phoenix
p2395
aF1617.4545454545455
aa(lp2396
VLion Magnus
p2397
aF1617.4545454545455
aa(lp2398
VKujo Jotaro
p2399
aF1617.4545454545455
aa(lp2400
VM Bison
p2401
aF1617.4545454545455
aa(lp2402
VMiss Marvel
p2403
aF1617.4545454545455
aa(lp2404
VTyouun Shiryu
p2405
aF1617.4545454545455
aa(lp2406
VStrong Guy
p2407
aF1617.4545454545455
aa(lp2408
VR Lilith
p2409
aF1617.4545454545455
aa(lp2410
VZangief Maskered
p2411
aF1617.4545454545455
aa(lp2412
VYoutube Poop Robotnik
p2413
aF1617.4545454545455
aa(lp2414
VHeihachi
p2415
aF1617.4545454545455
aa(lp2416
VMarisa
p2417
aF1617.5191009924947
aa(lp2418
VMimic
p2419
aF1617.5277084498714
aa(lp2420
VYellow devil
p2421
aF1617.5349220068554
aa(lp2422
VMegaman
p2423
aF1617.714590535906
aa(lp2424
VCrilin sposato
p2425
aF1617.714640349678
aa(lp2426
VGoku gt
p2427
aF1617.7295003743732
aa(lp2428
VShin Kazuma
p2429
aF1617.7965997464735
aa(lp2430
VJon talbain
p2431
aF1617.9534501776925
aa(lp2432
VDocock
p2433
aF1618.0701874523438
aa(lp2434
VMordecai
p2435
aF1618.5110315843983
aa(lp2436
VSean matsuda
p2437
aF1618.5636922607464
aa(lp2438
V'gou no ken' kenshirou
p2439
aF1618.6196265339383
aa(lp2440
VBlossom
p2441
aF1618.6524915817736
aa(lp2442
VGogeta ssj2
p2443
aF1619.097682473121
aa(lp2444
VEvil ranger
p2445
aF1619.3580647890885
aa(lp2446
VFelicia
p2447
aF1619.3993754320516
aa(lp2448
VBattle mahoro
p2449
aF1619.81840430242
aa(lp2450
VRyuuoutan
p2451
aF1619.8399386350197
aa(lp2452
VZombie
p2453
aF1620.0904182022239
aa(lp2454
VGohan ssj5
p2455
aF1620.3132427613723
aa(lp2456
VHanyuu
p2457
aF1620.327031443738
aa(lp2458
VVenom scorpion
p2459
aF1620.4785964744199
aa(lp2460
VJoe higashi
p2461
aF1620.4900628618848
aa(lp2462
VSangoku
p2463
aF1620.962370425448
aa(lp2464
VKensou
p2465
aF1621.0707730222373
aa(lp2466
VElektra
p2467
aF1621.1440479547525
aa(lp2468
VSagat
p2469
aF1621.154951835366
aa(lp2470
VAmi bf
p2471
aF1621.2290481094742
aa(lp2472
VBass
p2473
aF1621.2411709699077
aa(lp2474
VByakuya
p2475
aF1621.3404960652024
aa(lp2476
VHijiri byakuren
p2477
aF1621.4472090251327
aa(lp2478
VMars people
p2479
aF1621.4571650140228
aa(lp2480
VVivi_ornitier
p2481
aF1621.5646140889885
aa(lp2482
VRegina
p2483
aF1621.6367822177745
aa(lp2484
VPrincess silver
p2485
aF1621.970924786096
aa(lp2486
VSon Gohan
p2487
aF1622.2949262890018
aa(lp2488
VTaki
p2489
aF1622.30753903035
aa(lp2490
VLilith
p2491
aF1622.712025040207
aa(lp2492
VVegeta normal 3
p2493
aF1622.7979417513031
aa(lp2494
VYumeji kurokouchi
p2495
aF1622.8738557614765
aa(lp2496
VHotaru futaba
p2497
aF1623.0571247195066
aa(lp2498
VUltra SSJ5 Vegeta
p2499
aF1623.1041849692574
aa(lp2500
VAndroide 17
p2501
aF1623.1477073140788
aa(lp2502
VGoku transformer
p2503
aF1623.2200459161056
aa(lp2504
VChaos Hiryu
p2505
aF1623.2274659550355
aa(lp2506
VCaptain Caveman
p2507
aF1623.2860764871382
aa(lp2508
VPerfect Cell
p2509
aF1623.2914497623742
aa(lp2510
VMilan Flare
p2511
aF1623.2951558089576
aa(lp2512
VShikieiki yamaxanadu
p2513
aF1623.3856630590976
aa(lp2514
VSsj3 goku
p2515
aF1623.4058894375703
aa(lp2516
VMai K
p2517
aF1623.841873096736
aa(lp2518
VAndore Jr
p2519
aF1623.8485322617796
aa(lp2520
VNmori yagami
p2521
aF1623.9555038989306
aa(lp2522
VWakko
p2523
aF1623.9910847040126
aa(lp2524
VKohaku
p2525
aF1624.1371027211305
aa(lp2526
VFat boo
p2527
aF1624.1411112204694
aa(lp2528
VThe Blob
p2529
aF1624.1882185927086
aa(lp2530
VScarecrow
p2531
aF1624.244045209774
aa(lp2532
VRox Howard Clones
p2533
aF1624.3778246038767
aa(lp2534
VHisame shizumaru
p2535
aF1624.4283994717516
aa(lp2536
VMaster Hand
p2537
aF1624.674297665153
aa(lp2538
VRock Volnutt
p2539
aF1624.7247006904483
aa(lp2540
VBlack Widow
p2541
aF1624.7721715453201
aa(lp2542
VBlack adam
p2543
aF1624.8527837554698
aa(lp2544
VG Rugal
p2545
aF1624.8786770795525
aa(lp2546
VKing Godzilla
p2547
aF1624.8786770795525
aa(lp2548
VMech Zangief
p2549
aF1624.9011179165234
aa(lp2550
VSerika
p2551
aF1624.970931721164
aa(lp2552
VKazuya mishima
p2553
aF1625.2072490539595
aa(lp2554
VMinis Mahn
p2555
aF1625.237670832597
aa(lp2556
VAVDOL VER2001
p2557
aF1625.2483962161875
aa(lp2558
VVegeta
p2559
aF1625.2582093781532
aa(lp2560
VGod yuri
p2561
aF1625.4020284525718
aa(lp2562
VLady deathstrike
p2563
aF1625.4072152520707
aa(lp2564
VMexican Typhoon
p2565
aF1625.4545454545455
aa(lp2566
VDeath Ogre
p2567
aF1625.4545454545455
aa(lp2568
VNeco
p2569
aF1625.5043801561312
aa(lp2570
VJason todd
p2571
aF1625.5063479017733
aa(lp2572
VAkuma
p2573
aF1625.6213486628124
aa(lp2574
VSasuke Kun
p2575
aF1625.6967040016787
aa(lp2576
VCactuar
p2577
aF1625.698827866114
aa(lp2578
VMegatron
p2579
aF1625.8498845033378
aa(lp2580
VE. honda
p2581
aF1626.002060886496
aa(lp2582
VGohan zeta
p2583
aF1626.1830996166034
aa(lp2584
VDoomsday
p2585
aF1626.2533604925368
aa(lp2586
VSophitia
p2587
aF1626.4724201887243
aa(lp2588
VDora
p2589
aF1626.7445842411098
aa(lp2590
VSabretooth
p2591
aF1626.9150213353048
aa(lp2592
VRadish SSJ4
p2593
aF1626.944860614325
aa(lp2594
VArthas
p2595
aF1627.2578110357153
aa(lp2596
VBlue destiny 2
p2597
aF1627.358591293101
aa(lp2598
VCell junior
p2599
aF1627.3677621129877
aa(lp2600
VMr.karate
p2601
aF1627.469977549729
aa(lp2602
VMr satan
p2603
aF1627.4954618178658
aa(lp2604
VCaptain marvel
p2605
aF1627.5834293571095
aa(lp2606
VNanoha takamachi
p2607
aF1627.666285567642
aa(lp2608
VAmi
p2609
aF1627.987837611532
aa(lp2610
VSub-zero
p2611
aF1628.0341145068605
aa(lp2612
VKira daidoji
p2613
aF1628.1462908680696
aa(lp2614
VRhadamantis
p2615
aF1628.2164651692294
aa(lp2616
VSuika ibuki
p2617
aF1628.492022169576
aa(lp2618
VKyo
p2619
aF1628.510162958755
aa(lp2620
VSeth
p2621
aF1628.5451094479215
aa(lp2622
VDio
p2623
aF1628.5531679678495
aa(lp2624
VStrong guy
p2625
aF1628.8525675681283
aa(lp2626
VDare devil
p2627
aF1629.0207300367285
aa(lp2628
VSonic
p2629
aF1629.199783609891
aa(lp2630
VDio di musca
p2631
aF1629.233533737806
aa(lp2632
VVegeth@
p2633
aF1629.2382966209293
aa(lp2634
VMinis mahn
p2635
aF1629.3727735278305
aa(lp2636
VFuture trunks
p2637
aF1629.7524436838703
aa(lp2638
VShadow Dio
p2639
aF1630.0977466376764
aa(lp2640
VArcher
p2641
aF1630.163360721639
aa(lp2642
VParasite
p2643
aF1630.2172657158162
aa(lp2644
VMilan flare
p2645
aF1630.2830192612473
aa(lp2646
VKaede_hioh
p2647
aF1630.3768095294301
aa(lp2648
VYuka takeuchi
p2649
aF1630.4597695682949
aa(lp2650
VStrider hien
p2651
aF1630.714037377077
aa(lp2652
VSon Trunks
p2653
aF1630.7474166579796
aa(lp2654
VBiohazard
p2655
aF1630.7686502598258
aa(lp2656
VBasara
p2657
aF1631.115281102355
aa(lp2658
VSakura
p2659
aF1631.2052865256892
aa(lp2660
VVegeta ssj5
p2661
aF1631.263038866642
aa(lp2662
VDan
p2663
aF1631.4048533582018
aa(lp2664
VMukai
p2665
aF1631.6000054297274
aa(lp2666
VLilin
p2667
aF1631.6072894522426
aa(lp2668
VAbyss
p2669
aF1631.6333131769018
aa(lp2670
VGodzilla
p2671
aF1631.7098774531823
aa(lp2672
VMichaelangelo
p2673
aF1631.8633294248375
aa(lp2674
VJin kazama
p2675
aF1631.8675062675306
aa(lp2676
VSSJ4 Goten
p2677
aI1632
aa(lp2678
VKazama Kazuki
p2679
aI1632
aa(lp2680
VZero hotaru
p2681
aI1632
aa(lp2682
VPegAAAAAAsus x2
p2683
aI1632
aa(lp2684
VThe Nightmare
p2685
aI1632
aa(lp2686
VJyakku no keshin dio
p2687
aI1632
aa(lp2688
VYuri di AAAA
p2689
aI1632
aa(lp2690
VJin Saotome
p2691
aI1632
aa(lp2692
VNash Shadow
p2693
aI1632
aa(lp2694
VHaohmaru
p2695
aF1632.1613186341585
aa(lp2696
VGalactus
p2697
aF1632.4771090973377
aa(lp2698
VHiedano akyu
p2699
aF1632.7822836493203
aa(lp2700
VGoku ssj3
p2701
aF1632.80106427987
aa(lp2702
VJamian di corvus
p2703
aF1633.0772241901807
aa(lp2704
VIsaiah bradley
p2705
aF1633.210349876133
aa(lp2706
VEagle
p2707
aF1633.2156528951768
aa(lp2708
VOmega
p2709
aF1633.2238444125253
aa(lp2710
VIk borodin
p2711
aF1633.2878436470892
aa(lp2712
VNagato yuki
p2713
aF1633.3884464845462
aa(lp2714
VSon gohan
p2715
aF1633.5158287277588
aa(lp2716
VClark steel
p2717
aF1633.8157447263595
aa(lp2718
VGoten gt
p2719
aF1634.2261778361928
aa(lp2720
VRobocop
p2721
aF1634.4069408389387
aa(lp2722
VJuan
p2723
aF1634.651592200073
aa(lp2724
VShiori misaka
p2725
aF1634.82664712523
aa(lp2726
VHatate_himekaidou
p2727
aF1634.9525499951599
aa(lp2728
VInsane hiryu
p2729
aF1635.5254265504252
aa(lp2730
VSakuya_swr
p2731
aF1635.612882679264
aa(lp2732
VYukari_swr
p2733
aF1635.6433755164353
aa(lp2734
VArrange_ayu
p2735
aF1635.845915938747
aa(lp2736
VGengetu
p2737
aF1636.1319060736178
aa(lp2738
VKung lao
p2739
aF1636.2721856759022
aa(lp2740
VDocinho
p2741
aF1636.278844664503
aa(lp2742
VKrusty
p2743
aF1636.369684072925
aa(lp2744
VMiko
p2745
aF1636.4311359730589
aa(lp2746
VRoll
p2747
aF1636.4664740139162
aa(lp2748
VRenamon
p2749
aF1636.8979484054596
aa(lp2750
VRumia
p2751
aF1637.0439675917703
aa(lp2752
VMima
p2753
aF1637.0685525132697
aa(lp2754
VShocker
p2755
aF1637.1635446577695
aa(lp2756
VMarisa Kirisame
p2757
aF1637.7322118417878
aa(lp2758
VColossus
p2759
aF1637.8562241790496
aa(lp2760
VSenna vp
p2761
aF1638.036829490179
aa(lp2762
VEliza
p2763
aF1638.1393252579717
aa(lp2764
VSon Goku
p2765
aF1638.1875891700213
aa(lp2766
VGoku ssj2
p2767
aF1638.3383570337905
aa(lp2768
VLen and w. len
p2769
aF1638.7312870294961
aa(lp2770
VNagae iku
p2771
aF1638.7440140818196
aa(lp2772
VCpu nobunaga
p2773
aF1639.0605785978757
aa(lp2774
VSatsuki yumiduka
p2775
aF1639.4217646012762
aa(lp2776
VKishima kouma
p2777
aF1639.4716142249895
aa(lp2778
VMirai trunks
p2779
aF1639.6864296948504
aa(lp2780
VKuma
p2781
aF1639.691254589573
aa(lp2782
VHugo
p2783
aF1639.7049188711828
aa(lp2784
VMillia
p2785
aF1639.8079976396132
aa(lp2786
VYuyuko & youmu
p2787
aF1639.8452434467858
aa(lp2788
VZangyura
p2789
aF1639.9711118464713
aa(lp2790
VJack frost
p2791
aF1640.1113880993998
aa(lp2792
VPaul phoenix
p2793
aF1640.3755825459973
aa(lp2794
VDark phoenix
p2795
aF1640.740146192106
aa(lp2796
VDoraemon
p2797
aF1640.9326008724545
aa(lp2798
VSuper soldier
p2799
aF1641.08938635476
aa(lp2800
VH-duolon
p2801
aF1641.39547147
aa(lp2802
VKing godzilla
p2803
aF1641.4308277469347
aa(lp2804
VEiko magami
p2805
aF1641.433182058376
aa(lp2806
VOozura vegeta
p2807
aF1641.596095765305
aa(lp2808
VDizzy
p2809
aF1641.6044667177796
aa(lp2810
VEmerald
p2811
aF1641.7281012162257
aa(lp2812
VCharlotte
p2813
aF1642.2617698038016
aa(lp2814
VJay garrick
p2815
aF1642.2894783239585
aa(lp2816
VYamame
p2817
aF1642.3233521901523
aa(lp2818
VChomper
p2819
aF1642.4871321778521
aa(lp2820
VRan yakumo
p2821
aF1642.7840734481504
aa(lp2822
VIron lantern
p2823
aF1643.0090558075985
aa(lp2824
VMaster ryu
p2825
aF1643.2214606220869
aa(lp2826
VNightcrawler
p2827
aF1643.3090783959653
aa(lp2828
VDiablo
p2829
aF1643.3326868769554
aa(lp2830
VCommissioner gordon
p2831
aF1643.3691450776566
aa(lp2832
VBatman beyond
p2833
aF1643.530103831389
aa(lp2834
VIkki
p2835
aF1643.7073715992774
aa(lp2836
VYamcha by tomur
p2837
aF1643.7862614238422
aa(lp2838
VAndore jr
p2839
aF1643.7942704682628
aa(lp2840
VIvy
p2841
aF1643.8576177194388
aa(lp2842
VKanako yasaka
p2843
aF1644.0714442109524
aa(lp2844
VRalf
p2845
aF1644.5496620882495
aa(lp2846
VSeravy
p2847
aF1644.6315728004301
aa(lp2848
VAthena asamiya
p2849
aF1644.7951256935823
aa(lp2850
VRadel
p2851
aF1645.1187918815535
aa(lp2852
VNamazu
p2853
aF1645.1787658018013
aa(lp2854
VDet. garret laurel
p2855
aF1645.2430299570153
aa(lp2856
VSyaoran
p2857
aF1645.917962283904
aa(lp2858
VPowergirl
p2859
aF1646.1711989930525
aa(lp2860
VArrange_remilia
p2861
aF1646.2627966615726
aa(lp2862
VMystique
p2863
aF1646.414548268458
aa(lp2864
VYun
p2865
aF1646.5826030520961
aa(lp2866
VSon goku
p2867
aF1646.665097455435
aa(lp2868
VShizuha aki
p2869
aF1646.6947566472768
aa(lp2870
VNachi
p2871
aF1646.944969071997
aa(lp2872
VAoshi
p2873
aF1647.127154053652
aa(lp2874
VGeese
p2875
aF1647.1946038444985
aa(lp2876
VHelion
p2877
aF1647.4921287350817
aa(lp2878
VKrizalid
p2879
aF1647.498666693363
aa(lp2880
VGoten gt nex
p2881
aF1648.15228767744
aa(lp2882
VNormal freeza
p2883
aF1648.3691486871069
aa(lp2884
VRed ranger
p2885
aF1648.51361302514
aa(lp2886
VMissmarvel
p2887
aF1648.8519014615422
aa(lp2888
VMoleman
p2889
aF1649.2766953830803
aa(lp2890
VJo jo
p2891
aF1649.5256637076013
aa(lp2892
VRobo rock
p2893
aF1649.5310714927905
aa(lp2894
VBlack widow
p2895
aF1649.5969876403224
aa(lp2896
VGiro
p2897
aF1649.9160515410563
aa(lp2898
VChibi naruto
p2899
aF1650.32289927004
aa(lp2900
VHellboy
p2901
aF1650.890000117051
aa(lp2902
VMultiple man
p2903
aF1650.915061414745
aa(lp2904
VGreen arrow
p2905
aF1651.1032380501845
aa(lp2906
VTrouble man
p2907
aF1651.407132893357
aa(lp2908
VYuyuko saigyouji
p2909
aF1651.6904914534023
aa(lp2910
VSuper buu
p2911
aF1651.7784853000446
aa(lp2912
VShanghai
p2913
aF1651.8181522952677
aa(lp2914
VSuika
p2915
aF1651.92129247882
aa(lp2916
VWalkyrie
p2917
aF1651.9530498540826
aa(lp2918
VMasta gambit
p2919
aF1652.0101933634369
aa(lp2920
VSaisyuu_dokusyo_bouei_system
p2921
aF1652.1345332941276
aa(lp2922
VCirno
p2923
aF1652.2300682608716
aa(lp2924
VLeona
p2925
aF1652.5109343892843
aa(lp2926
VSakura Kinomoto
p2927
aF1652.6583836416394
aa(lp2928
VPatchouli_swr
p2929
aF1652.6915285649457
aa(lp2930
VHikaru
p2931
aF1652.787792040106
aa(lp2932
VAkiha
p2933
aF1652.8726360791554
aa(lp2934
VGohan ssj3
p2935
aF1653.1214007419326
aa(lp2936
VLobo
p2937
aF1653.1719392790812
aa(lp2938
VLast adult goku
p2939
aF1653.5881262328608
aa(lp2940
VMinoriko aki
p2941
aF1653.620332208877
aa(lp2942
VGodman
p2943
aF1653.7933253449462
aa(lp2944
VThe atom
p2945
aF1653.820662476394
aa(lp2946
VTien
p2947
aF1653.9700404657253
aa(lp2948
VMedicine melancholy
p2949
aF1654.053819286568
aa(lp2950
VBlodia
p2951
aF1654.2387788612443
aa(lp2952
VC-19
p2953
aF1654.4030876559955
aa(lp2954
VElla
p2955
aF1654.9842243660971
aa(lp2956
VMarisa kirisame
p2957
aF1655.0675694877548
aa(lp2958
VHayato
p2959
aF1655.227481388849
aa(lp2960
VRin rin
p2961
aF1655.2554146259022
aa(lp2962
VSoujiro
p2963
aF1655.267371976354
aa(lp2964
VOpera elmer
p2965
aF1655.5693973006628
aa(lp2966
VServbot
p2967
aF1655.652808911054
aa(lp2968
VMorrigan
p2969
aF1655.821096227182
aa(lp2970
VLei-lei
p2971
aF1655.9940955405586
aa(lp2972
VMagneto
p2973
aF1656.0826454095352
aa(lp2974
VChun-li
p2975
aF1656.3025395076527
aa(lp2976
VKanorin
p2977
aF1656.593814031537
aa(lp2978
VEtrigan
p2979
aF1657.0970290005198
aa(lp2980
VDeadpool
p2981
aF1657.3188964134863
aa(lp2982
VSnake eyes
p2983
aF1657.7074185605027
aa(lp2984
VUltimat goku
p2985
aF1657.726246731339
aa(lp2986
VLion(coh)
p2987
aF1658.0415942928605
aa(lp2988
VTsugumi
p2989
aF1658.1429246700486
aa(lp2990
VYukari yakumo
p2991
aF1658.2955288956487
aa(lp2992
VBenimaru
p2993
aF1658.3032427448215
aa(lp2994
VMr. fantastic
p2995
aF1658.3867863820033
aa(lp2996
VJ'onn j'onnz
p2997
aF1658.7640001920186
aa(lp2998
VAlex
p2999
aF1658.8819308384857
aa(lp3000
VRikuo
p3001
aF1658.9293912203063
aa(lp3002
VChang
p3003
aF1658.9929305725736
aa(lp3004
VRouga(coh)
p3005
aF1659.4871124512078
aa(lp3006
VSaint Kyo
p3007
aF1659.6879687959433
aa(lp3008
VKamiccolo
p3009
aF1659.6906375712892
aa(lp3010
VGohan saiya-jin ex
p3011
aF1659.87333486959
aa(lp3012
VZangief sf4
p3013
aF1659.968681947181
aa(lp3014
VDuke nukem
p3015
aF1660.0301461371673
aa(lp3016
VBroly
p3017
aF1660.0787618117276
aa(lp3018
VBane
p3019
aF1660.260861873781
aa(lp3020
VPerfect cell
p3021
aF1660.4573233395527
aa(lp3022
VGouken
p3023
aF1660.5881359945677
aa(lp3024
VAchi cirno
p3025
aF1660.5900889871552
aa(lp3026
VCheap boss type
p3027
aF1660.5975501097055
aa(lp3028
VGonzales
p3029
aF1660.9602672157323
aa(lp3030
VMecha potemkin
p3031
aF1660.9762980262326
aa(lp3032
VAura
p3033
aF1661.0956190641537
aa(lp3034
VKonngara
p3035
aF1661.1914565226828
aa(lp3036
VSailor uranus
p3037
aF1661.4247344064895
aa(lp3038
VTenma-sama
p3039
aF1661.7670943033609
aa(lp3040
VMyuu
p3041
aF1661.8833963944792
aa(lp3042
VJabu
p3043
aF1661.8969154543386
aa(lp3044
VKim kaphwan
p3045
aF1662.0652108701481
aa(lp3046
VShadow lady
p3047
aF1662.2373566835536
aa(lp3048
VShaoran lee
p3049
aF1662.302760353834
aa(lp3050
VTen
p3051
aF1662.6158770096213
aa(lp3052
VWild ken ex
p3053
aF1662.936666648933
aa(lp3054
VCapella
p3055
aF1663.139908996616
aa(lp3056
VBridget
p3057
aF1663.3218837092104
aa(lp3058
VMarvin
p3059
aF1663.4436608406934
aa(lp3060
VSayuri kurata
p3061
aF1663.8742744427147
aa(lp3062
VTin's fernandeath
p3063
aF1664.3970681039991
aa(lp3064
VRyo
p3065
aF1664.9240781360054
aa(lp3066
VShaq
p3067
aF1664.9945389518216
aa(lp3068
VGaits
p3069
aF1665.342987333127
aa(lp3070
VLei lei
p3071
aF1665.6052127767698
aa(lp3072
VYurika kirishima
p3073
aF1665.891681280506
aa(lp3074
VSatoko
p3075
aF1666.067503626916
aa(lp3076
VHaruhi suzumiya
p3077
aF1666.0698555243894
aa(lp3078
VHotaru
p3079
aF1666.1513689544483
aa(lp3080
VTeam reimisen
p3081
aF1666.200950309017
aa(lp3082
VGotenks gt
p3083
aF1666.3172856513747
aa(lp3084
VP. chunli
p3085
aF1667.0118177732957
aa(lp3086
VProfessor x
p3087
aF1667.034558703627
aa(lp3088
VUltra ssj5 vegeta
p3089
aF1667.3238220685594
aa(lp3090
VAlex mercer
p3091
aF1667.4550826417965
aa(lp3092
VMaraiah
p3093
aF1667.5673927581918
aa(lp3094
VDeath adder
p3095
aF1667.812273391694
aa(lp3096
VMusashi akatsuki
p3097
aF1668.109761543864
aa(lp3098
VBison
p3099
aF1668.200299600911
aa(lp3100
VCammy
p3101
aF1668.4626249957778
aa(lp3102
VTessa
p3103
aF1668.4666115156258
aa(lp3104
VYoko yuki
p3105
aF1668.500620254491
aa(lp3106
VTizoc
p3107
aF1668.8195634706085
aa(lp3108
VAku-amakusa
p3109
aF1668.8237437797002
aa(lp3110
VArrange_misuzu
p3111
aF1668.999444204055
aa(lp3112
VKrauser
p3113
aF1669.1923257361773
aa(lp3114
VKenpachi
p3115
aF1669.4740025006392
aa(lp3116
VMai shiranui
p3117
aF1669.5154523739693
aa(lp3118
VIronman
p3119
aF1669.6680392016735
aa(lp3120
VKim
p3121
aF1669.7764887541637
aa(lp3122
VPyron
p3123
aF1669.9052411739046
aa(lp3124
VGogeta super saiyan 3
p3125
aF1670.0507327925447
aa(lp3126
VMugetu
p3127
aF1670.1186464099465
aa(lp3128
VRare Akuma
p3129
aF1670.2623280877408
aa(lp3130
VSaito
p3131
aF1670.682247028251
aa(lp3132
VRogue
p3133
aF1670.6833533064253
aa(lp3134
VRobin
p3135
aF1671.2642483254822
aa(lp3136
VThanos
p3137
aF1671.7812689476843
aa(lp3138
VUnzan&ichirin;
p3139
aF1671.90434821436
aa(lp3140
VToron
p3141
aF1672.0015182022464
aa(lp3142
VUppercut
p3143
aF1672.0052581186835
aa(lp3144
VArrange_shiori
p3145
aF1672.1333704256867
aa(lp3146
VLynn baker
p3147
aF1672.3093892600973
aa(lp3148
VAnnie murakami
p3149
aF1672.5310655920264
aa(lp3150
VOrochimaru
p3151
aF1672.6937426087145
aa(lp3152
VAyu tsukimiya
p3153
aF1672.8421286935568
aa(lp3154
VReisen_swr
p3155
aF1672.9132022519866
aa(lp3156
VCc iron clara
p3157
aF1672.9629296261658
aa(lp3158
VRed cyclone
p3159
aF1673.2332451446734
aa(lp3160
VChameleon
p3161
aF1673.4740694432269
aa(lp3162
VSonic machine
p3163
aF1673.4906931228943
aa(lp3164
VVanessa
p3165
aF1673.5154751625269
aa(lp3166
VRyoko asakura
p3167
aF1673.5288139913798
aa(lp3168
VUsapi-
p3169
aF1673.6930728705183
aa(lp3170
VMajin vegeta
p3171
aF1674.070223037361
aa(lp3172
VOrochi akuma
p3173
aF1674.596229870849
aa(lp3174
VSilver surfer
p3175
aF1674.7279226887674
aa(lp3176
VBoo ssj
p3177
aF1675.2090786919703
aa(lp3178
VCaptain commando
p3179
aF1675.2550813800642
aa(lp3180
VChun-lee dark bolt
p3181
aF1675.3215908898867
aa(lp3182
VYuuka kazami
p3183
aF1675.3905603952512
aa(lp3184
VReptos
p3185
aF1675.5578431197393
aa(lp3186
VMech gouki
p3187
aF1676.5800642487068
aa(lp3188
VYoumu konpaku
p3189
aF1676.8095047765023
aa(lp3190
VVegeta ssj3
p3191
aF1676.8805797265907
aa(lp3192
VArchangel
p3193
aF1677.3088967713538
aa(lp3194
VAoko
p3195
aF1677.38923890997
aa(lp3196
VKuando
p3197
aF1677.625830812112
aa(lp3198
VGoku ssj4 db final bout
p3199
aF1677.7363187247045
aa(lp3200
VEvil homer
p3201
aF1677.7589969855997
aa(lp3202
VSoulgen
p3203
aF1678.9518361285639
aa(lp3204
VKeel
p3205
aF1679.073602099645
aa(lp3206
VArrange_unknown
p3207
aF1679.613063258986
aa(lp3208
VBatman
p3209
aF1679.833708216738
aa(lp3210
VRiot
p3211
aF1679.9097467415559
aa(lp3212
VZinc
p3213
aF1680.049808153003
aa(lp3214
VBin laden
p3215
aF1680.3539959170869
aa(lp3216
VJedah
p3217
aF1680.5011120543522
aa(lp3218
VRugal
p3219
aF1680.6124358003435
aa(lp3220
VBaby bonnie hood
p3221
aF1680.674261214633
aa(lp3222
VJudith
p3223
aF1680.8168644591444
aa(lp3224
VSuper-8
p3225
aF1681.0958350573571
aa(lp3226
VNightwolf
p3227
aF1681.2272092713224
aa(lp3228
VVanilla h
p3229
aF1681.27685413415
aa(lp3230
VRandy m. green
p3231
aF1681.3386459621172
aa(lp3232
VJackal
p3233
aF1681.3743780854795
aa(lp3234
VRasetsumaru
p3235
aF1681.5900588465076
aa(lp3236
VK'
p3237
aF1681.9656766540213
aa(lp3238
VIceman
p3239
aF1681.970765597934
aa(lp3240
VSailor jupiter
p3241
aF1681.9824973562936
aa(lp3242
VNazrin
p3243
aF1682.1184651658364
aa(lp3244
VDeath black shot
p3245
aF1682.2082883984428
aa(lp3246
VSteel
p3247
aF1682.2122089444783
aa(lp3248
VRaiden
p3249
aF1682.2959479251306
aa(lp3250
VVertigo
p3251
aF1682.4076318982657
aa(lp3252
VOgre
p3253
aF1682.9299573370415
aa(lp3254
VRaptor
p3255
aF1683.0174510266197
aa(lp3256
VSsj three broli
p3257
aF1683.142600649197
aa(lp3258
VAndroid 16
p3259
aF1683.3258246841826
aa(lp3260
VCharlie
p3261
aF1684.0066027783778
aa(lp3262
VIkkaku
p3263
aF1684.0734894870955
aa(lp3264
VMech-hisui
p3265
aF1684.4559909139775
aa(lp3266
VOoze-o
p3267
aF1684.6539857104683
aa(lp3268
VShiki tohno
p3269
aF1684.6908267879112
aa(lp3270
VUbu
p3271
aF1685.0975060727994
aa(lp3272
VGiano
p3273
aF1685.7678857032568
aa(lp3274
VFaust
p3275
aF1686.0504416242472
aa(lp3276
VUltimate cap
p3277
aF1686.3503788637586
aa(lp3278
VGreen lantern gg
p3279
aF1686.362930357137
aa(lp3280
VScream
p3281
aF1686.5952049006582
aa(lp3282
VSatsuki
p3283
aF1687.315632978982
aa(lp3284
VSuper goku
p3285
aF1687.7287198766742
aa(lp3286
VMorph
p3287
aF1688.3994114909656
aa(lp3288
VArrange_mishio
p3289
aF1688.6933416674651
aa(lp3290
VLord zedd
p3291
aF1688.7188552548898
aa(lp3292
VHyoga de cisne
p3293
aF1688.8703795063436
aa(lp3294
VGoenitz
p3295
aF1688.9695127231782
aa(lp3296
VSailor venus
p3297
aF1689.0099086936418
aa(lp3298
VRyuuguu rena
p3299
aF1689.951363765724
aa(lp3300
VFranko
p3301
aF1690.6404191428035
aa(lp3302
VSissy
p3303
aF1691.576186132757
aa(lp3304
VMike tyson
p3305
aF1691.6680905461103
aa(lp3306
VNega joe
p3307
aF1691.9478100872175
aa(lp3308
VSad claps
p3309
aF1691.951168266173
aa(lp3310
VViolent dan
p3311
aF1691.9719111739548
aa(lp3312
VOmega tiger woods
p3313
aF1692.0484275178799
aa(lp3314
VSaiki
p3315
aF1692.1014250769979
aa(lp3316
VGhost rider
p3317
aF1692.6013696994216
aa(lp3318
VEsmeralda
p3319
aF1693.0908700091281
aa(lp3320
VKazama sogetsu
p3321
aF1693.3770124013988
aa(lp3322
VThor
p3323
aF1693.7282716216012
aa(lp3324
VSetsuna
p3325
aF1693.7754414607773
aa(lp3326
VCaptain caveman
p3327
aF1694.0119780911057
aa(lp3328
VSodom
p3329
aF1694.0930218393098
aa(lp3330
VFrieza
p3331
aF1694.2962927443557
aa(lp3332
VMai_k
p3333
aF1695.087584139904
aa(lp3334
VWarachia
p3335
aF1695.3018756586082
aa(lp3336
VHibiki
p3337
aF1695.3331718677473
aa(lp3338
VGreen lantern
p3339
aF1695.3707462355255
aa(lp3340
VBattousai
p3341
aF1695.5289499816413
aa(lp3342
VHaggar
p3343
aF1695.5542705301723
aa(lp3344
VNanoha xp
p3345
aF1695.7516683052684
aa(lp3346
VZappa
p3347
aF1696.0989289079935
aa(lp3348
VVoid
p3349
aF1696.16499627842
aa(lp3350
VShadowman cfas
p3351
aF1696.226539188469
aa(lp3352
VOnpu segawa
p3353
aF1696.3420923161277
aa(lp3354
VAlien queen
p3355
aF1696.6631884311653
aa(lp3356
VYumemi
p3357
aF1696.7604378873962
aa(lp3358
VEvil soul
p3359
aF1697.1531941743372
aa(lp3360
VRajaamaki
p3361
aF1697.155293087091
aa(lp3362
VKanae
p3363
aF1697.7914907973613
aa(lp3364
VClayface
p3365
aF1697.802153196596
aa(lp3366
VPyro
p3367
aF1697.80402906319
aa(lp3368
VVarnage
p3369
aF1697.8907238916343
aa(lp3370
VAracne de tarantula
p3371
aF1698.0822904740255
aa(lp3372
VSasquatch
p3373
aF1698.824608407901
aa(lp3374
VYamazaki 71113
p3375
aF1698.9825288493842
aa(lp3376
VRajaayuri
p3377
aF1699.6121895392794
aa(lp3378
VMech zangief
p3379
aF1699.91360899219
aa(lp3380
VReptile
p3381
aF1700.031665414375
aa(lp3382
VM. bison
p3383
aF1700.657416838981
aa(lp3384
VBishop
p3385
aF1700.665021287072
aa(lp3386
VSion
p3387
aF1700.8310027704501
aa(lp3388
VKraken
p3389
aF1700.9105740976113
aa(lp3390
VMature
p3391
aF1700.9848782841073
aa(lp3392
VRoa
p3393
aF1701.6889851283327
aa(lp3394
VRyu plus
p3395
aF1701.773365516922
aa(lp3396
VFerroman
p3397
aF1702.284882202209
aa(lp3398
VPoppy
p3399
aF1702.3643365450441
aa(lp3400
VR. lilith
p3401
aF1702.5580435218894
aa(lp3402
VMephisto
p3403
aF1703.067056847194
aa(lp3404
VCloud
p3405
aF1703.655116674255
aa(lp3406
VCarnage
p3407
aF1703.769391601823
aa(lp3408
VFordy
p3409
aF1704.0341177842076
aa(lp3410
VGuy
p3411
aF1704.3486390956662
aa(lp3412
VSuper metroid
p3413
aF1704.3733275827308
aa(lp3414
VCrystal
p3415
aF1704.712388191428
aa(lp3416
VDooby dummy
p3417
aF1704.7160173737018
aa(lp3418
VDr.gero
p3419
aF1705.020488017445
aa(lp3420
VTalon
p3421
aF1705.0227793574277
aa(lp3422
VKung fu fiunn
p3423
aF1705.1895478711208
aa(lp3424
VArmored gohan
p3425
aF1705.3048619785861
aa(lp3426
VRock
p3427
aF1705.5032515884154
aa(lp3428
VEriol hiiragizawa
p3429
aF1705.7404095284621
aa(lp3430
VLucky 71113
p3431
aF1705.8297320262584
aa(lp3432
VIchi
p3433
aF1705.8340383870768
aa(lp3434
VJean grey
p3435
aF1705.894354295317
aa(lp3436
VSpiderman
p3437
aF1705.9249461620345
aa(lp3438
VShiki vp
p3439
aF1706.297289921095
aa(lp3440
VKurihan
p3441
aF1707.4158986136272
aa(lp3442
VIori 71113
p3443
aF1707.6222396786545
aa(lp3444
VOozura bebi
p3445
aF1708.1211057427474
aa(lp3446
VBurter
p3447
aF1708.930523174997
aa(lp3448
VSquall
p3449
aF1709.0340475475527
aa(lp3450
VThe thing
p3451
aF1709.9236809000777
aa(lp3452
VMarrow
p3453
aF1710.0661230588864
aa(lp3454
VWonderman
p3455
aF1710.399247937552
aa(lp3456
VRare akuma
p3457
aF1710.6665141789467
aa(lp3458
VArcueid
p3459
aF1711.3550844583474
aa(lp3460
VBlackheart
p3461
aF1711.4809158641372
aa(lp3462
VJimmy lee
p3463
aF1711.534144403483
aa(lp3464
VKouryu
p3465
aF1712.0778100760558
aa(lp3466
VChizuru kagura
p3467
aF1712.0919741769249
aa(lp3468
VWolverine
p3469
aF1712.1011683605689
aa(lp3470
VE-terry 71113
p3471
aF1712.4020309281539
aa(lp3472
VUltron
p3473
aF1712.9682377176703
aa(lp3474
VShin gouki
p3475
aF1712.997098491361
aa(lp3476
VBilly lee
p3477
aF1713.024265154313
aa(lp3478
VClark
p3479
aF1713.7230641344665
aa(lp3480
VDragon claw
p3481
aF1714.053876905399
aa(lp3482
VLayla
p3483
aF1715.321965502062
aa(lp3484
VAgony
p3485
aF1715.742121059861
aa(lp3486
VBlack tiger
p3487
aF1716.1455273734675
aa(lp3488
VOrchid
p3489
aF1716.2695004477764
aa(lp3490
VIronpatriot
p3491
aF1716.372079725225
aa(lp3492
VCaptain america
p3493
aF1716.7753154445224
aa(lp3494
VSentinel
p3495
aF1716.9965710511844
aa(lp3496
VStrider hiryu
p3497
aF1717.0128838921419
aa(lp3498
VBerserk
p3499
aF1717.0609143900824
aa(lp3500
VNakoruru
p3501
aF1717.0655695393202
aa(lp3502
VMexican typhoon
p3503
aF1717.4560981417403
aa(lp3504
VHato sabure
p3505
aF1717.612272168645
aa(lp3506
VLilith aensland
p3507
aF1718.346803216755
aa(lp3508
VDonald
p3509
aF1718.3508821715316
aa(lp3510
VVergil
p3511
aF1718.5718806250281
aa(lp3512
VDemitri
p3513
aF1718.7884825761485
aa(lp3514
VShin kazuma
p3515
aF1719.0350189821434
aa(lp3516
VWarakia
p3517
aF1719.596980284231
aa(lp3518
VApocalypse
p3519
aF1719.7967713196506
aa(lp3520
VOrochi vega
p3521
aF1720.9865572681292
aa(lp3522
VWonder woman
p3523
aF1721.3869988568686
aa(lp3524
VJohnny cage
p3525
aF1721.9965449130873
aa(lp3526
VCyclops
p3527
aF1722.3408737703405
aa(lp3528
VLavos spawn
p3529
aF1722.389227037537
aa(lp3530
VMb-02
p3531
aF1722.9628722945733
aa(lp3532
VAnakaris
p3533
aF1722.9701580387098
aa(lp3534
VCyborg superman
p3535
aF1723.1412228901377
aa(lp3536
VKazama kazuki
p3537
aF1723.2265361815817
aa(lp3538
VYue
p3539
aF1723.3893283802097
aa(lp3540
VHomero
p3541
aF1723.4949612203814
aa(lp3542
VRai
p3543
aF1723.634046660946
aa(lp3544
VBullseye
p3545
aF1724.572182433523
aa(lp3546
VHulk
p3547
aF1724.6523939608498
aa(lp3548
VSuper androide 17 hd
p3549
aF1724.8182548522077
aa(lp3550
VDr.doom
p3551
aF1725.4103882020897
aa(lp3552
VDiablo_skeleton
p3553
aF1725.7119349300874
aa(lp3554
VCable
p3555
aF1725.836599413961
aa(lp3556
VTerry bogard
p3557
aF1726.0910981302966
aa(lp3558
VDink smallwood
p3559
aF1727.8742501882675
aa(lp3560
VGoku nex
p3561
aF1729.384818802849
aa(lp3562
VNaruto kun
p3563
aF1729.6467828431475
aa(lp3564
VSynn
p3565
aF1729.7081102120362
aa(lp3566
VBlaze agent
p3567
aF1730.0601985247972
aa(lp3568
VFlonne
p3569
aF1730.2727072017929
aa(lp3570
VAngus
p3571
aF1730.5274242121793
aa(lp3572
VShadow dio
p3573
aF1730.7315128627854
aa(lp3574
VK9999
p3575
aF1730.9733258075184
aa(lp3576
VThe blob
p3577
aF1731.271435285725
aa(lp3578
VCless alvein
p3579
aF1731.4356843953503
aa(lp3580
VG-akiha
p3581
aF1732.1406666691014
aa(lp3582
VGideon
p3583
aF1732.1953611537745
aa(lp3584
VJin saotome
p3585
aF1732.5176561314574
aa(lp3586
VLex luthor
p3587
aF1732.822503526014
aa(lp3588
VOssan
p3589
aF1733.0753588455161
aa(lp3590
VSymbiote spider-man
p3591
aF1733.5673873945614
aa(lp3592
VBroken
p3593
aF1733.7516764512654
aa(lp3594
VHyper neo-kamek
p3595
aF1733.8620546751006
aa(lp3596
VMongul
p3597
aF1733.9313925996469
aa(lp3598
VThe flash
p3599
aF1733.9576493026457
aa(lp3600
VMs. fanservice
p3601
aF1734.5598020717907
aa(lp3602
VDrdoom
p3603
aF1735.0131493767387
aa(lp3604
VKamek
p3605
aF1735.018380104299
aa(lp3606
VGohan ssj4
p3607
aF1735.3871951355254
aa(lp3608
VSaori - athena
p3609
aF1735.6711165284992
aa(lp3610
VHisui
p3611
aF1735.8138338669924
aa(lp3612
VKanna
p3613
aF1736.0637524461981
aa(lp3614
VDeath ogre
p3615
aF1736.4434562765705
aa(lp3616
VEvil ryu
p3617
aF1737.1602427945174
aa(lp3618
VRyu
p3619
aF1737.5645176278033
aa(lp3620
VSasuke kun
p3621
aF1738.1258300482382
aa(lp3622
VWell
p3623
aF1739.0587583005797
aa(lp3624
VSaint kyo
p3625
aF1740.423511599299
aa(lp3626
VSpiral
p3627
aF1740.4670250719046
aa(lp3628
VThe dazzler
p3629
aF1740.750848568498
aa(lp3630
VZeeky h. bomb
p3631
aF1741.5713997926507
aa(lp3632
VT. kawk
p3633
aF1742.4149068038998
aa(lp3634
VRamon 71113
p3635
aF1742.461144965064
aa(lp3636
VChiel
p3637
aF1743.5269095629608
aa(lp3638
VOgre akuma
p3639
aF1744.010357550069
aa(lp3640
VNrvnqsr chaos
p3641
aF1744.0447167195307
aa(lp3642
VHel'lauren
p3643
aF1744.1046373314489
aa(lp3644
VLion magnus
p3645
aF1744.925427945198
aa(lp3646
VBarney
p3647
aF1745.9534618046225
aa(lp3648
VKoryu
p3649
aF1746.0201892320072
aa(lp3650
VSuper mario
p3651
aF1746.3541656098973
aa(lp3652
VJuggernaut
p3653
aF1746.5096296353113
aa(lp3654
VDarkseid
p3655
aF1746.8386432738646
aa(lp3656
VShishio
p3657
aF1747.463196047689
aa(lp3658
VGohan  grande normale
p3659
aF1747.5793032461575
aa(lp3660
VOverlord
p3661
aF1747.936655793434
aa(lp3662
VG rugal
p3663
aF1748.0633316502785
aa(lp3664
VMisty
p3665
aF1748.5253120709792
aa(lp3666
VSegalow
p3667
aF1751.5172148506545
aa(lp3668
VGhetto warmachine
p3669
aF1752.8214674012
aa(lp3670
VNeco-arc
p3671
aF1754.5653361178279
aa(lp3672
VSuper skrull
p3673
aF1754.8824700362982
aa(lp3674
VEvil dan
p3675
aF1755.4553103728044
aa(lp3676
VMaster hand
p3677
aF1755.5716619275809
aa(lp3678
VSonson
p3679
aF1756.077993118277
aa(lp3680
VMega weapon
p3681
aF1757.276757837225
aa(lp3682
VRonald
p3683
aF1758.6731519442753
aa(lp3684
VNail
p3685
aF1758.8454714046443
aa(lp3686
VShuma gorath
p3687
aF1761.8064497076277
aa(lp3688
VSsj5 goku
p3689
aF1762.78927782699
aa(lp3690
VDonovan
p3691
aF1764.6023718657686
aa(lp3692
VPerfect storm x
p3693
aF1765.441337694355
aa(lp3694
VRadish ssj4
p3695
aF1768.0555906177224
aa(lp3696
VOnslaught
p3697
aF1771.109627660007
aa(lp3698
VMishio
p3699
aF1774.0253798055976
aa(lp3700
VRock volnutt
p3701
aF1774.4617978315296
aa(lp3702
VHoly ken
p3703
aF1778.9215950888404
aa(lp3704
VMaster sakura
p3705
aF1779.7027779757218
aa(lp3706
VRemilia
p3707
aF1779.8176587633907
aa(lp3708
VNero
p3709
aF1780.9218385534414
aa(lp3710
VDaimon 71113
p3711
aF1782.2639560582197
aa(lp3712
VSandman
p3713
aF1789.5217013725191
aa(lp3714
VPossessed heita
p3715
aF1793.4573840677665
aa(lp3716
VSilversamurai
p3717
aF1793.5014752609723
aa(lp3718
VKiller whale
p3719
aF1796.7910403119981
aa(lp3720
VChaos hiryu
p3721
aF1800.3245116257415
aa(lp3722
VPatchouli
p3723
aF1802.641075906648
aa(lp3724
VAlter amiba
p3725
aF1806.6734301629474
aa(lp3726
VSakura kinomoto
p3727
aF1818.9217531757445
aa(lp3728
VEvil ken
p3729
aF1850.323795913992
aatp3730
Rp3731
.