ccollections
OrderedDict
p0
((lp1
(lp2
VGinew
p3
aF1394.9419202729596
aa(lp4
VVegeta ssj1
p5
aF1413.7738348926232
aa(lp6
VWindows me
p7
aF1420.1503514826666
aa(lp8
VSuigintou
p9
aF1430.1948249683703
aa(lp10
VGoku sb1
p11
aF1432.7589458117359
aa(lp12
VCatwoman
p13
aF1435.926301139525
aa(lp14
VMajin buu
p15
aF1437.5647290704696
aa(lp16
VDio brando
p17
aF1442.3917906361787
aa(lp18
VHebiitigo
p19
aF1442.8892316101235
aa(lp20
VPikachu
p21
aF1444.3680218005943
aa(lp22
VVega
p23
aF1444.651912795317
aa(lp24
VBlob
p25
aF1445.069020811516
aa(lp26
VMarie
p27
aF1448.5671343316308
aa(lp28
V95
p29
aF1449.1891899078462
aa(lp30
VEdward elrick
p31
aF1450.2854941199457
aa(lp32
VDante
p33
aF1450.3788283424105
aa(lp34
VTrunks
p35
aF1452.3615022550237
aa(lp36
VTao jun
p37
aF1452.7166680213932
aa(lp38
VRouge
p39
aF1452.801379228202
aa(lp40
VKrillin
p41
aF1453.1576551370965
aa(lp42
VVisbou
p43
aF1453.4297740128288
aa(lp44
VCell
p45
aF1453.765823929602
aa(lp46
VYellow-pipo
p47
aF1454.8565977769206
aa(lp48
VNyaonyao
p49
aF1455.4060598863666
aa(lp50
VZaku
p51
aF1455.4208751374354
aa(lp52
VRecoome
p53
aF1456.920323568981
aa(lp54
VBlack manta
p55
aF1457.617877539228
aa(lp56
VKagome
p57
aF1457.9832289396702
aa(lp58
VSub zero
p59
aF1458.399625198011
aa(lp60
VDinozord
p61
aF1458.611308123207
aa(lp62
VMaximum frieza
p63
aF1458.7314997094197
aa(lp64
VTetsuo
p65
aF1461.2629967126743
aa(lp66
VGokussj4d
p67
aF1461.5340139467464
aa(lp68
VNightmare
p69
aF1462.4322456616321
aa(lp70
VAmy
p71
aF1463.403749498708
aa(lp72
VYakui san
p73
aF1464.8851577067524
aa(lp74
VSsj4gohan
p75
aF1466.4124454295686
aa(lp76
VOgitafanada
p77
aF1467.0229712873327
aa(lp78
VHercule gt
p79
aF1467.8818597642532
aa(lp80
VGogeta ssj
p81
aF1468.3984334027084
aa(lp82
VModoi-san
p83
aF1468.4841775017658
aa(lp84
VBlaster
p85
aF1469.3310262717425
aa(lp86
VZidane
p87
aF1469.633393417242
aa(lp88
VCrono
p89
aF1469.7958266491953
aa(lp90
VXanmi chan
p91
aF1470.032349928943
aa(lp92
VSinku
p93
aF1472.4614207287677
aa(lp94
VAnother jissou seki
p95
aF1472.798828879452
aa(lp96
VSparta_heika
p97
aF1473.0980991127246
aa(lp98
VVanilla ice
p99
aF1474.7108509567747
aa(lp100
VBrainiac
p101
aF1474.832259671454
aa(lp102
VYamiyuki
p103
aF1475.6970926596218
aa(lp104
VOmegamon
p105
aF1475.7552895063695
aa(lp106
VThink
p107
aF1475.9998907046654
aa(lp108
V2ban-tan
p109
aF1476.0769041686217
aa(lp110
VX
p111
aF1476.4608683544247
aa(lp112
VMega piccolo
p113
aF1476.8803600622662
aa(lp114
VZemial
p115
aF1477.0878716082066
aa(lp116
VSol
p117
aF1477.393453675925
aa(lp118
VKomepo
p119
aF1477.85251701775
aa(lp120
VChaos
p121
aF1478.228787846793
aa(lp122
VE-102r
p123
aF1478.5044872953495
aa(lp124
VScorpion
p125
aF1479.6175671476576
aa(lp126
VMiyazato erika
p127
aF1480.9852227025394
aa(lp128
VGambit
p129
aF1483.3062869545668
aa(lp130
VWind
p131
aF1483.8141381217008
aa(lp132
VChloe
p133
aF1483.8389935944215
aa(lp134
VAsuta-san
p135
aF1484.6767648377272
aa(lp136
VYoshikage killa
p137
aF1484.957624557118
aa(lp138
VMr.satan
p139
aF1485.3511007164493
aa(lp140
VMega gohan
p141
aF1485.504320535405
aa(lp142
VChipp
p143
aF1485.8079808895184
aa(lp144
VBaiken
p145
aF1486.8382567631297
aa(lp146
VAlucard
p147
aF1487.321294717018
aa(lp148
VSponge bob
p149
aF1487.5481965412037
aa(lp150
VShangtsung
p151
aF1487.5621226033882
aa(lp152
VMagus
p153
aF1487.6340625765804
aa(lp154
VKumao
p155
aF1488.1913652815592
aa(lp156
VBlue ranger
p157
aF1489.178998905892
aa(lp158
VMunch
p159
aF1489.4124770053866
aa(lp160
VAoi-ko
p161
aF1489.5545454514026
aa(lp162
VMarle
p163
aF1489.5684364813983
aa(lp164
VGorunks ssj4
p165
aF1489.7813455060564
aa(lp166
VGoku ssj gt
p167
aF1489.84965384284
aa(lp168
VBabidi
p169
aF1490.4929380209426
aa(lp170
VDrill asamin
p171
aF1491.1839531878827
aa(lp172
VJissou seki
p173
aF1491.519094692435
aa(lp174
VB. magic girl
p175
aF1491.6585946862547
aa(lp176
VPolnareff
p177
aF1491.833273157091
aa(lp178
VHisui&kohaku;
p179
aF1492.3473967630105
aa(lp180
VGarlic junior
p181
aF1492.3907184680475
aa(lp182
VKid gohan
p183
aF1492.7194900392344
aa(lp184
VMotokoaoyama
p185
aF1493.217824539496
aa(lp186
VKnuckles
p187
aF1493.5170915947463
aa(lp188
VSuperboy
p189
aF1493.7095050658309
aa(lp190
VSajin
p191
aF1493.9214250667396
aa(lp192
VNorimaro
p193
aF1494.42651874959
aa(lp194
VBoo
p195
aF1494.667152798355
aa(lp196
VThierry henry
p197
aF1495.0776550042035
aa(lp198
VSango
p199
aF1495.5597902851778
aa(lp200
V2k
p201
aF1495.852721136892
aa(lp202
VKaguya kimimaro
p203
aF1497.0064350313762
aa(lp204
VBaldhead
p205
aF1497.0995486630459
aa(lp206
VEnya
p207
aF1497.5900910386579
aa(lp208
VKanon
p209
aF1497.6184161554331
aa(lp210
VThunder megazord
p211
aF1497.9652656558287
aa(lp212
VTenshinham
p213
aF1498.038161146986
aa(lp214
VNobunaga
p215
aF1498.212791231624
aa(lp216
VGoku normal hd
p217
aF1498.8998460536452
aa(lp218
VMio
p219
aF1499.4577775190182
aa(lp220
VZettaiaku
p221
aF1499.5416269046564
aa(lp222
VJill
p223
aF1499.8977830177987
aa(lp224
VCartman
p225
aF1500.2439469137173
aa(lp226
VAnother iori
p227
aF1500.433359801385
aa(lp228
VGarfield
p229
aF1500.658834554765
aa(lp230
VSimba
p231
aF1500.7430737126624
aa(lp232
VKabal
p233
aF1501.1466647696336
aa(lp234
VVegeta sb1
p235
aF1501.501628732244
aa(lp236
VXp(pro)
p237
aF1501.5253114189522
aa(lp238
VShadir
p239
aF1501.7751796923153
aa(lp240
VChibi ubuu
p241
aF1501.8825912449531
aa(lp242
VBebi vegeta
p243
aF1502.074989284314
aa(lp244
VMariah
p245
aF1502.857629951739
aa(lp246
VMestre kame
p247
aF1503.3878714657217
aa(lp248
VUryuu
p249
aF1503.9289405271345
aa(lp250
VKairi
p251
aF1504.298021382724
aa(lp252
VPiccolo daimaoh
p253
aF1504.7092497528138
aa(lp254
VI-no
p255
aF1505.0823264185133
aa(lp256
VNoroko
p257
aF1505.2449648473246
aa(lp258
VRobo-kyii
p259
aF1505.2891954589143
aa(lp260
VKhan
p261
aF1505.8020886705
aa(lp262
VMega vegeta
p263
aF1505.9176906013397
aa(lp264
VTabasa
p265
aF1506.4017335591177
aa(lp266
VSuper vegeta
p267
aF1506.4799410719074
aa(lp268
VBrimstone
p269
aF1506.5566540158304
aa(lp270
VTakuma.s_xiii
p271
aF1506.6127717887307
aa(lp272
VAbui
p273
aF1506.8663304087186
aa(lp274
VV.akiha
p275
aF1506.9407451096718
aa(lp276
VKakashi
p277
aF1507.0786432868463
aa(lp278
VJohnny
p279
aF1507.502336143264
aa(lp280
VShuh
p281
aF1507.937053385986
aa(lp282
VBishamon
p283
aF1508.1784286283857
aa(lp284
VAlice
p285
aF1508.2560468028698
aa(lp286
VRinfa
p287
aF1508.3007425267792
aa(lp288
VHyper buu
p289
aF1508.3075311786713
aa(lp290
VSimonkin2006
p291
aF1508.3323446158174
aa(lp292
VSakon
p293
aF1508.3984799777884
aa(lp294
VHarpagos
p295
aF1508.763839997504
aa(lp296
VHol horse
p297
aF1509.3813895417384
aa(lp298
VMisery
p299
aF1510.3096687827983
aa(lp300
VInvisible woman
p301
aF1510.5144837429689
aa(lp302
VOre
p303
aF1510.5376111420967
aa(lp304
VHeika
p305
aF1510.9119862355892
aa(lp306
VSnoopy
p307
aF1511.058920737889
aa(lp308
V98
p309
aF1511.177264287845
aa(lp310
VMedoi-san
p311
aF1511.4789344934763
aa(lp312
VRusty
p313
aF1511.7182508784763
aa(lp314
VHads
p315
aF1511.9974016791496
aa(lp316
VAxl
p317
aF1512.228678093514
aa(lp318
VSakura shingouji
p319
aF1512.2401257412114
aa(lp320
VMegazord
p321
aF1512.276138397246
aa(lp322
VGuerrero divino del dragn
p323
aF1512.5569917364808
aa(lp324
VNobuhiko
p325
aF1513.2840473017848
aa(lp326
VLink
p327
aF1513.461738322576
aa(lp328
VRhino
p329
aF1513.5000685995858
aa(lp330
VFreeza 100%
p331
aF1514.0199058522717
aa(lp332
VTayuya
p333
aF1514.4434466592636
aa(lp334
VWinnie the pooh
p335
aF1514.50757766843
aa(lp336
VExocist(dnf)
p337
aF1514.5573385081536
aa(lp338
VGrappler_hiyama
p339
aF1514.5891610249628
aa(lp340
VBlack polnareff
p341
aF1514.9906107547758
aa(lp342
VRock howard
p343
aF1515.4455089991743
aa(lp344
VPachet
p345
aF1515.4507749957793
aa(lp346
VGold warmachine
p347
aF1515.497496478685
aa(lp348
VRose
p349
aF1515.6467625717125
aa(lp350
VJagi
p351
aF1515.9229369091574
aa(lp352
VTakakazu abe
p353
aF1516.2901374695061
aa(lp354
VAthena
p355
aF1516.395149637598
aa(lp356
VRubber soul
p357
aF1516.5482171287708
aa(lp358
VGoku kid
p359
aF1516.6295545071725
aa(lp360
VRecoom
p361
aF1516.6730884916408
aa(lp362
VAndroid 18
p363
aF1516.6991553170878
aa(lp364
VBack beard
p365
aF1516.8974092954038
aa(lp366
VHol 'butt king' funtimes
p367
aF1517.051566276476
aa(lp368
VG-bit
p369
aF1517.1328289323626
aa(lp370
VSuperman
p371
aF1517.2527244879311
aa(lp372
VDevo
p373
aF1517.266092817169
aa(lp374
VShin ryu
p375
aF1517.3844071748586
aa(lp376
V95 no danna
p377
aF1517.5951438911395
aa(lp378
VPizza
p379
aF1517.6226851163858
aa(lp380
VAmiba
p381
aF1518.449085759376
aa(lp382
VBatgirl
p383
aF1518.4611219366354
aa(lp384
VKszsk-shuko
p385
aF1518.556349361103
aa(lp386
VTetuwo
p387
aF1518.8007068397296
aa(lp388
VBrian griffin
p389
aF1518.818023288465
aa(lp390
VKimberly
p391
aF1519.0221517801986
aa(lp392
VThe joker
p393
aF1519.4455679491298
aa(lp394
VGoku db
p395
aF1519.60462738396
aa(lp396
VToki
p397
aF1520.0464321282773
aa(lp398
VBalrog
p399
aF1520.1901245914078
aa(lp400
VDragon guy
p401
aF1520.5240198268893
aa(lp402
VShikamaru
p403
aF1520.9691646775998
aa(lp404
VGuy gardner
p405
aF1521.08599130152
aa(lp406
VSyo hayate
p407
aF1521.1673499379824
aa(lp408
VWolvenom
p409
aF1521.5233507149646
aa(lp410
VHokage
p411
aF1521.5603724680311
aa(lp412
VNaruto
p413
aF1521.6341668490395
aa(lp414
VDabura
p415
aF1522.189265890132
aa(lp416
VCaptain ginyu
p417
aF1522.2017821926077
aa(lp418
VYuki in midday
p419
aF1522.7027128475138
aa(lp420
VMorgiana
p421
aF1522.7326441576902
aa(lp422
VHinata
p423
aF1522.948160623139
aa(lp424
VRayman
p425
aF1523.1668602914158
aa(lp426
V98se
p427
aF1523.17852968432
aa(lp428
VComplete cell
p429
aF1523.5584690425826
aa(lp430
VDark ryu
p431
aF1523.6091025309813
aa(lp432
VDark ash
p433
aF1524.4033095712327
aa(lp434
VTakobue
p435
aF1524.7306246934156
aa(lp436
VKarin kanzuki
p437
aF1524.8303671042565
aa(lp438
VKid gohan ssj1
p439
aF1524.9267256896496
aa(lp440
VLi'l gohan
p441
aF1524.94392398807
aa(lp442
VNeyufeulle
p443
aF1525.1306643402202
aa(lp444
VGobotenn
p445
aF1525.321491558115
aa(lp446
VTen-sing
p447
aF1525.3477296431015
aa(lp448
VPrincess peach
p449
aF1525.478476286017
aa(lp450
VDosu
p451
aF1525.900426266336
aa(lp452
VKoola
p453
aF1525.9598676522967
aa(lp454
VInuzuka kiba
p455
aF1526.2812956690136
aa(lp456
VAngel ryu
p457
aF1526.3389079459882
aa(lp458
VSuper boo
p459
aF1526.4109686278487
aa(lp460
VGoku kaiouken x4
p461
aF1526.4239142706108
aa(lp462
VNightwing
p463
aF1526.5000242644653
aa(lp464
VVenom
p465
aF1526.5494576413987
aa(lp466
VRobert
p467
aF1526.78677325304
aa(lp468
VIno
p469
aF1527.1557333153196
aa(lp470
VFloren
p471
aF1527.3765188971456
aa(lp472
VGoku ssj5
p473
aF1527.4605896264625
aa(lp474
VWhite ranger
p475
aF1527.5319886550963
aa(lp476
VLucca
p477
aF1527.6101183264948
aa(lp478
VMaxima
p479
aF1527.8167587328228
aa(lp480
VFubuki sakuragasaki
p481
aF1528.195715316924
aa(lp482
VA.b.a
p483
aF1528.8607682973472
aa(lp484
VElectro
p485
aF1528.8645653785481
aa(lp486
VChange dragon
p487
aF1529.0649922400294
aa(lp488
VNenaikodareda
p489
aF1529.1788254850903
aa(lp490
VReimi jyahana
p491
aF1529.1837010406934
aa(lp492
VKen & gang
p493
aF1529.5788972558603
aa(lp494
VLion-o
p495
aF1529.6282261719266
aa(lp496
VBojack
p497
aF1529.8365056045109
aa(lp498
VPlastic man
p499
aF1529.8656500516424
aa(lp500
VMr buu
p501
aF1530.0130617439036
aa(lp502
VNanaya
p503
aF1530.3229100009637
aa(lp504
VMickey
p505
aF1530.3747646334568
aa(lp506
VDarkon
p507
aF1530.6442294999288
aa(lp508
VK' xiii
p509
aF1531.2148623084177
aa(lp510
VPolaris
p511
aF1531.3428507142578
aa(lp512
VChill penguin
p513
aF1531.434094876377
aa(lp514
VWarmachine
p515
aF1531.6707590649783
aa(lp516
VRorschach
p517
aF1531.854241128498
aa(lp518
VJoseph the b.b.
p519
aF1531.8885127721974
aa(lp520
VRouga_zanma
p521
aF1532.5634610331304
aa(lp522
VPhoenix
p523
aF1532.5907787245524
aa(lp524
VSatori
p525
aF1533.287591976944
aa(lp526
VS.p.o. ryu
p527
aF1533.3511773109306
aa(lp528
VTimmy turner
p529
aF1533.3777451117205
aa(lp530
VGohan fight money
p531
aF1533.6053550851097
aa(lp532
VTensinhan
p533
aF1533.6984789356934
aa(lp534
VMyon
p535
aF1533.7176038726973
aa(lp536
VMeirin
p537
aF1534.000917816777
aa(lp538
VWildcat
p539
aF1534.0158535741843
aa(lp540
VTerry
p541
aF1534.5991927792375
aa(lp542
VPetshop
p543
aF1534.7374524949464
aa(lp544
VGoten
p545
aF1534.9787149378096
aa(lp546
VDevil_daigo
p547
aF1535.0078871835367
aa(lp548
VGrover
p549
aF1535.3180350701143
aa(lp550
VZero svc
p551
aF1535.5216434467145
aa(lp552
VMystia
p553
aF1535.725242517143
aa(lp554
VPoison
p555
aF1536.1833865272636
aa(lp556
VAnna
p557
aF1536.2125255701906
aa(lp558
VNemesis
p559
aF1536.3143767347074
aa(lp560
VW len ar
p561
aF1536.8766644680318
aa(lp562
VGotenks ssj3
p563
aF1537.0545138717666
aa(lp564
VDodoria
p565
aF1537.069462590901
aa(lp566
VAkane satomura
p567
aF1537.1119603964926
aa(lp568
VSpider girl
p569
aF1537.4800757552139
aa(lp570
VTibigintou
p571
aF1537.4844171208392
aa(lp572
VHe-man
p573
aF1537.632740978803
aa(lp574
VSimonkin2005
p575
aF1537.7458030470534
aa(lp576
VHobgoblin
p577
aF1537.8590350395327
aa(lp578
VRobo-ky
p579
aF1538.0868718011486
aa(lp580
VDark psylocke
p581
aF1538.0877311867025
aa(lp582
VGreat saiyaman
p583
aF1538.096206035683
aa(lp584
VHuman torch
p585
aF1538.3301707804196
aa(lp586
VAlessi
p587
aF1538.3395549132645
aa(lp588
VZarbom
p589
aF1538.4499670244772
aa(lp590
VIkisan
p591
aF1538.7831791455
aa(lp592
VMayko
p593
aF1538.8713427647383
aa(lp594
VPunisher
p595
aF1538.9495227388206
aa(lp596
VRanma saotome
p597
aF1539.287400614801
aa(lp598
VKy
p599
aF1539.653647932591
aa(lp600
VHory marlu
p601
aF1539.7759389008663
aa(lp602
VSanzou_kongoumaru
p603
aF1540.2308509617903
aa(lp604
VGoku pce
p605
aF1540.6889663973177
aa(lp606
VSamurai jack
p607
aF1541.0863752417765
aa(lp608
VSuper sonic
p609
aF1541.2363034318762
aa(lp610
VHigyo-pam
p611
aF1541.4042730186297
aa(lp612
VHulk 2099
p613
aF1541.5255839442473
aa(lp614
VKeine
p615
aF1541.5278678261209
aa(lp616
VBeavis
p617
aF1541.8116061251217
aa(lp618
VPsylocke
p619
aF1541.9616657487368
aa(lp620
VRen_idagawa
p621
aF1542.1199822830451
aa(lp622
VAgito_of_the_dark
p623
aF1542.1248682870166
aa(lp624
VYuri sakazaki
p625
aF1542.336372060274
aa(lp626
VGod ken
p627
aF1542.5013065293379
aa(lp628
VUltimate-gohan
p629
aF1542.7226812751853
aa(lp630
VWhite len
p631
aF1542.7310588109626
aa(lp632
VMai
p633
aF1542.784356153741
aa(lp634
VNanase(+d)&mayu;
p635
aF1542.8953739985698
aa(lp636
VKuroko
p637
aF1543.0353773067743
aa(lp638
VMega goku
p639
aF1543.2940742090584
aa(lp640
VMajin boo
p641
aF1543.5475038551037
aa(lp642
VKanmi chan
p643
aF1543.8618954402575
aa(lp644
VSsj goku
p645
aF1544.0815553553396
aa(lp646
VJuda
p647
aF1544.2918363523
aa(lp648
VEmma frost
p649
aF1544.313222916985
aa(lp650
VTapion
p651
aF1544.7140219246146
aa(lp652
VJotaro kujo
p653
aF1544.7467463303083
aa(lp654
VRuby heart
p655
aF1544.7784301910106
aa(lp656
VMr burns
p657
aF1544.9285509086344
aa(lp658
VArchetype:earth
p659
aF1545.439023597014
aa(lp660
VLord shaolin lee
p661
aF1545.6493899427649
aa(lp662
VYashaoh
p663
aF1545.6671404821257
aa(lp664
VPengintou
p665
aF1545.7138136037165
aa(lp666
VHideo&kyoko;
p667
aF1545.8324836805343
aa(lp668
VAmingo
p669
aF1545.9944329567234
aa(lp670
VLeela
p671
aF1546.1191481336773
aa(lp672
VUzumaki naruto
p673
aF1546.1765620065337
aa(lp674
VGoku sayajin
p675
aF1546.2423448024722
aa(lp676
VJin
p677
aF1546.3356635600858
aa(lp678
VBlanka
p679
aF1546.4906778693542
aa(lp680
VOjisama-chaos
p681
aF1546.5639821341285
aa(lp682
VFireman
p683
aF1547.0078700959368
aa(lp684
VGoku ssj 3
p685
aF1547.0812019501427
aa(lp686
VJustice
p687
aF1547.1646922488135
aa(lp688
VBanshee
p689
aF1547.4395293158002
aa(lp690
VAndromeda
p691
aF1547.523181912282
aa(lp692
VShun
p693
aF1547.8265129249555
aa(lp694
VKino
p695
aF1547.9286093965618
aa(lp696
VRyu hayabusa
p697
aF1547.9705937849499
aa(lp698
VPsychopath kyo
p699
aF1548.00444679665
aa(lp700
VYagumo
p701
aF1548.0067203644198
aa(lp702
VThe nightmare
p703
aF1548.036878077928
aa(lp704
VIchijo akari
p705
aF1548.449231361836
aa(lp706
VKaori&shiori;
p707
aF1548.7664677495736
aa(lp708
VYoh
p709
aF1548.7878137375585
aa(lp710
VSinestro
p711
aF1549.1410900615915
aa(lp712
VWriggle
p713
aF1549.2580132652267
aa(lp714
VZangya
p715
aF1549.3800391407433
aa(lp716
VEddie
p717
aF1549.6430026706605
aa(lp718
VGaara
p719
aF1549.67078294599
aa(lp720
VChris sakurigan
p721
aF1550.3137474615878
aa(lp722
VAndroid 17
p723
aF1550.4920313489183
aa(lp724
VMarco
p725
aF1550.6869151701721
aa(lp726
VSylphie
p727
aF1550.8212303482715
aa(lp728
VLunasa prismriver
p729
aF1550.841162808826
aa(lp730
VBlack.t
p731
aF1551.0910051122341
aa(lp732
VSkull-man
p733
aF1551.1534570665176
aa(lp734
VEiji kisaragi
p735
aF1551.3387031855125
aa(lp736
VMora
p737
aF1551.3576521583498
aa(lp738
VTron bonne
p739
aF1551.433577770234
aa(lp740
VVegeta normal 2
p741
aF1551.6012468089543
aa(lp742
VWar machine
p743
aF1552.0003316662592
aa(lp744
VPeter
p745
aF1552.0400201882208
aa(lp746
VZatanna
p747
aF1552.6537044285565
aa(lp748
VKano
p749
aF1552.7082535665438
aa(lp750
VItachi
p751
aF1552.720971107781
aa(lp752
VLipsyncher
p753
aF1552.8934209799722
aa(lp754
VSsj gohan
p755
aF1553.3011208813832
aa(lp756
VNightmare yamazaki
p757
aF1553.5276235605093
aa(lp758
VFox mccloud
p759
aF1553.5764988581761
aa(lp760
VBig chicken
p761
aF1553.592682025253
aa(lp762
VKang
p763
aF1553.6553498265937
aa(lp764
VViuda negra
p765
aF1553.80257768007
aa(lp766
VChibi goku
p767
aF1554.1107078475588
aa(lp768
VHanny
p769
aF1554.1764015698752
aa(lp770
VUkitake
p771
aF1554.2190673957366
aa(lp772
VKagami kyosuke
p773
aF1554.3274771022845
aa(lp774
VQueen beryl
p775
aF1554.5474622415484
aa(lp776
VPicapiedra
p777
aF1554.7077049523684
aa(lp778
VKikuri
p779
aF1555.0269079042162
aa(lp780
VShin scrub ken
p781
aF1555.075800319647
aa(lp782
VCell genesis
p783
aF1555.23517590504
aa(lp784
VYuri di aaaaaaa
p785
aF1555.2661202359411
aa(lp786
VChouji
p787
aF1555.369752478594
aa(lp788
VRaditz
p789
aF1555.5614774877718
aa(lp790
VHuninki
p791
aF1555.6635670996309
aa(lp792
VKenshiro
p793
aF1555.6789877346375
aa(lp794
VShen
p795
aF1555.827575543151
aa(lp796
VMay
p797
aF1555.9203869701635
aa(lp798
VAtusi
p799
aF1555.9557072878674
aa(lp800
VBra
p801
aF1556.155741435635
aa(lp802
VGoku gt ssj3
p803
aF1556.3470633241059
aa(lp804
VAstroboy
p805
aF1556.5091261199116
aa(lp806
VT.hawk
p807
aF1556.608133381662
aa(lp808
VSilver horns
p809
aF1556.6933713991543
aa(lp810
VTung fu rue
p811
aF1556.724121478574
aa(lp812
VNayuki minase
p813
aF1556.746902251866
aa(lp814
VJiroubou
p815
aF1556.852935620856
aa(lp816
VOjisama
p817
aF1557.1830561767026
aa(lp818
VBurai_yamamoto
p819
aF1557.3102412315793
aa(lp820
VSlayer
p821
aF1557.5034367660005
aa(lp822
VMega and.18
p823
aF1557.606919206446
aa(lp824
VRed tornado
p825
aF1557.6742807945143
aa(lp826
VAsahina mikuru
p827
aF1558.0679519973967
aa(lp828
VJuri
p829
aF1558.0837556533481
aa(lp830
VUesugi kensin
p831
aF1558.2326065456539
aa(lp832
VHaku
p833
aF1558.2603092373092
aa(lp834
VAnji
p835
aF1558.3625849206426
aa(lp836
VMoorhunn
p837
aF1559.3371687195956
aa(lp838
VDaigo
p839
aF1559.9801644174895
aa(lp840
VGohan ssj2
p841
aF1560.10759151616
aa(lp842
VSailor neptune
p843
aF1560.3020513774309
aa(lp844
VMetallo
p845
aF1560.3517595357314
aa(lp846
VSailor moon
p847
aF1560.543611818251
aa(lp848
V20 (dr. gero)
p849
aF1560.9914378944982
aa(lp850
VLord raptor
p851
aF1561.4732942759715
aa(lp852
VPiccolo sb1
p853
aF1561.6392719188163
aa(lp854
VSaya
p855
aF1561.6584270691992
aa(lp856
VDaffy duck
p857
aF1561.9211711394767
aa(lp858
VSongoku-snk/sf
p859
aF1561.9703144926527
aa(lp860
VTewi_inaba
p861
aF1561.9861483954203
aa(lp862
VHeita zinnai
p863
aF1562.167343736395
aa(lp864
VDr gero-and20
p865
aF1562.1868951023714
aa(lp866
VVegetto ex
p867
aF1562.3979527710046
aa(lp868
VMidler
p869
aF1562.4136568667618
aa(lp870
VElena
p871
aF1562.4872806427682
aa(lp872
VVegeta ssj4
p873
aF1562.5451227226936
aa(lp874
VMamizou
p875
aF1562.5623288538993
aa(lp876
V009
p877
aF1562.5739002677606
aa(lp878
VPan
p879
aF1562.9655088423015
aa(lp880
VHeihachi mishima
p881
aF1562.9789072990354
aa(lp882
VHenri
p883
aF1563.0450040800897
aa(lp884
VGreat gohan
p885
aF1563.0468222325562
aa(lp886
VHirasawa_yui
p887
aF1563.4571287367066
aa(lp888
VNue houjuu
p889
aF1563.5507594527446
aa(lp890
VTyouunn-shiryu
p891
aF1563.6510128118753
aa(lp892
VYamcha
p893
aF1563.9419012739356
aa(lp894
VSinki
p895
aF1564.2114315507295
aa(lp896
VReisen
p897
aF1564.2241404104627
aa(lp898
VAntman
p899
aF1564.2550715640634
aa(lp900
VMr. bison
p901
aF1564.4282672268014
aa(lp902
VSion_tatari
p903
aF1564.7845538290617
aa(lp904
VNitori
p905
aF1564.91479797405
aa(lp906
VPredator
p907
aF1565.0146340623858
aa(lp908
VSasuke
p909
aF1565.4789863664973
aa(lp910
VElongated man
p911
aF1565.8022765200478
aa(lp912
VMonky d luffy
p913
aF1565.854846954242
aa(lp914
VHaruno sakura
p915
aF1565.9136419450358
aa(lp916
VZabuza
p917
aF1565.9926933720963
aa(lp918
VRuili
p919
aF1566.2356363650854
aa(lp920
VOmega red
p921
aF1566.2568953962866
aa(lp922
VIbuki
p923
aF1566.6808903425313
aa(lp924
VHavok
p925
aF1567.4353835070847
aa(lp926
VChise
p927
aF1567.451340807892
aa(lp928
VGray fly
p929
aF1567.4707701710809
aa(lp930
VLetty whiterock
p931
aF1567.5738869179227
aa(lp932
VGuile
p933
aF1567.6114601168065
aa(lp934
VBlaziken
p935
aF1567.7221846500372
aa(lp936
VKosmos
p937
aF1567.7331900404406
aa(lp938
VMurasa
p939
aF1567.813331258315
aa(lp940
VBilly_xiii
p941
aF1567.861079892107
aa(lp942
VKaio shin
p943
aF1568.0152005054547
aa(lp944
VFoxy
p945
aF1568.0204885814512
aa(lp946
VGundam heavy arms
p947
aF1568.0515501158457
aa(lp948
VManbou
p949
aF1568.0684356539296
aa(lp950
VTemari
p951
aF1568.522939449079
aa(lp952
VAquaman
p953
aF1568.572135419023
aa(lp954
VP-gohan ssj2
p955
aF1568.5740041914232
aa(lp956
VAvdol ver 2001/01/30 by camrat
p957
aF1568.603948763866
aa(lp958
VDudley
p959
aF1568.6045939882522
aa(lp960
VVegeta ultra ssj
p961
aF1568.7273089435537
aa(lp962
VYuki
p963
aF1568.883556379718
aa(lp964
VKyo 71113
p965
aF1568.9664853373192
aa(lp966
VElastigirl
p967
aF1569.052332747741
aa(lp968
VInspector gadget
p969
aF1569.8232903125836
aa(lp970
VGogeta ssj4
p971
aF1569.9044722340675
aa(lp972
VTrevor spacer
p973
aF1569.9834113832233
aa(lp974
VAeris ;or if you prefer, use aerith
p975
aF1570.1468143561726
aa(lp976
VM.bison
p977
aF1570.3538832591175
aa(lp978
VKyo kusanagi
p979
aF1570.4355659905032
aa(lp980
VSsjgoku
p981
aF1570.6016735738776
aa(lp982
VSanae
p983
aF1570.6495833815661
aa(lp984
VLelouch
p985
aF1570.9288374448925
aa(lp986
VKenshirou
p987
aF1570.9885575396486
aa(lp988
VMega lilde
p989
aF1571.480028438212
aa(lp990
VAraki runa
p991
aF1571.5428798427793
aa(lp992
VShe-hulk
p993
aF1571.969933024907
aa(lp994
VRobert garcia
p995
aF1572.1539537047545
aa(lp996
VKyouko
p997
aF1572.5762256508435
aa(lp998
VMomizi
p999
aF1572.615115401072
aa(lp1000
VStarfire
p1001
aF1572.6258522003227
aa(lp1002
VTrunks ssj4
p1003
aF1572.7836716179754
aa(lp1004
VChichi
p1005
aF1572.8144496427597
aa(lp1006
VChibi trunks
p1007
aF1573.0472230977473
aa(lp1008
VIori yagami
p1009
aF1573.4886093328084
aa(lp1010
VYatogi tetsu
p1011
aF1573.5042252700184
aa(lp1012
VLupin the 3rd
p1013
aF1573.5357449855649
aa(lp1014
VElecman
p1015
aF1573.5919450580113
aa(lp1016
VKogasa
p1017
aF1573.8511309627102
aa(lp1018
VShadow vegeta
p1019
aF1574.0890856840433
aa(lp1020
VMokou
p1021
aF1574.1079566291462
aa(lp1022
VYuugi
p1023
aF1574.1597489576661
aa(lp1024
VDodgers
p1025
aF1574.4276980829247
aa(lp1026
VBomber man
p1027
aF1574.4975132750058
aa(lp1028
VKyon
p1029
aF1574.6536613286444
aa(lp1030
VSora
p1031
aF1574.7948950100965
aa(lp1032
VCrashman
p1033
aF1574.8654799590765
aa(lp1034
VJudgement
p1035
aF1575.0269279085414
aa(lp1036
VSkeletor
p1037
aF1575.5475177714932
aa(lp1038
VSilver samurai
p1039
aF1575.6144935240457
aa(lp1040
VTeam nicktoon
p1041
aF1575.639926795758
aa(lp1042
VKingpin
p1043
aF1575.7053074704354
aa(lp1044
VFrog
p1045
aF1575.72346075468
aa(lp1046
VGreen goblin
p1047
aF1575.873256435303
aa(lp1048
VBootleg ryu
p1049
aF1576.1911262051565
aa(lp1050
VSephiroth
p1051
aF1576.6557923069556
aa(lp1052
VMegaman.exe
p1053
aF1576.6620056628615
aa(lp1054
VBlockhead
p1055
aF1576.6818913577154
aa(lp1056
VTrunks sb1
p1057
aF1576.7392018071266
aa(lp1058
VBlack ranger
p1059
aF1576.828404572393
aa(lp1060
VKarnov
p1061
aF1576.8960154737238
aa(lp1062
VD-rugal
p1063
aF1576.9376721350845
aa(lp1064
VTails
p1065
aF1577.0539957701849
aa(lp1066
VKunagi_tenrou
p1067
aF1577.0847986051456
aa(lp1068
VMaster chief
p1069
aF1577.2010837761948
aa(lp1070
VNeji
p1071
aF1577.218229579827
aa(lp1072
VKaren na hito
p1073
aF1577.308247087551
aa(lp1074
VPrince vegeta
p1075
aF1577.5839751893743
aa(lp1076
VKing
p1077
aF1577.6966830022313
aa(lp1078
VPrincess Peach
p1079
aF1577.8167441332198
aa(lp1080
VShino
p1081
aF1577.8861491182572
aa(lp1082
VTara-gyouza
p1083
aF1577.9140552858114
aa(lp1084
VGurocure
p1085
aF1577.9319081604988
aa(lp1086
VMr Satan
p1087
aF1578.0220021916712
aa(lp1088
VSaibaman
p1089
aF1578.2569987633065
aa(lp1090
VToramaru syou
p1091
aF1578.2908434410538
aa(lp1092
VNate summers
p1093
aF1578.3937857295894
aa(lp1094
VNoriaki kakyoin
p1095
aF1578.5154168487973
aa(lp1096
VGreen ranger
p1097
aF1578.5766476180356
aa(lp1098
VNormal chibi trunks
p1099
aF1578.9758402007453
aa(lp1100
VPicurin
p1101
aF1579.4564348634156
aa(lp1102
VKaede
p1103
aF1579.4860281912656
aa(lp1104
VSuwako moriya
p1105
aF1579.5727506931996
aa(lp1106
VMako
p1107
aF1579.747723899024
aa(lp1108
VLeonardo
p1109
aF1579.9501519011365
aa(lp1110
VFio
p1111
aF1580.1279458155198
aa(lp1112
VTiger
p1113
aF1580.4437937744979
aa(lp1114
VMekazawa
p1115
aF1580.7832937854403
aa(lp1116
VSpider-man 2099
p1117
aF1581.0695785238747
aa(lp1118
VZero
p1119
aF1581.1602643148956
aa(lp1120
VDeath maul
p1121
aF1581.2316529474856
aa(lp1122
VMr. increible
p1123
aF1581.4386924577668
aa(lp1124
VSpenoza
p1125
aF1581.5058906698564
aa(lp1126
VLee
p1127
aF1582.0832453488767
aa(lp1128
VBenimaru_xiii
p1129
aF1582.4835051349112
aa(lp1130
VSaba
p1131
aF1582.954868572892
aa(lp1132
VDee jay
p1133
aF1583.1556329338184
aa(lp1134
VPsycho weapon
p1135
aF1583.236338143741
aa(lp1136
VReimu
p1137
aF1583.3422555087745
aa(lp1138
VGohan school
p1139
aF1583.6467243157238
aa(lp1140
VScarlet witch
p1141
aF1583.7124759624187
aa(lp1142
VHagen
p1143
aF1583.7316034303149
aa(lp1144
VGreat sayaman
p1145
aF1583.8686632305366
aa(lp1146
VSpiderman 2099
p1147
aF1584.0045369316351
aa(lp1148
VButtercup
p1149
aF1584.0457624090845
aa(lp1150
VChrisg sakurigan
p1151
aF1584.1368482571152
aa(lp1152
VVegettossj3
p1153
aF1584.2371514094743
aa(lp1154
VFreeza 1st form
p1155
aF1584.5295915346555
aa(lp1156
VSpelunker
p1157
aF1584.5765004560446
aa(lp1158
VGohan gt
p1159
aF1584.581772898278
aa(lp1160
VTokiko
p1161
aF1584.6102851193634
aa(lp1162
VNormal sword trunks
p1163
aF1584.7025389619591
aa(lp1164
VCharizard
p1165
aF1584.7244651641674
aa(lp1166
VDocOck
p1167
aF1584.7467893092917
aa(lp1168
VTakakazu Abe
p1169
aF1584.7483049961086
aa(lp1170
VGhetto Warmachine
p1171
aF1584.7496892928036
aa(lp1172
VSuper Buu
p1173
aF1584.7537051982956
aa(lp1174
VSpopovich
p1175
aF1584.7556274349154
aa(lp1176
VMike Tyson
p1177
aF1584.7664021499313
aa(lp1178
VNick fury
p1179
aF1584.7936910508483
aa(lp1180
VTest a.i.
p1181
aF1584.8064784640237
aa(lp1182
VBrian Griffin
p1183
aF1584.911992986214
aa(lp1184
VArthur
p1185
aF1584.9180434931657
aa(lp1186
VBardock
p1187
aF1584.950406791646
aa(lp1188
VEiji Kisaragi
p1189
aF1585.0813585727308
aa(lp1190
VHwa jai
p1191
aF1585.1180389565502
aa(lp1192
VAirman
p1193
aF1585.2072305341226
aa(lp1194
VTurles
p1195
aF1585.2503686614048
aa(lp1196
VKid Gohan
p1197
aF1585.2936763096725
aa(lp1198
VBoulma
p1199
aF1585.4187204125808
aa(lp1200
VLesty
p1201
aF1585.4212041025391
aa(lp1202
VMetal Man
p1203
aF1585.4425149153049
aa(lp1204
VGreen lantern js
p1205
aF1585.6135573835363
aa(lp1206
VAndy_xiii
p1207
aF1585.7399953543015
aa(lp1208
VShadowcat
p1209
aF1585.935473195505
aa(lp1210
VGuldo
p1211
aF1586.0284573835038
aa(lp1212
VBebi vegeta form 1
p1213
aF1586.0369011113385
aa(lp1214
VChris
p1215
aF1586.3677478960792
aa(lp1216
VJeice
p1217
aF1586.659408081166
aa(lp1218
VBattlemage_[dnf]
p1219
aF1586.6699386183946
aa(lp1220
VLizardman
p1221
aF1586.6977025945143
aa(lp1222
VSon trunks
p1223
aF1586.806638561189
aa(lp1224
VRaoh
p1225
aF1586.8697995348637
aa(lp1226
VSupergirl
p1227
aF1586.9332319529035
aa(lp1228
VPegasus di fuoco
p1229
aF1587.1083233762556
aa(lp1230
VAlice margatroid
p1231
aF1587.5572762570557
aa(lp1232
VSpawn
p1233
aF1587.670471791861
aa(lp1234
VBizarro
p1235
aF1588.1255187851953
aa(lp1236
VChiaotzu
p1237
aF1588.2344975317824
aa(lp1238
VPepe
p1239
aF1588.262339799902
aa(lp1240
VSuper #13
p1241
aF1588.3476867142354
aa(lp1242
VVidel
p1243
aF1588.4021840287546
aa(lp1244
VZantetsu
p1245
aF1589.1430447292128
aa(lp1246
VKiller Whale
p1247
aF1589.150792021785
aa(lp1248
VLi sheng long
p1249
aF1589.18929704368
aa(lp1250
VMorfo
p1251
aF1589.3173916625497
aa(lp1252
VMeta-knight
p1253
aF1589.7072961353713
aa(lp1254
VPotemkin
p1255
aF1589.9017462789955
aa(lp1256
VBeast
p1257
aF1590.8574137900068
aa(lp1258
VVicViper
p1259
aF1591.3025551989574
aa(lp1260
VFei-long
p1261
aF1591.5509785175466
aa(lp1262
VAsh
p1263
aF1591.6526863119236
aa(lp1264
VBlack Polnareff
p1265
aF1591.8117804123644
aa(lp1266
VYakui San
p1267
aF1591.8250675261702
aa(lp1268
VOjisama-Chaos
p1269
aF1591.8250675261702
aa(lp1270
VUzumaki Naruto
p1271
aF1591.837289183114
aa(lp1272
VGundam Heavy Arms
p1273
aF1591.8428175711974
aa(lp1274
VPopeye
p1275
aF1591.933040904085
aa(lp1276
VAdon
p1277
aF1592.0440167868442
aa(lp1278
VRock Howard
p1279
aF1592.0444915518758
aa(lp1280
VYuriesbyfe
p1281
aF1592.068067959724
aa(lp1282
VVoigil
p1283
aF1592.1846218042353
aa(lp1284
VMech Gouki
p1285
aF1592.193415553329
aa(lp1286
VYuri Di AAAAAA
p1287
aF1592.2064913248219
aa(lp1288
VDr Gero and 20
p1289
aF1592.2116549273721
aa(lp1290
VParsee
p1291
aF1592.227020976981
aa(lp1292
VPitt
p1293
aF1592.3475089404512
aa(lp1294
VBlack Adam
p1295
aF1592.348262935135
aa(lp1296
VNormal trunks
p1297
aF1592.352373130004
aa(lp1298
VChibi gohan nex
p1299
aF1592.353959383624
aa(lp1300
VHomer
p1301
aF1592.3559537257406
aa(lp1302
VHydra
p1303
aF1592.3646733765163
aa(lp1304
VSuper Vegeta
p1305
aF1592.4015679822148
aa(lp1306
VMr Bison
p1307
aF1592.4015679822148
aa(lp1308
VJin Kazama
p1309
aF1592.4015679822148
aa(lp1310
V*Nanaya
p1311
aF1592.4015679822148
aa(lp1312
VXP Pro
p1313
aF1592.4015679822148
aa(lp1314
VLady Deathstrike
p1315
aF1592.4015679822148
aa(lp1316
VFat Albert
p1317
aF1592.4015679822148
aa(lp1318
VMr Karate
p1319
aF1592.4015679822148
aa(lp1320
VTara Gyouza
p1321
aF1592.4015679822148
aa(lp1322
VHercule GT
p1323
aF1592.4015679822148
aa(lp1324
VKarin Kanzuki
p1325
aF1592.4015679822148
aa(lp1326
VPhobos
p1327
aF1592.4646624281759
aa(lp1328
VSamurai Jack
p1329
aF1592.5284836087883
aa(lp1330
VSSJ Goku
p1331
aF1592.5357917683389
aa(lp1332
VSonGoku SNK SF
p1333
aF1592.5451085393909
aa(lp1334
VDr Doom
p1335
aF1592.575868374993
aa(lp1336
VWindows ME
p1337
aF1592.575868374993
aa(lp1338
VSentry
p1339
aF1592.6565802497703
aa(lp1340
VPiccolo Daimaoh
p1341
aF1592.7254468550007
aa(lp1342
VHina
p1343
aF1592.8938764186632
aa(lp1344
V20 Dr. Gero
p1345
aF1592.9325843771649
aa(lp1346
VGotenks
p1347
aF1592.956393787965
aa(lp1348
VNeco chaos
p1349
aF1593.1034460953363
aa(lp1350
VKoopa Troopa
p1351
aF1593.1119236937702
aa(lp1352
VJanemba
p1353
aF1593.287135096232
aa(lp1354
VSyo Hayate
p1355
aF1593.4210535034085
aa(lp1356
VGill
p1357
aF1593.4339438279585
aa(lp1358
VCyborg + Chaos
p1359
aF1593.454130238799
aa(lp1360
VHal jordan
p1361
aF1593.5952357737974
aa(lp1362
VGold Warmachine
p1363
aF1593.6060131927659
aa(lp1364
VZeroko
p1365
aF1593.6444986508322
aa(lp1366
VMs. Fanservice
p1367
aF1593.6808208252655
aa(lp1368
VBaitang
p1369
aF1593.7927586582543
aa(lp1370
VSalty goku
p1371
aF1593.8420847833202
aa(lp1372
VNamek gohan
p1373
aF1593.8721493526969
aa(lp1374
VCaptain marvell
p1375
aF1594.6389841144683
aa(lp1376
VCell jr
p1377
aF1594.741220096043
aa(lp1378
VGlacius
p1379
aF1595.1900875683127
aa(lp1380
VProtoman
p1381
aF1595.8605965810175
aa(lp1382
VIchigo
p1383
aF1595.943312739291
aa(lp1384
VBulleta
p1385
aF1596.0008984418002
aa(lp1386
VFlash
p1387
aF1596.0103553360855
aa(lp1388
VVictor
p1389
aF1596.4356473852094
aa(lp1390
VBaby commando
p1391
aF1596.8878455256472
aa(lp1392
VOozaru
p1393
aF1596.9103705151463
aa(lp1394
VWario
p1395
aF1597.6369405685089
aa(lp1396
VWing zero
p1397
aF1597.7644039024847
aa(lp1398
VGato
p1399
aF1598.0199639367179
aa(lp1400
VTifa lockhart
p1401
aF1598.1502022556767
aa(lp1402
VGajeel
p1403
aF1598.6917831711507
aa(lp1404
VZangief
p1405
aF1598.735229226978
aa(lp1406
VZangia
p1407
aF1598.7707082544616
aa(lp1408
VGoku gt
p1409
aF1599.0146439315533
aa(lp1410
VDespero
p1411
aF1599.0170070908987
aa(lp1412
VLord ravenous
p1413
aF1599.0652906981022
aa(lp1414
VMakoto
p1415
aF1599.5147964496575
aa(lp1416
VKisume
p1417
aF1599.6089074451454
aa(lp1418
VSailor Jupiter
p1419
aF1599.6606887652158
aa(lp1420
VLou
p1421
aF1599.748953845936
aa(lp1422
VNeodio
p1423
aF1599.9361293601742
aa(lp1424
VErza
p1425
aF1599.9422176989683
aa(lp1426
VVegeta SSJ3
p1427
aF1599.9963547092923
aa(lp1428
VGod Ken
p1429
aI1600
aa(lp1430
VVegeta Ultra SSJ
p1431
aI1600
aa(lp1432
V*Marco
p1433
aI1600
aa(lp1434
V*Orione
p1435
aI1600
aa(lp1436
VBender
p1437
aI1600
aa(lp1438
VGotenks SSJ
p1439
aI1600
aa(lp1440
VSSJ4Gohan
p1441
aI1600
aa(lp1442
V*Bane
p1443
aI1600
aa(lp1444
VLord Ravenous
p1445
aI1600
aa(lp1446
VVegetto EX
p1447
aI1600
aa(lp1448
VCatwalk
p1449
aI1600
aa(lp1450
V*The Joker
p1451
aI1600
aa(lp1452
VGogeta SSJ2
p1453
aI1600
aa(lp1454
V*Beast
p1455
aI1600
aa(lp1456
VTest2
p1457
aI1600
aa(lp1458
VTest4
p1459
aI1600
aa(lp1460
Vpizza\u005cpizza.def
p1461
aI1600
aa(lp1462
VJones
p1463
aI1600
aa(lp1464
VHigh Dio
p1465
aI1600
aa(lp1466
VA.B.A.
p1467
aI1600
aa(lp1468
VTao Jun
p1469
aI1600
aa(lp1470
VKaren Na Hito
p1471
aI1600
aa(lp1472
Vgill\u005cgill.def
p1473
aI1600
aa(lp1474
VRuby Heart
p1475
aI1600
aa(lp1476
VTrunks SB1
p1477
aI1600
aa(lp1478
VNeo-arc Chaos
p1479
aI1600
aa(lp1480
VDunbai san
p1481
aI1600
aa(lp1482
VDeathOgre + GhettoWar
p1483
aI1600
aa(lp1484
V*Spiral
p1485
aI1600
aa(lp1486
VGoku Vegeta
p1487
aI1600
aa(lp1488
VKazuya
p1489
aI1600
aa(lp1490
VNate Summers
p1491
aI1600
aa(lp1492
VDio Di Musca
p1493
aI1600
aa(lp1494
VGoku DB
p1495
aI1600
aa(lp1496
V*Superman
p1497
aI1600
aa(lp1498
VVic Viper
p1499
aI1600
aa(lp1500
VRorscach
p1501
aI1600
aa(lp1502
VGreen Lantern GG
p1503
aI1600
aa(lp1504
VSolid Snake
p1505
aI1600
aa(lp1506
VCream
p1507
aI1600
aa(lp1508
VSuper Skrull
p1509
aI1600
aa(lp1510
VSSJ3 Goku
p1511
aI1600
aa(lp1512
VWaha
p1513
aI1600
aa(lp1514
VTung Fu Rue
p1515
aI1600
aa(lp1516
VMinikata Moriya
p1517
aI1600
aa(lp1518
V*Geese
p1519
aI1600
aa(lp1520
VMega Piccolo
p1521
aI1600
aa(lp1522
V*Pegasus Di Fuoco
p1523
aI1600
aa(lp1524
VAraki Runa
p1525
aI1600
aa(lp1526
VThierry Henry
p1527
aI1600
aa(lp1528
VDeath Maul
p1529
aI1600
aa(lp1530
VSadclaps x2
p1531
aI1600
aa(lp1532
VChizuru Kagura
p1533
aI1600
aa(lp1534
VShuma Gorath
p1535
aI1600
aa(lp1536
V*Hydra
p1537
aI1600
aa(lp1538
VChill Penguin
p1539
aI1600
aa(lp1540
V98SE
p1541
aI1600
aa(lp1542
VChibi Goku
p1543
aI1600
aa(lp1544
VGoku SB1
p1545
aI1600
aa(lp1546
VSpider Girl
p1547
aI1600
aa(lp1548
VVegetto
p1549
aI1600
aa(lp1550
VGogeta SSJ
p1551
aI1600
aa(lp1552
VLord Raptor
p1553
aI1600
aa(lp1554
VDark Ryu
p1555
aI1600
aa(lp1556
VBulma
p1557
aI1600
aa(lp1558
VSSJGoku
p1559
aI1600
aa(lp1560
VReimi Jyahana
p1561
aI1600
aa(lp1562
VMega Vegeta
p1563
aI1600
aa(lp1564
VGreat S Man
p1565
aI1600
aa(lp1566
Vgohanex\u005cgohanex.def
p1567
aI1600
aa(lp1568
V*Piccolo Daimaoh
p1569
aI1600
aa(lp1570
VMega Lilde
p1571
aI1600
aa(lp1572
VVegeta Normal 3
p1573
aI1600
aa(lp1574
VYoshikage Killa
p1575
aI1600
aa(lp1576
VMega Gohan
p1577
aI1600
aa(lp1578
VLord Shaolin Lee
p1579
aI1600
aa(lp1580
VPiccolo SB1
p1581
aI1600
aa(lp1582
Vu
p1583
aI1600
aa(lp1584
VShin Gouki
p1585
aI1600
aa(lp1586
V*Super Vegeta
p1587
aI1600
aa(lp1588
VHuman Torch
p1589
aI1600
aa(lp1590
VRamon and Daimon 71113
p1591
aI1600
aa(lp1592
VComplete Cell
p1593
aI1600
aa(lp1594
V*Yuki
p1595
aI1600
aa(lp1596
VChaotzu
p1597
aI1600
aa(lp1598
VGreat Saiyaman
p1599
aI1600
aa(lp1600
VShang Tsung
p1601
aI1600
aa(lp1602
VOpera Elmer
p1603
aI1600
aa(lp1604
VMestre Kame
p1605
aI1600
aa(lp1606
VGoku GT SSJ3
p1607
aI1600
aa(lp1608
VS-kyo + Holy Ken
p1609
aI1600
aa(lp1610
VE-102R
p1611
aI1600
aa(lp1612
VHisui&Kohaku;
p1613
aI1600
aa(lp1614
VGohan Zeta
p1615
aI1600
aa(lp1616
VInuzuma Kiba
p1617
aI1600
aa(lp1618
VVenon
p1619
aI1600
aa(lp1620
VAnother Jissou Seki
p1621
aI1600
aa(lp1622
VYayoi
p1623
aI1600
aa(lp1624
V*Predator
p1625
aI1600
aa(lp1626
VVegeta Normal 2
p1627
aI1600
aa(lp1628
VGohan School
p1629
aI1600
aa(lp1630
V*Vanilla Ice
p1631
aI1600
aa(lp1632
VGoku SSJ4
p1633
aI1600
aa(lp1634
VGoku SSJ2
p1635
aI1600
aa(lp1636
VTrevor Spacer
p1637
aI1600
aa(lp1638
VFreeza 1st Form
p1639
aI1600
aa(lp1640
VKara Na Hito
p1641
aI1600
aa(lp1642
VCaptain Ginyu
p1643
aI1600
aa(lp1644
VCell Genesis
p1645
aI1600
aa(lp1646
VCaptan Ginew
p1647
aI1600
aa(lp1648
VResume before 12:55am
p1649
aI1600
aa(lp1650
V*Cammy
p1651
aI1600
aa(lp1652
V*Punisher
p1653
aI1600
aa(lp1654
VSailor Venus
p1655
aI1600
aa(lp1656
VSpelunker Sensei
p1657
aI1600
aa(lp1658
VGray Fly 1
p1659
aI1600
aa(lp1660
VSuper Boo
p1661
aI1600
aa(lp1662
VClaps + Uppercut
p1663
aI1600
aa(lp1664
VSailor Moon
p1665
aI1600
aa(lp1666
V95 No Danna
p1667
aI1600
aa(lp1668
VBra 1
p1669
aI1600
aa(lp1670
V*Emma Frost
p1671
aI1600
aa(lp1672
VInvisible Woman
p1673
aI1600
aa(lp1674
VVegeth SSJ2
p1675
aI1600
aa(lp1676
V*Mr. Fantastic
p1677
aI1600
aa(lp1678
VVanilla Ice
p1679
aI1600
aa(lp1680
V*Airman
p1681
aI1600
aa(lp1682
VMega And 18
p1683
aI1600
aa(lp1684
VGotenks SSJ3
p1685
aI1600
aa(lp1686
VLion-O
p1687
aI1600
aa(lp1688
VHel Lauren
p1689
aI1600
aa(lp1690
V2Ban-tan
p1691
aI1600
aa(lp1692
VGoku SSJ 3
p1693
aI1600
aa(lp1694
VButthead
p1695
aI1600
aa(lp1696
V*Human Torch
p1697
aI1600
aa(lp1698
VRubber Soul
p1699
aI1600
aa(lp1700
VYellow devil;<-- replace with name to display
p1701
aI1600
aa(lp1702
VSailor Mercury
p1703
aI1600
aa(lp1704
VShadowman CFAS
p1705
aI1600
aa(lp1706
VMega Goku
p1707
aI1600
aa(lp1708
VGinew 2
p1709
aI1600
aa(lp1710
VCell Junior
p1711
aI1600
aa(lp1712
VNate
p1713
aI1600
aa(lp1714
VBack Beard
p1715
aI1600
aa(lp1716
VPetShop
p1717
aF1600.0369792869265
aa(lp1718
VAlter Amiba
p1719
aF1600.0459648911892
aa(lp1720
VNega Joe
p1721
aF1600.2338890315925
aa(lp1722
VNeco-arc chaos
p1723
aF1600.2492410209977
aa(lp1724
VYoutube poop robotnik
p1725
aF1600.299315501815
aa(lp1726
VUtsuho reiuji
p1727
aF1600.3229599080703
aa(lp1728
VChibi Gohan Nex
p1729
aF1600.365495233884
aa(lp1730
VP Chunli
p1731
aF1600.3919626885329
aa(lp1732
VGohan SSJ2
p1733
aF1600.4065551773742
aa(lp1734
VAnother Iori
p1735
aF1600.4322789462449
aa(lp1736
VHol Horse
p1737
aF1600.5674798752502
aa(lp1738
VQuicksilver
p1739
aF1600.6171246044553
aa(lp1740
VTron Bonne
p1741
aF1600.7246279244762
aa(lp1742
VWar Machine
p1743
aF1600.9073643568506
aa(lp1744
VMultiple Man
p1745
aF1600.9344475545386
aa(lp1746
VKujo jotaro
p1747
aF1601.1021108740783
aa(lp1748
VMars people
p1749
aF1601.1727513587336
aa(lp1750
VSad Claps
p1751
aF1601.4519163129585
aa(lp1752
VNanaya Shiki
p1753
aF1601.4545454545455
aa(lp1754
VBaby Commando
p1755
aF1601.4545454545455
aa(lp1756
VYusuke
p1757
aF1601.4545454545455
aa(lp1758
VSakura Shingouji
p1759
aF1601.4545454545455
aa(lp1760
VEmerl
p1761
aF1601.5621427663011
aa(lp1762
VDragon Guy
p1763
aF1601.5656440710568
aa(lp1764
VDeath13
p1765
aF1601.7129332995191
aa(lp1766
VYumi
p1767
aF1601.9089499213667
aa(lp1768
VVenom Scorpion
p1769
aF1601.9322634686798
aa(lp1770
VUnknown
p1771
aF1601.9851718711739
aa(lp1772
VMarvel spider-man
p1773
aF1601.9896762266305
aa(lp1774
VButt-head
p1775
aF1602.0475232791625
aa(lp1776
VEri_hasumi
p1777
aF1602.143579492096
aa(lp1778
VVegeta
p1779
aF1602.4460114159524
aa(lp1780
VSsj4 goten
p1781
aF1602.551963560567
aa(lp1782
VNamor
p1783
aF1602.738471697913
aa(lp1784
VDoparmin
p1785
aF1602.8212261607503
aa(lp1786
VNanaya shiki
p1787
aF1603.061954884584
aa(lp1788
VMaster Sakura
p1789
aF1603.1386666599424
aa(lp1790
VChaka
p1791
aF1603.1972590753876
aa(lp1792
VObsidian
p1793
aF1603.2562794590524
aa(lp1794
VLuigi
p1795
aF1603.3669008440284
aa(lp1796
VAstaroth
p1797
aF1603.4785431406435
aa(lp1798
VUltraman
p1799
aF1603.5930511676854
aa(lp1800
VStorm
p1801
aF1603.8879862910037
aa(lp1802
VAnother kyo
p1803
aF1603.9103841003835
aa(lp1804
VGotenks ssj
p1805
aF1604.2231529836993
aa(lp1806
VDonatello
p1807
aF1604.445056981925
aa(lp1808
VHawkman
p1809
aF1604.6897886873408
aa(lp1810
VKen
p1811
aF1604.7977131259725
aa(lp1812
VSalty and Zeroko
p1813
aF1604.9905890631042
aa(lp1814
VFat albert
p1815
aF1605.5435550784687
aa(lp1816
VFirestar
p1817
aF1605.5663291536314
aa(lp1818
VThanoseid
p1819
aF1605.8838011402918
aa(lp1820
VRimururu
p1821
aF1605.931965905632
aa(lp1822
VMinakata moriya
p1823
aF1606.0716601975066
aa(lp1824
VJason todd
p1825
aF1606.0994698238233
aa(lp1826
VMr. x
p1827
aF1606.1197774645507
aa(lp1828
VSagat
p1829
aF1606.6800319466122
aa(lp1830
VIwao
p1831
aF1606.708501664458
aa(lp1832
VGogeta SSJ4
p1833
aF1606.9352873698786
aa(lp1834
VGoku GT
p1835
aF1607.110288700279
aa(lp1836
VVulture
p1837
aF1607.2399551770459
aa(lp1838
VAngel Ryu
p1839
aF1607.4532270674206
aa(lp1840
VBartman
p1841
aF1607.4614551689324
aa(lp1842
VPrime sentinels
p1843
aF1607.4865099788829
aa(lp1844
VShin mr. karate
p1845
aF1607.52262944644
aa(lp1846
VM-Vegeta SSJ3
p1847
aF1607.6407689140294
aa(lp1848
VJoe Higashi
p1849
aF1607.645093904122
aa(lp1850
VGuile Machine
p1851
aF1607.6490073176449
aa(lp1852
VOmega Tom Hanks
p1853
aF1607.6490073176449
aa(lp1854
VYatogi Tetsu
p1855
aF1607.6566965529134
aa(lp1856
VShiki Tohno
p1857
aF1607.6619385207498
aa(lp1858
VGoku kid_ssj
p1859
aF1607.7397838684847
aa(lp1860
VAndroide 18
p1861
aF1607.7561329991647
aa(lp1862
VCell (2 forma)
p1863
aF1607.7564863324126
aa(lp1864
VP-Gohan SSJ2
p1865
aF1607.8161183523405
aa(lp1866
VSlash
p1867
aF1607.8250675261702
aa(lp1868
VGiygas
p1869
aF1607.8288804843507
aa(lp1870
VChosu
p1871
aF1607.8330298350645
aa(lp1872
VBastion
p1873
aF1607.8330298350645
aa(lp1874
VVegeta SSJ4
p1875
aF1607.8330298350645
aa(lp1876
VMai_K
p1877
aF1607.8866416441585
aa(lp1878
VAnnie Murakami
p1879
aF1607.9965126642105
aa(lp1880
VYellow-Pipo
p1881
aF1608.000851479545
aa(lp1882
VArmored Gohan
p1883
aF1608.023792313902
aa(lp1884
VMajin Buu
p1885
aF1608.027950194659
aa(lp1886
VChun Lee Dark Bolt
p1887
aF1608.033491951137
aa(lp1888
VShadow Man
p1889
aF1608.033491951137
aa(lp1890
VShadow Vegeta
p1891
aF1608.033491951137
aa(lp1892
VPlastic Man
p1893
aF1608.033491951137
aa(lp1894
VShin Ninja Turtle
p1895
aF1608.033491951137
aa(lp1896
VNormal Chibi Trunks
p1897
aF1608.033491951137
aa(lp1898
VEvil Dan
p1899
aF1608.033491951137
aa(lp1900
VMecha Potemkin
p1901
aF1608.033491951137
aa(lp1902
VRandy M Green
p1903
aF1608.033491951137
aa(lp1904
VOmega tom hanks
p1905
aF1608.033491951137
aa(lp1906
VLast Adult Goku
p1907
aF1608.033491951137
aa(lp1908
VYellow Devil
p1909
aF1608.0560867893278
aa(lp1910
VSolid snake
p1911
aF1608.1455181404624
aa(lp1912
VGoku
p1913
aF1608.1652197950427
aa(lp1914
VGohan Grande Normale
p1915
aF1608.180595743736
aa(lp1916
VPerfect Storm X
p1917
aF1608.1849450297184
aa(lp1918
VArrange_kano
p1919
aF1608.1886586242056
aa(lp1920
VWonder Woman
p1921
aF1608.2084053466624
aa(lp1922
VGogeta SSJ3
p1923
aF1608.2084053466624
aa(lp1924
VGoku ssj4
p1925
aF1608.3486905904479
aa(lp1926
VDr Gero
p1927
aF1608.390630601002
aa(lp1928
VMirai Trunks
p1929
aF1608.4241033561518
aa(lp1930
VJason Todd
p1931
aF1608.4996153418165
aa(lp1932
VIron Man
p1933
aF1608.555263745771
aa(lp1934
VBlaze Agent
p1935
aF1608.6523910314045
aa(lp1936
VCaptain America
p1937
aF1608.65518797464
aa(lp1938
VKiba
p1939
aF1608.7437387565756
aa(lp1940
VGoten GT
p1941
aF1608.7475246668062
aa(lp1942
VEmma Frost
p1943
aF1608.7475246668062
aa(lp1944
VMega Weapon
p1945
aF1608.7629818516916
aa(lp1946
VFirebrand
p1947
aF1608.7951432186305
aa(lp1948
V(sman)
p1949
aF1608.9901685193502
aa(lp1950
VRaphael
p1951
aF1609.0101848963466
aa(lp1952
VBatman Beyond
p1953
aF1609.0529774723307
aa(lp1954
VAnother Kyo
p1955
aF1609.2092793202783
aa(lp1956
VSailor mars
p1957
aF1609.2440391766527
aa(lp1958
VDark Psylocke
p1959
aF1609.246140107883
aa(lp1960
VEvil Ryu
p1961
aF1609.4210535034085
aa(lp1962
VGreat s. man
p1963
aF1609.5257475654678
aa(lp1964
VNeo-sephiroth
p1965
aF1609.5401778282342
aa(lp1966
VYang
p1967
aF1609.5956790103473
aa(lp1968
VCless Alvein
p1969
aF1609.6387197140302
aa(lp1970
VCaptain Marvel
p1971
aF1609.6387197140302
aa(lp1972
VTenten
p1973
aF1609.7333141145582
aa(lp1974
VVanilla H
p1975
aF1609.7911019497149
aa(lp1976
VAlien Queen
p1977
aF1609.924051429373
aa(lp1978
VJon talbain
p1979
aF1609.9933765249536
aa(lp1980
VT Kawk
p1981
aF1610.1342201655239
aa(lp1982
VVegeth ssj2
p1983
aF1610.1663395743067
aa(lp1984
VShermie
p1985
aF1610.5388067729225
aa(lp1986
VOrione
p1987
aF1610.6845333837448
aa(lp1988
VMiyako yoshika
p1989
aF1611.0279980042196
aa(lp1990
VSophitia
p1991
aF1611.2201481140896
aa(lp1992
VNatsu
p1993
aF1611.2969215389276
aa(lp1994
VOrochi
p1995
aF1611.309001869428
aa(lp1996
VKoopa troopa
p1997
aF1611.3938801492488
aa(lp1998
VTenshi
p1999
aF1611.5013654360441
aa(lp2000
VSpider-carnage
p2001
aF1611.5738112229938
aa(lp2002
VNinja megazord
p2003
aF1611.899142988587
aa(lp2004
VThe Flash
p2005
aF1611.9328651701303
aa(lp2006
VLucky 711131
p2007
aF1611.9925115298886
aa(lp2008
VMajin vegeta ssj6
p2009
aF1611.9954798958383
aa(lp2010
VVita
p2011
aF1612.0067725008746
aa(lp2012
VMimic
p2013
aF1612.282182612782
aa(lp2014
VElisabeth blanctorche xiii
p2015
aF1612.3912218971714
aa(lp2016
VJess
p2017
aF1612.9838915207877
aa(lp2018
VMr.karate
p2019
aF1613.2897578232087
aa(lp2020
VKyle dunamis
p2021
aF1613.8067229335657
aa(lp2022
VKurama
p2023
aF1613.875343142053
aa(lp2024
VCyborg_mai
p2025
aF1613.9650671824752
aa(lp2026
VM-vegeta-ssj3
p2027
aF1614.0064276843827
aa(lp2028
VCv wakamoto
p2029
aF1614.0243351536535
aa(lp2030
VMoraga
p2031
aF1614.0403975557122
aa(lp2032
VDio
p2033
aF1614.2292839118538
aa(lp2034
VShin bison
p2035
aF1614.781987662964
aa(lp2036
VSeth
p2037
aF1614.8476761336678
aa(lp2038
VRoomi
p2039
aF1614.947172491705
aa(lp2040
VHatate_himekaidou
p2041
aF1614.9796486286668
aa(lp2042
VCactuar
p2043
aF1615.2620076848905
aa(lp2044
VVenom scorpion
p2045
aF1615.2723915581394
aa(lp2046
VRin natsume
p2047
aF1615.3157393912602
aa(lp2048
VRyuho
p2049
aF1615.3823034913466
aa(lp2050
VDoom Vega
p2051
aF1615.473615943569
aa(lp2052
VViolent Dan
p2053
aF1615.498429075089
aa(lp2054
VRegina
p2055
aF1615.5528715821606
aa(lp2056
VEvil Ken
p2057
aF1615.6678114885333
aa(lp2058
VGreen Latern GG
p2059
aF1615.6802431450558
aa(lp2060
VLi Sheng Long
p2061
aF1615.8084471469501
aa(lp2062
VGoku SSJ4 DB Final Bout
p2063
aF1615.8485469214186
aa(lp2064
VMajin Vegeta
p2065
aF1615.8485469214186
aa(lp2066
VBurta
p2067
aF1615.907324346309
aa(lp2068
VHarley quinn
p2069
aF1615.9600518288978
aa(lp2070
VBlack Tiger
p2071
aF1615.996737858116
aa(lp2072
V*Chameleon
p2073
aI1616
aa(lp2074
VG-Rugal
p2075
aI1616
aa(lp2076
VJamian Di Corvus
p2077
aI1616
aa(lp2078
V*Krauser
p2079
aI1616
aa(lp2080
V*Prime Sentinels
p2081
aI1616
aa(lp2082
VSuper Goku
p2083
aI1616
aa(lp2084
VSatsuki Yumiduka
p2085
aI1616
aa(lp2086
VNero Chaos
p2087
aI1616
aa(lp2088
V*Hal Jordan
p2089
aI1616
aa(lp2090
VSSJ3 Broli
p2091
aI1616
aa(lp2092
VNeco-arc Chaos
p2093
aI1616
aa(lp2094
VRedLantern\u005cRedLantern.def
p2095
aI1616
aa(lp2096
VBB Hood
p2097
aI1616
aa(lp2098
VNeo Sephiroth
p2099
aI1616
aa(lp2100
VAracne De Tarantula
p2101
aI1616
aa(lp2102
V*Son Goku
p2103
aI1616
aa(lp2104
VMai Shiranui
p2105
aI1616
aa(lp2106
VEiko Magami
p2107
aI1616
aa(lp2108
VTest1
p2109
aI1616
aa(lp2110
VTest3
p2111
aI1616
aa(lp2112
VStrider Hiryu
p2113
aI1616
aa(lp2114
VMegaman.EXE
p2115
aI1616
aa(lp2116
V*Saito
p2117
aI1616
aa(lp2118
VGuerrero Divino
p2119
aI1616
aa(lp2120
VGoku Sayajin
p2121
aI1616
aa(lp2122
VFuture Trunks
p2123
aI1616
aa(lp2124
VKurokishi
p2125
aI1616
aa(lp2126
V*Android 16
p2127
aI1616
aa(lp2128
VGohan SSJ4
p2129
aI1616
aa(lp2130
VGohan SSJ3
p2131
aI1616
aa(lp2132
V*Miss Marvel
p2133
aI1616
aa(lp2134
VBlue Destiny 2
p2135
aI1616
aa(lp2136
VKazuya Mishima
p2137
aI1616
aa(lp2138
VGoku SSJ GT
p2139
aI1616
aa(lp2140
VAku Amakusa
p2141
aI1616
aa(lp2142
VOgre Akuma
p2143
aI1616
aa(lp2144
VYumeji Kurokouchi
p2145
aI1616
aa(lp2146
VMoleman\u005cMoleman.def
p2147
aI1616
aa(lp2148
VNagato Yuki
p2149
aI1616
aa(lp2150
VOrochi Iori
p2151
aI1616
aa(lp2152
VKanmi Chan
p2153
aI1616
aa(lp2154
VTara-Gyouza
p2155
aI1616
aa(lp2156
VGreen Devil
p2157
aI1616
aa(lp2158
VOnpu Segawa
p2159
aI1616
aa(lp2160
VYoko Yuki
p2161
aI1616
aa(lp2162
VDee Jay
p2163
aI1616
aa(lp2164
VMusashi Akatsuki
p2165
aI1616
aa(lp2166
VTrunks SSJ4
p2167
aI1616
aa(lp2168
VLex Luthor
p2169
aI1616
aa(lp2170
VStrider Hien
p2171
aI1616
aa(lp2172
V*Heihachi
p2173
aI1616
aa(lp2174
VGohan GT
p2175
aI1616
aa(lp2176
VCyborg Superman
p2177
aI1616
aa(lp2178
VYuki in Midday
p2179
aI1616
aa(lp2180
VMotoko-Aoyama
p2181
aI1616
aa(lp2182
VShiki VP
p2183
aI1616
aa(lp2184
VMr. Bison
p2185
aI1616
aa(lp2186
V*Moleman
p2187
aI1616
aa(lp2188
VLynn Baker
p2189
aI1616
aa(lp2190
VTiger + Ghetto
p2191
aI1616
aa(lp2192
VRobo-Kyii
p2193
aI1616
aa(lp2194
VSSJ5 Goku
p2195
aI1616
aa(lp2196
VGreat S man
p2197
aI1616
aa(lp2198
VNostalgic ballz
p2199
aI1616
aa(lp2200
VIron Lantern
p2201
aI1616
aa(lp2202
V*Felicia
p2203
aI1616
aa(lp2204
VPrime Sentinels
p2205
aI1616
aa(lp2206
VSub-Zero
p2207
aI1616
aa(lp2208
VJimmy Lee
p2209
aI1616
aa(lp2210
VJotaro Kujo
p2211
aI1616
aa(lp2212
VUsapi
p2213
aI1616
aa(lp2214
V*Sagat MB-02
p2215
aI1616
aa(lp2216
VNoriaki Kakyoin
p2217
aI1616
aa(lp2218
VJoseph the BB
p2219
aI1616
aa(lp2220
Vcellhd\u005ccellhd.def
p2221
aI1616
aa(lp2222
VCyborg Mai
p2223
aI1616
aa(lp2224
VSaori - Athena
p2225
aI1616
aa(lp2226
VGreen Lantern JS
p2227
aI1616
aa(lp2228
VViuda Negra
p2229
aI1616
aa(lp2230
VD-Rugal
p2231
aI1616
aa(lp2232
VCyborg_Mai
p2233
aI1616
aa(lp2234
VKazuki
p2235
aI1616
aa(lp2236
VOozura Vegeta
p2237
aI1616
aa(lp2238
VSaori-Athena
p2239
aI1616
aa(lp2240
VSymbiote onslaught
p2241
aI1616
aa(lp2242
VGreen Arrow
p2243
aI1616
aa(lp2244
VThe Joker
p2245
aI1616
aa(lp2246
VBlack Cat
p2247
aI1616
aa(lp2248
VBig Chicken
p2249
aI1616
aa(lp2250
VShin Ryu
p2251
aI1616
aa(lp2252
VUltimate Gohan
p2253
aI1616
aa(lp2254
VHonda Asuka
p2255
aI1616
aa(lp2256
VLisa
p2257
aI1616
aa(lp2258
VMr. Fantastic
p2259
aI1616
aa(lp2260
VRobo Rock
p2261
aI1616
aa(lp2262
VKung Lao
p2263
aI1616
aa(lp2264
V*Warmachine
p2265
aI1616
aa(lp2266
VKen and Gang
p2267
aI1616
aa(lp2268
VGod Yuri
p2269
aI1616
aa(lp2270
VShin Bison
p2271
aI1616
aa(lp2272
VGreat Sayaman
p2273
aI1616
aa(lp2274
VInsane Hiryu
p2275
aI1616
aa(lp2276
VUppercut x2
p2277
aI1616
aa(lp2278
VBomber Man
p2279
aI1616
aa(lp2280
VRyu Plus
p2281
aI1616
aa(lp2282
VGoku Nex
p2283
aI1616
aa(lp2284
VEvil Ken and Ryu
p2285
aI1616
aa(lp2286
V*Cyborg Superman
p2287
aI1616
aa(lp2288
VAmi BF
p2289
aI1616
aa(lp2290
VRobo Ky
p2291
aI1616
aa(lp2292
V*Donovan
p2293
aI1616
aa(lp2294
VSSJ Gohan
p2295
aI1616
aa(lp2296
VBart
p2297
aI1616
aa(lp2298
VGohan Saiya Jin EX
p2299
aI1616
aa(lp2300
VMSakura + PstormX
p2301
aI1616
aa(lp2302
VSadClaps + AltAmiba
p2303
aI1616
aa(lp2304
V*Bullseye
p2305
aI1616
aa(lp2306
V*Kim
p2307
aI1616
aa(lp2308
VMech Hisui
p2309
aI1616
aa(lp2310
VJoseph Joestar
p2311
aI1616
aa(lp2312
VZero Hotaru
p2313
aI1616
aa(lp2314
VCell Frieza
p2315
aI1616
aa(lp2316
VBra 2
p2317
aI1616
aa(lp2318
VJon Talbain
p2319
aI1616
aa(lp2320
VGray Fly 2
p2321
aI1616
aa(lp2322
VDrDoom
p2323
aI1616
aa(lp2324
VWild Ken Ex
p2325
aI1616
aa(lp2326
VKagami Kyosuke
p2327
aI1616
aa(lp2328
VChibi Ubuu
p2329
aI1616
aa(lp2330
VGinew 1
p2331
aI1616
aa(lp2332
VNorimaru
p2333
aI1616
aa(lp2334
VI-No
p2335
aI1616
aa(lp2336
VHyoga De Cisne
p2337
aI1616
aa(lp2338
VNamek Gohan
p2339
aI1616
aa(lp2340
VDark Chun Li
p2341
aI1616
aa(lp2342
VKoopa Troppa
p2343
aI1616
aa(lp2344
V*Maraiah
p2345
aI1616
aa(lp2346
V*Rajaamaki
p2347
aI1616
aa(lp2348
VManamana
p2349
aI1616
aa(lp2350
V*Kagami Kyosuke
p2351
aI1616
aa(lp2352
VWhite Len
p2353
aI1616
aa(lp2354
VSnake Eyes
p2355
aI1616
aa(lp2356
VAku-Amakusa
p2357
aI1616
aa(lp2358
V*Zangief Maskered
p2359
aI1616
aa(lp2360
VDr. Doom
p2361
aI1616
aa(lp2362
VResume on or after 12:55am
p2363
aI1616
aa(lp2364
VSean Matsuda
p2365
aI1616
aa(lp2366
VSSJ4 Gogeta
p2367
aI1616
aa(lp2368
VWakamoto
p2369
aI1616
aa(lp2370
VMars People
p2371
aI1616
aa(lp2372
VWinnie the Pooh
p2373
aI1616
aa(lp2374
VWing Zero
p2375
aF1616.0284977497868
aa(lp2376
VHoly Ken
p2377
aF1616.0384615826954
aa(lp2378
VNrvnqsr Chaos
p2379
aF1616.0720259371292
aa(lp2380
VRimle
p2381
aF1616.1548293426667
aa(lp2382
VSuper Mario
p2383
aF1616.1760257302128
aa(lp2384
VDare devil
p2385
aF1616.2579269854423
aa(lp2386
VCheap Boss Type
p2387
aF1616.4859784116572
aa(lp2388
VFlandre scarlet
p2389
aF1616.7721879110586
aa(lp2390
VHotaru futaba
p2391
aF1616.9858727079811
aa(lp2392
VSakura
p2393
aF1616.9871067077277
aa(lp2394
VJay Garrick
p2395
aF1617.0335305187705
aa(lp2396
VSailor mercury
p2397
aF1617.1010784443693
aa(lp2398
VOmega Red
p2399
aF1617.4545454545455
aa(lp2400
VEriol Hiiragizawa
p2401
aF1617.4545454545455
aa(lp2402
VThe Thing
p2403
aF1617.4545454545455
aa(lp2404
VJohnny Cage
p2405
aF1617.4545454545455
aa(lp2406
VChibiko
p2407
aF1617.4545454545455
aa(lp2408
V*Jay Garrick
p2409
aF1617.4545454545455
aa(lp2410
VPaul Phoenix
p2411
aF1617.4545454545455
aa(lp2412
VLion Magnus
p2413
aF1617.4545454545455
aa(lp2414
VKujo Jotaro
p2415
aF1617.4545454545455
aa(lp2416
VM Bison
p2417
aF1617.4545454545455
aa(lp2418
VMiss Marvel
p2419
aF1617.4545454545455
aa(lp2420
VTyouun Shiryu
p2421
aF1617.4545454545455
aa(lp2422
VStrong Guy
p2423
aF1617.4545454545455
aa(lp2424
VR Lilith
p2425
aF1617.4545454545455
aa(lp2426
VZangief Maskered
p2427
aF1617.4545454545455
aa(lp2428
VYoutube Poop Robotnik
p2429
aF1617.4545454545455
aa(lp2430
VHeihachi
p2431
aF1617.4545454545455
aa(lp2432
VMarisa
p2433
aF1617.5191009924947
aa(lp2434
VMegaman
p2435
aF1617.714590535906
aa(lp2436
VCrilin sposato
p2437
aF1617.714640349678
aa(lp2438
VShin Kazuma
p2439
aF1617.7965997464735
aa(lp2440
VOrochi iori
p2441
aF1618.3405924770698
aa(lp2442
VHisame shizumaru
p2443
aF1618.4762638686516
aa(lp2444
VMordecai
p2445
aF1618.5110315843983
aa(lp2446
VSean matsuda
p2447
aF1618.5636922607464
aa(lp2448
V'gou no ken' kenshirou
p2449
aF1618.6196265339383
aa(lp2450
VBlossom
p2451
aF1618.6524915817736
aa(lp2452
VDora
p2453
aF1618.6880333570562
aa(lp2454
VBloodrayne
p2455
aF1618.708314092783
aa(lp2456
VDhalsim
p2457
aF1618.8896699141944
aa(lp2458
VGogeta ssj2
p2459
aF1619.097682473121
aa(lp2460
VBlack mask
p2461
aF1619.1219593045669
aa(lp2462
VEvil ranger
p2463
aF1619.3580647890885
aa(lp2464
VChaos blanka
p2465
aF1619.499173190678
aa(lp2466
VWaha-
p2467
aF1619.7172279099875
aa(lp2468
VBattle mahoro
p2469
aF1619.81840430242
aa(lp2470
VAmi
p2471
aF1619.8731859860227
aa(lp2472
VGohan ssj5
p2473
aF1619.981281616664
aa(lp2474
VZombie
p2475
aF1620.0904182022239
aa(lp2476
VHanyuu
p2477
aF1620.327031443738
aa(lp2478
VSangoku
p2479
aF1620.962370425448
aa(lp2480
VKensou
p2481
aF1621.0707730222373
aa(lp2482
VLady deathstrike
p2483
aF1621.1768890826968
aa(lp2484
VIsaiah bradley
p2485
aF1621.1823638818078
aa(lp2486
VArcher
p2487
aF1621.2242765632982
aa(lp2488
VMr satan
p2489
aF1621.224582400819
aa(lp2490
VAmi bf
p2491
aF1621.2290481094742
aa(lp2492
VBass
p2493
aF1621.2411709699077
aa(lp2494
VByakuya
p2495
aF1621.3404960652024
aa(lp2496
VHijiri byakuren
p2497
aF1621.4472090251327
aa(lp2498
VVice
p2499
aF1621.5508351737546
aa(lp2500
VVivi_ornitier
p2501
aF1621.5646140889885
aa(lp2502
VPrincess silver
p2503
aF1621.970924786096
aa(lp2504
VJuan
p2505
aF1622.1848522062894
aa(lp2506
VSon Gohan
p2507
aF1622.2949262890018
aa(lp2508
VSuper soldier
p2509
aF1622.6959466422193
aa(lp2510
VLilith
p2511
aF1622.712025040207
aa(lp2512
VKenshin
p2513
aF1622.738214285643
aa(lp2514
VVegeta normal 3
p2515
aF1622.7979417513031
aa(lp2516
VGoku ssj2
p2517
aF1622.7992191499898
aa(lp2518
VYumeji kurokouchi
p2519
aF1622.8738557614765
aa(lp2520
VUltra SSJ5 Vegeta
p2521
aF1623.1041849692574
aa(lp2522
VAndroide 17
p2523
aF1623.1477073140788
aa(lp2524
VBasara
p2525
aF1623.1695932661708
aa(lp2526
VChaos Hiryu
p2527
aF1623.2274659550355
aa(lp2528
VCaptain Caveman
p2529
aF1623.2860764871382
aa(lp2530
VPerfect Cell
p2531
aF1623.2914497623742
aa(lp2532
VMilan Flare
p2533
aF1623.2951558089576
aa(lp2534
VShikieiki yamaxanadu
p2535
aF1623.3856630590976
aa(lp2536
VFelicia
p2537
aF1623.3883518065893
aa(lp2538
VSsj3 goku
p2539
aF1623.4058894375703
aa(lp2540
VKyo
p2541
aF1623.5871164244004
aa(lp2542
VMai K
p2543
aF1623.841873096736
aa(lp2544
VAndore Jr
p2545
aF1623.8485322617796
aa(lp2546
VYellow devil
p2547
aF1623.9367880511247
aa(lp2548
VNmori yagami
p2549
aF1623.9555038989306
aa(lp2550
VWakko
p2551
aF1623.9910847040126
aa(lp2552
VIggy
p2553
aF1624.1188979688936
aa(lp2554
VFat boo
p2555
aF1624.1633943043346
aa(lp2556
VThe Blob
p2557
aF1624.1882185927086
aa(lp2558
VKaede_hioh
p2559
aF1624.3066597103548
aa(lp2560
VRox Howard Clones
p2561
aF1624.3778246038767
aa(lp2562
VArrange_remilia
p2563
aF1624.396719430976
aa(lp2564
VMaster Hand
p2565
aF1624.674297665153
aa(lp2566
VRock Volnutt
p2567
aF1624.7247006904483
aa(lp2568
VBlack Widow
p2569
aF1624.7721715453201
aa(lp2570
VG Rugal
p2571
aF1624.8786770795525
aa(lp2572
VKing Godzilla
p2573
aF1624.8786770795525
aa(lp2574
VMech Zangief
p2575
aF1624.9011179165234
aa(lp2576
VSerika
p2577
aF1624.970931721164
aa(lp2578
VStrong guy
p2579
aF1625.2051281073266
aa(lp2580
VKazuya mishima
p2581
aF1625.2072490539595
aa(lp2582
VMinis Mahn
p2583
aF1625.237670832597
aa(lp2584
VAVDOL VER2001
p2585
aF1625.2483962161875
aa(lp2586
VGod yuri
p2587
aF1625.4020284525718
aa(lp2588
VMexican Typhoon
p2589
aF1625.4545454545455
aa(lp2590
VDeath Ogre
p2591
aF1625.4545454545455
aa(lp2592
VNeco
p2593
aF1625.5043801561312
aa(lp2594
VSasuke Kun
p2595
aF1625.6967040016787
aa(lp2596
VE. honda
p2597
aF1626.002060886496
aa(lp2598
VPiccolo
p2599
aF1626.1443169637676
aa(lp2600
VGohan zeta
p2601
aF1626.1830996166034
aa(lp2602
VDoomsday
p2603
aF1626.2533604925368
aa(lp2604
VSon gohan
p2605
aF1626.2656566156118
aa(lp2606
VKohaku
p2607
aF1626.4001342815545
aa(lp2608
VIk borodin
p2609
aF1626.5338510238198
aa(lp2610
VRadish SSJ4
p2611
aF1626.944860614325
aa(lp2612
VArthas
p2613
aF1627.2578110357153
aa(lp2614
VRyuuoutan
p2615
aF1627.263017636095
aa(lp2616
VDocinho
p2617
aF1627.3446077241863
aa(lp2618
VBlue destiny 2
p2619
aF1627.358591293101
aa(lp2620
VJoe higashi
p2621
aF1627.6037317871683
aa(lp2622
VNanoha takamachi
p2623
aF1627.666285567642
aa(lp2624
VSub-zero
p2625
aF1628.0341145068605
aa(lp2626
VKira daidoji
p2627
aF1628.1462908680696
aa(lp2628
VClark steel
p2629
aF1628.3807836077972
aa(lp2630
VSuika ibuki
p2631
aF1628.492022169576
aa(lp2632
VYuyuko & youmu
p2633
aF1628.5194458981537
aa(lp2634
VVegeta ssj5
p2635
aF1628.6109815022585
aa(lp2636
VAthena asamiya
p2637
aF1628.6324731437753
aa(lp2638
VChomper
p2639
aF1628.8273385013736
aa(lp2640
VDocock
p2641
aF1628.8800370705721
aa(lp2642
VJay garrick
p2643
aF1628.911583080992
aa(lp2644
VTaki
p2645
aF1628.998836122922
aa(lp2646
VRumia
p2647
aF1629.0988712798294
aa(lp2648
VVegeth@
p2649
aF1629.2382966209293
aa(lp2650
VMinis mahn
p2651
aF1629.3727735278305
aa(lp2652
VElektra
p2653
aF1629.3904011655854
aa(lp2654
VRobocop
p2655
aF1629.591969646695
aa(lp2656
VKung lao
p2657
aF1629.6810595814832
aa(lp2658
VMiko
p2659
aF1629.9398262766329
aa(lp2660
VShadow Dio
p2661
aF1630.0977466376764
aa(lp2662
VParasite
p2663
aF1630.2172657158162
aa(lp2664
VKanako yasaka
p2665
aF1630.5205011390099
aa(lp2666
VSon Trunks
p2667
aF1630.7474166579796
aa(lp2668
VBiohazard
p2669
aF1630.7686502598258
aa(lp2670
VShocker
p2671
aF1630.9405398951662
aa(lp2672
VMilan flare
p2673
aF1631.1994065613937
aa(lp2674
VGengetu
p2675
aF1631.2241850136063
aa(lp2676
VMillia
p2677
aF1631.2527644900622
aa(lp2678
VMegatron
p2679
aF1631.622629242557
aa(lp2680
VAbyss
p2681
aF1631.6333131769018
aa(lp2682
VGoku transformer
p2683
aF1631.7224544276755
aa(lp2684
VJin kazama
p2685
aF1631.8675062675306
aa(lp2686
VMukai
p2687
aF1631.8928661175414
aa(lp2688
VSSJ4 Goten
p2689
aI1632
aa(lp2690
VKazama Kazuki
p2691
aI1632
aa(lp2692
VZero hotaru
p2693
aI1632
aa(lp2694
VPegAAAAAAsus x2
p2695
aI1632
aa(lp2696
VThe Nightmare
p2697
aI1632
aa(lp2698
VJyakku no keshin dio
p2699
aI1632
aa(lp2700
VYuri di AAAA
p2701
aI1632
aa(lp2702
VJin Saotome
p2703
aI1632
aa(lp2704
VNash Shadow
p2705
aI1632
aa(lp2706
VGalactus
p2707
aF1632.4771090973377
aa(lp2708
VHiedano akyu
p2709
aF1632.7822836493203
aa(lp2710
VGoku ssj3
p2711
aF1632.80106427987
aa(lp2712
VBlack adam
p2713
aF1633.158541359209
aa(lp2714
VEagle
p2715
aF1633.2156528951768
aa(lp2716
VOmega
p2717
aF1633.2238444125253
aa(lp2718
VCell junior
p2719
aF1633.3308840104296
aa(lp2720
VNagato yuki
p2721
aF1633.3884464845462
aa(lp2722
VDark phoenix
p2723
aF1634.516796138513
aa(lp2724
VSabretooth
p2725
aF1634.691233470237
aa(lp2726
VShiori misaka
p2727
aF1634.82664712523
aa(lp2728
VAkuma
p2729
aF1635.399914175839
aa(lp2730
VInsane hiryu
p2731
aF1635.5254265504252
aa(lp2732
VLilin
p2733
aF1635.547396914329
aa(lp2734
VSakuya_swr
p2735
aF1635.612882679264
aa(lp2736
VYukari_swr
p2737
aF1635.6433755164353
aa(lp2738
VGoten gt
p2739
aF1635.8373195035583
aa(lp2740
VArrange_ayu
p2741
aF1635.845915938747
aa(lp2742
VSeravy
p2743
aF1635.9909094726054
aa(lp2744
VRenamon
p2745
aF1636.2661247080753
aa(lp2746
VScarecrow
p2747
aF1636.2734858069016
aa(lp2748
VKrusty
p2749
aF1636.369684072925
aa(lp2750
VSon goku
p2751
aF1636.5581476793186
aa(lp2752
VCommissioner gordon
p2753
aF1636.8846191475197
aa(lp2754
VDet. garret laurel
p2755
aF1636.941646462623
aa(lp2756
VMima
p2757
aF1637.0685525132697
aa(lp2758
VMinoriko aki
p2759
aF1637.1250357571437
aa(lp2760
VAchi cirno
p2761
aF1637.3923800873492
aa(lp2762
VMarisa Kirisame
p2763
aF1637.7322118417878
aa(lp2764
VYuka takeuchi
p2765
aF1637.8786916754839
aa(lp2766
VRhadamantis
p2767
aF1638.038604617422
aa(lp2768
VEliza
p2769
aF1638.1393252579717
aa(lp2770
VSon Goku
p2771
aF1638.1875891700213
aa(lp2772
VLeona
p2773
aF1638.6561247640807
aa(lp2774
VLen and w. len
p2775
aF1638.7312870294961
aa(lp2776
VNagae iku
p2777
aF1638.7440140818196
aa(lp2778
VDan
p2779
aF1638.8523924164767
aa(lp2780
VMirai trunks
p2781
aF1638.9102151198017
aa(lp2782
VCpu nobunaga
p2783
aF1639.0605785978757
aa(lp2784
VCirno
p2785
aF1639.1236574632633
aa(lp2786
VStrider hien
p2787
aF1639.3113408298398
aa(lp2788
VSyaoran
p2789
aF1639.4388011905762
aa(lp2790
VColossus
p2791
aF1639.4517777540495
aa(lp2792
VKishima kouma
p2793
aF1639.4716142249895
aa(lp2794
VDio di musca
p2795
aF1639.5930263943656
aa(lp2796
VRadel
p2797
aF1639.6095331080442
aa(lp2798
VKuma
p2799
aF1639.691254589573
aa(lp2800
VHugo
p2801
aF1639.7049188711828
aa(lp2802
VFuture trunks
p2803
aF1639.857314368884
aa(lp2804
VZangyura
p2805
aF1639.9711118464713
aa(lp2806
VGodzilla
p2807
aF1639.9982260702511
aa(lp2808
VJack frost
p2809
aF1640.1113880993998
aa(lp2810
VMichaelangelo
p2811
aF1640.2502930088535
aa(lp2812
VPaul phoenix
p2813
aF1640.3755825459973
aa(lp2814
VHaohmaru
p2815
aF1640.6996658082087
aa(lp2816
VCaptain marvel
p2817
aF1641.339949501945
aa(lp2818
VH-duolon
p2819
aF1641.39547147
aa(lp2820
VKing godzilla
p2821
aF1641.4308277469347
aa(lp2822
VOozura vegeta
p2823
aF1641.596095765305
aa(lp2824
VDizzy
p2825
aF1641.6044667177796
aa(lp2826
VYun
p2827
aF1641.7049810621781
aa(lp2828
VEmerald
p2829
aF1641.7281012162257
aa(lp2830
VAndore jr
p2831
aF1641.980595277472
aa(lp2832
VNachi
p2833
aF1641.986841799675
aa(lp2834
VYamame
p2835
aF1642.3233521901523
aa(lp2836
VYuyuko saigyouji
p2837
aF1642.4236113002303
aa(lp2838
VOpera elmer
p2839
aF1642.6729066013347
aa(lp2840
VRan yakumo
p2841
aF1642.7840734481504
aa(lp2842
VMagneto
p2843
aF1642.9274954102802
aa(lp2844
VIron lantern
p2845
aF1643.0090558075985
aa(lp2846
VJamian di corvus
p2847
aF1643.067275034917
aa(lp2848
VCharlotte
p2849
aF1643.189166864004
aa(lp2850
VMedicine melancholy
p2851
aF1643.282167869288
aa(lp2852
VNightcrawler
p2853
aF1643.3090783959653
aa(lp2854
VDiablo
p2855
aF1643.3326868769554
aa(lp2856
VBatman beyond
p2857
aF1643.530103831389
aa(lp2858
VDoraemon
p2859
aF1643.5414046735866
aa(lp2860
VTrouble man
p2861
aF1643.6234605744473
aa(lp2862
VIkki
p2863
aF1643.7073715992774
aa(lp2864
VGiro
p2865
aF1643.7596527046671
aa(lp2866
VYamcha by tomur
p2867
aF1643.7862614238422
aa(lp2868
VMaster ryu
p2869
aF1643.9694587060935
aa(lp2870
VEiko magami
p2871
aF1644.380252680445
aa(lp2872
VMasta gambit
p2873
aF1644.4127532386499
aa(lp2874
VC-19
p2875
aF1644.4555185527834
aa(lp2876
VJo jo
p2877
aF1644.5267589077623
aa(lp2878
VRalf
p2879
aF1644.5496620882495
aa(lp2880
VGohan saiya-jin ex
p2881
aF1644.7645967707717
aa(lp2882
VSuika
p2883
aF1644.9798706899774
aa(lp2884
VNamazu
p2885
aF1645.1787658018013
aa(lp2886
VSenna vp
p2887
aF1645.8842632482022
aa(lp2888
VWalkyrie
p2889
aF1646.0506069474905
aa(lp2890
VShanghai
p2891
aF1646.1275964104384
aa(lp2892
VMystique
p2893
aF1646.414548268458
aa(lp2894
VShizuha aki
p2895
aF1646.6947566472768
aa(lp2896
VRin rin
p2897
aF1646.8220229898088
aa(lp2898
VThe atom
p2899
aF1647.2404076688915
aa(lp2900
VHelion
p2901
aF1647.4921287350817
aa(lp2902
VKrizalid
p2903
aF1647.498666693363
aa(lp2904
VHayato
p2905
aF1647.8414122645675
aa(lp2906
VHellboy
p2907
aF1647.945682957092
aa(lp2908
VAoshi
p2909
aF1648.1990164043152
aa(lp2910
VGoten gt nex
p2911
aF1648.2047928013046
aa(lp2912
VSaisyuu_dokusyo_bouei_system
p2913
aF1648.287481493403
aa(lp2914
VLion(coh)
p2915
aF1648.3364144711109
aa(lp2916
VNormal freeza
p2917
aF1648.3691486871069
aa(lp2918
VSonic
p2919
aF1648.437410312891
aa(lp2920
VRed ranger
p2921
aF1648.51361302514
aa(lp2922
VTien
p2923
aF1648.7142377535536
aa(lp2924
VRogue
p2925
aF1649.1579617769196
aa(lp2926
VMoleman
p2927
aF1649.2766953830803
aa(lp2928
VBlack widow
p2929
aF1649.5969876403224
aa(lp2930
VRobo rock
p2931
aF1649.8166824349762
aa(lp2932
VOrochi akuma
p2933
aF1650.153352119226
aa(lp2934
VServbot
p2935
aF1650.3867889818728
aa(lp2936
VGodman
p2937
aF1650.8895032012776
aa(lp2938
VMultiple man
p2939
aF1650.915061414745
aa(lp2940
VUltimat goku
p2941
aF1650.985408260248
aa(lp2942
VAkiha
p2943
aF1651.7335917514686
aa(lp2944
VRikuo
p2945
aF1651.7635347474059
aa(lp2946
VKanorin
p2947
aF1651.8793394236275
aa(lp2948
VPowergirl
p2949
aF1652.4750859925612
aa(lp2950
VBane
p2951
aF1652.6226904142914
aa(lp2952
VSakura Kinomoto
p2953
aF1652.6583836416394
aa(lp2954
VPatchouli_swr
p2955
aF1652.6915285649457
aa(lp2956
VIvy
p2957
aF1652.8797517508256
aa(lp2958
VRoll
p2959
aF1653.0481415140453
aa(lp2960
VGohan ssj3
p2961
aF1653.1214007419326
aa(lp2962
VLobo
p2963
aF1653.1719392790812
aa(lp2964
VSnake eyes
p2965
aF1653.296203765755
aa(lp2966
VLast adult goku
p2967
aF1653.5881262328608
aa(lp2968
VProfessor x
p2969
aF1653.8467472709506
aa(lp2970
VPerfect cell
p2971
aF1653.9823008000194
aa(lp2972
VGouken
p2973
aF1654.048614853511
aa(lp2974
VSatsuki yumiduka
p2975
aF1654.1977768826482
aa(lp2976
VZangief sf4
p2977
aF1654.8540807773131
aa(lp2978
VElla
p2979
aF1654.9842243660971
aa(lp2980
VSaito
p2981
aF1655.0465975312586
aa(lp2982
VMarisa kirisame
p2983
aF1655.0675694877548
aa(lp2984
VArrange_shiori
p2985
aF1655.5660191126067
aa(lp2986
VShaoran lee
p2987
aF1655.6453010251187
aa(lp2988
VLei-lei
p2989
aF1655.9940955405586
aa(lp2990
VLynn baker
p2991
aF1656.10740003736
aa(lp2992
VBroly
p2993
aF1656.1229048811856
aa(lp2994
VDeadpool
p2995
aF1656.2740801652767
aa(lp2996
VChun-li
p2997
aF1656.3025395076527
aa(lp2998
VBridget
p2999
aF1656.3293050950658
aa(lp3000
VHotaru
p3001
aF1656.444726496222
aa(lp3002
VPyron
p3003
aF1656.4535524922471
aa(lp3004
VRouga(coh)
p3005
aF1656.5825972829568
aa(lp3006
VUnzan&ichirin;
p3007
aF1656.8382951068284
aa(lp3008
VChibi naruto
p3009
aF1657.4465642533005
aa(lp3010
VAura
p3011
aF1657.5299953266465
aa(lp3012
VYurika kirishima
p3013
aF1657.617835563493
aa(lp3014
VRyoko asakura
p3015
aF1657.6879321158249
aa(lp3016
VSailor uranus
p3017
aF1657.8845283277842
aa(lp3018
VTsugumi
p3019
aF1658.1429246700486
aa(lp3020
VBenimaru
p3021
aF1658.3032427448215
aa(lp3022
VMr. fantastic
p3023
aF1658.3867863820033
aa(lp3024
VJ'onn j'onnz
p3025
aF1658.7640001920186
aa(lp3026
VAlex
p3027
aF1658.8819308384857
aa(lp3028
VVegeta ssj3
p3029
aF1658.9507947345894
aa(lp3030
VChang
p3031
aF1658.9929305725736
aa(lp3032
VMorrigan
p3033
aF1659.0597550241805
aa(lp3034
VKamiccolo
p3035
aF1659.1418926466044
aa(lp3036
VMarvin
p3037
aF1659.1624183924343
aa(lp3038
VBlodia
p3039
aF1659.4805482820982
aa(lp3040
VSayuri kurata
p3041
aF1659.485524861127
aa(lp3042
VSaint Kyo
p3043
aF1659.6879687959433
aa(lp3044
VShaq
p3045
aF1659.7095746116531
aa(lp3046
VDuke nukem
p3047
aF1660.0301461371673
aa(lp3048
VSuper buu
p3049
aF1660.2646753231134
aa(lp3050
VCheap boss type
p3051
aF1660.5975501097055
aa(lp3052
VHikaru
p3053
aF1660.8285189835194
aa(lp3054
VGreen arrow
p3055
aF1660.9259053418436
aa(lp3056
VVanessa
p3057
aF1660.9551758841374
aa(lp3058
VGonzales
p3059
aF1660.9602672157323
aa(lp3060
VMecha potemkin
p3061
aF1660.9762980262326
aa(lp3062
VReisen_swr
p3063
aF1661.2203308350165
aa(lp3064
VArrange_misuzu
p3065
aF1661.2676311446132
aa(lp3066
VMissmarvel
p3067
aF1661.3368248062834
aa(lp3068
VAyu tsukimiya
p3069
aF1661.7481232744235
aa(lp3070
VTenma-sama
p3071
aF1661.7670943033609
aa(lp3072
VMyuu
p3073
aF1661.8833963944792
aa(lp3074
VMajin vegeta
p3075
aF1661.962280057508
aa(lp3076
VKim kaphwan
p3077
aF1662.0652108701481
aa(lp3078
VShadow lady
p3079
aF1662.2373566835536
aa(lp3080
VKuando
p3081
aF1662.300201626364
aa(lp3082
VBison
p3083
aF1662.5795923846786
aa(lp3084
VTen
p3085
aF1662.6158770096213
aa(lp3086
VWild ken ex
p3087
aF1662.936666648933
aa(lp3088
VKenpachi
p3089
aF1663.0466929157583
aa(lp3090
VJabu
p3091
aF1663.7364879940942
aa(lp3092
VUsapi-
p3093
aF1664.3583489015232
aa(lp3094
VTin's fernandeath
p3095
aF1664.3970681039991
aa(lp3096
VRyo
p3097
aF1664.9240781360054
aa(lp3098
VArrange_mishio
p3099
aF1665.5388778356744
aa(lp3100
VKim
p3101
aF1665.5547049011884
aa(lp3102
VLei lei
p3103
aF1665.6052127767698
aa(lp3104
VGogeta super saiyan 3
p3105
aF1665.6988552100447
aa(lp3106
VYukari yakumo
p3107
aF1665.829114501116
aa(lp3108
VMai shiranui
p3109
aF1665.8376404661205
aa(lp3110
VSatoko
p3111
aF1666.067503626916
aa(lp3112
VTeam reimisen
p3113
aF1666.200950309017
aa(lp3114
VSonic machine
p3115
aF1666.2608428585895
aa(lp3116
VGotenks gt
p3117
aF1666.3172856513747
aa(lp3118
VKonngara
p3119
aF1666.6919477608153
aa(lp3120
VGaits
p3121
aF1666.8404032658475
aa(lp3122
VSoujiro
p3123
aF1666.8815366513845
aa(lp3124
VAlex mercer
p3125
aF1667.4550826417965
aa(lp3126
VMaraiah
p3127
aF1667.5673927581918
aa(lp3128
VRiot
p3129
aF1667.7028907857346
aa(lp3130
VUppercut
p3131
aF1667.7128479291641
aa(lp3132
VDeath adder
p3133
aF1667.812273391694
aa(lp3134
VMusashi akatsuki
p3135
aF1668.109761543864
aa(lp3136
VMech-hisui
p3137
aF1668.2014302306286
aa(lp3138
VArchangel
p3139
aF1668.311510141592
aa(lp3140
VKeel
p3141
aF1668.3249272433648
aa(lp3142
VJudith
p3143
aF1668.359483549135
aa(lp3144
VTessa
p3145
aF1668.4666115156258
aa(lp3146
VYoko yuki
p3147
aF1668.500620254491
aa(lp3148
VRaiden
p3149
aF1669.086555546348
aa(lp3150
VAku-amakusa
p3151
aF1669.2187107804896
aa(lp3152
VUltra ssj5 vegeta
p3153
aF1669.4091952083381
aa(lp3154
VYoumu konpaku
p3155
aF1669.4941744413095
aa(lp3156
VTizoc
p3157
aF1669.6124690485378
aa(lp3158
VMugetu
p3159
aF1670.1186464099465
aa(lp3160
VRare Akuma
p3161
aF1670.2623280877408
aa(lp3162
VCapella
p3163
aF1670.3512001862905
aa(lp3164
VGiano
p3165
aF1670.6309793500463
aa(lp3166
VChun-lee dark bolt
p3167
aF1670.637135876823
aa(lp3168
VBoo ssj
p3169
aF1670.7746006640084
aa(lp3170
VSailor jupiter
p3171
aF1671.0692263038247
aa(lp3172
VNazrin
p3173
aF1671.1344065461767
aa(lp3174
VRobin
p3175
aF1671.2642483254822
aa(lp3176
VKrauser
p3177
aF1671.761977052852
aa(lp3178
VThanos
p3179
aF1671.7812689476843
aa(lp3180
VRandy m. green
p3181
aF1672.4875126246443
aa(lp3182
VAnnie murakami
p3183
aF1672.5310655920264
aa(lp3184
VYuuka kazami
p3185
aF1672.589487653133
aa(lp3186
VOrochimaru
p3187
aF1672.6937426087145
aa(lp3188
VEtrigan
p3189
aF1672.7056515880718
aa(lp3190
VRed cyclone
p3191
aF1673.2332451446734
aa(lp3192
VHaruhi suzumiya
p3193
aF1673.3122765904993
aa(lp3194
VChameleon
p3195
aF1673.4740694432269
aa(lp3196
VVertigo
p3197
aF1673.8450645824564
aa(lp3198
VCaptain commando
p3199
aF1674.0284246214665
aa(lp3200
VIronman
p3201
aF1674.1068829393437
aa(lp3202
VFrieza
p3203
aF1674.2404719780268
aa(lp3204
VP. chunli
p3205
aF1674.3506387485431
aa(lp3206
VToron
p3207
aF1674.8102513527322
aa(lp3208
VArrange_unknown
p3209
aF1675.1198029417264
aa(lp3210
VCammy
p3211
aF1675.3072786410257
aa(lp3212
VBatman
p3213
aF1675.460671929019
aa(lp3214
VReptos
p3215
aF1675.5578431197393
aa(lp3216
VGeese
p3217
aF1675.67784900565
aa(lp3218
VZappa
p3219
aF1675.7505238877184
aa(lp3220
VMech gouki
p3221
aF1676.319975947176
aa(lp3222
VSilver surfer
p3223
aF1677.3877038166522
aa(lp3224
VAoko
p3225
aF1677.38923890997
aa(lp3226
VGoku ssj4 db final bout
p3227
aF1677.7363187247045
aa(lp3228
VEvil homer
p3229
aF1677.7589969855997
aa(lp3230
VK'
p3231
aF1677.9186739104623
aa(lp3232
VRaptor
p3233
aF1678.5417590533816
aa(lp3234
VSoulgen
p3235
aF1678.9518361285639
aa(lp3236
VUltimate cap
p3237
aF1679.5052078125166
aa(lp3238
VCc iron clara
p3239
aF1679.5978917534771
aa(lp3240
VLord zedd
p3241
aF1679.8421373570354
aa(lp3242
VGreen lantern gg
p3243
aF1679.9070366118808
aa(lp3244
VZinc
p3245
aF1680.049808153003
aa(lp3246
VBin laden
p3247
aF1680.3539959170869
aa(lp3248
VFaust
p3249
aF1680.4575992324917
aa(lp3250
VHaggar
p3251
aF1680.458166408299
aa(lp3252
VJedah
p3253
aF1680.5011120543522
aa(lp3254
VRugal
p3255
aF1680.6124358003435
aa(lp3256
VBaby bonnie hood
p3257
aF1680.674261214633
aa(lp3258
VScream
p3259
aF1680.873531051235
aa(lp3260
VNightwolf
p3261
aF1681.2272092713224
aa(lp3262
VVanilla h
p3263
aF1681.27685413415
aa(lp3264
VJackal
p3265
aF1681.3743780854795
aa(lp3266
VRasetsumaru
p3267
aF1681.5900588465076
aa(lp3268
VClayface
p3269
aF1681.83195268387
aa(lp3270
VDeath black shot
p3271
aF1682.2082883984428
aa(lp3272
VSteel
p3273
aF1682.2122089444783
aa(lp3274
VOgre
p3275
aF1682.9299573370415
aa(lp3276
VSsj three broli
p3277
aF1683.142600649197
aa(lp3278
VSissy
p3279
aF1683.1662565498257
aa(lp3280
VSatsuki
p3281
aF1683.2971533147124
aa(lp3282
VGoenitz
p3283
aF1683.8586605320672
aa(lp3284
VSuper-8
p3285
aF1683.8808953117907
aa(lp3286
VCharlie
p3287
aF1684.0066027783778
aa(lp3288
VIkkaku
p3289
aF1684.0734894870955
aa(lp3290
VSuper goku
p3291
aF1684.4044426363696
aa(lp3292
VOoze-o
p3293
aF1684.6539857104683
aa(lp3294
VShiki tohno
p3295
aF1684.6908267879112
aa(lp3296
VBattousai
p3297
aF1684.7990217690765
aa(lp3298
VHyoga de cisne
p3299
aF1685.0162126328855
aa(lp3300
VUbu
p3301
aF1685.0975060727994
aa(lp3302
VEsmeralda
p3303
aF1685.1905374773785
aa(lp3304
VMai_k
p3305
aF1685.392621525793
aa(lp3306
VMorph
p3307
aF1685.500936874974
aa(lp3308
VRyuuguu rena
p3309
aF1686.1082320625794
aa(lp3310
VMike tyson
p3311
aF1686.357939435895
aa(lp3312
VKazama sogetsu
p3313
aF1686.7093033016843
aa(lp3314
VNanoha xp
p3315
aF1686.8350385709998
aa(lp3316
VWarachia
p3317
aF1686.8846474769766
aa(lp3318
VOmega tiger woods
p3319
aF1686.9775537064986
aa(lp3320
VFranko
p3321
aF1687.0277089622316
aa(lp3322
VFerroman
p3323
aF1688.3687798571682
aa(lp3324
VYumemi
p3325
aF1688.4549124625298
aa(lp3326
VIceman
p3327
aF1688.6151240593401
aa(lp3328
VSaiki
p3329
aF1688.6812264270304
aa(lp3330
VSailor venus
p3331
aF1689.0099086936418
aa(lp3332
VAracne de tarantula
p3333
aF1689.1505768736608
aa(lp3334
VVarnage
p3335
aF1689.234971991165
aa(lp3336
VAndroid 16
p3337
aF1690.747942729121
aa(lp3338
VCrystal
p3339
aF1690.9886541103535
aa(lp3340
VWonderman
p3341
aF1691.0482347082627
aa(lp3342
VEvil soul
p3343
aF1691.6030521544371
aa(lp3344
VR. lilith
p3345
aF1691.707497172102
aa(lp3346
VSad claps
p3347
aF1691.951168266173
aa(lp3348
VViolent dan
p3349
aF1691.9719111739548
aa(lp3350
VVoid
p3351
aF1692.0271517317344
aa(lp3352
VFordy
p3353
aF1692.8015479319868
aa(lp3354
VKurihan
p3355
aF1693.653794485911
aa(lp3356
VThor
p3357
aF1693.7282716216012
aa(lp3358
VSetsuna
p3359
aF1693.7754414607773
aa(lp3360
VCaptain caveman
p3361
aF1694.0119780911057
aa(lp3362
VSodom
p3363
aF1694.0930218393098
aa(lp3364
VCarnage
p3365
aF1694.2433998553763
aa(lp3366
VShiki vp
p3367
aF1694.2888777812004
aa(lp3368
VSpiderman
p3369
aF1694.5400132834518
aa(lp3370
VMech zangief
p3371
aF1694.869836981584
aa(lp3372
VBishop
p3373
aF1694.8820991614716
aa(lp3374
VHibiki
p3375
aF1695.3331718677473
aa(lp3376
VGreen lantern
p3377
aF1695.3707462355255
aa(lp3378
VSasquatch
p3379
aF1695.6200632211783
aa(lp3380
VRajaayuri
p3381
aF1695.675407866192
aa(lp3382
VKung fu fiunn
p3383
aF1696.002548402187
aa(lp3384
VShadowman cfas
p3385
aF1696.226539188469
aa(lp3386
VOnpu segawa
p3387
aF1696.3420923161277
aa(lp3388
VE-terry 71113
p3389
aF1696.800923337108
aa(lp3390
VRare akuma
p3391
aF1697.008730080003
aa(lp3392
VRajaamaki
p3393
aF1697.155293087091
aa(lp3394
VDooby dummy
p3395
aF1697.336121739752
aa(lp3396
VArmored gohan
p3397
aF1697.4311091231734
aa(lp3398
VPyro
p3399
aF1697.80402906319
aa(lp3400
VAlien queen
p3401
aF1697.910491941865
aa(lp3402
VOozura bebi
p3403
aF1698.7863855294559
aa(lp3404
VYamazaki 71113
p3405
aF1698.9825288493842
aa(lp3406
VNega joe
p3407
aF1700.0071239333506
aa(lp3408
VReptile
p3409
aF1700.031665414375
aa(lp3410
VTalon
p3411
aF1700.7188246746455
aa(lp3412
VKraken
p3413
aF1700.9105740976113
aa(lp3414
VIronpatriot
p3415
aF1700.937559429177
aa(lp3416
VRoa
p3417
aF1701.6889851283327
aa(lp3418
VKanae
p3419
aF1701.7301696957663
aa(lp3420
VRyu plus
p3421
aF1701.773365516922
aa(lp3422
VApocalypse
p3423
aF1701.9159781738117
aa(lp3424
VPoppy
p3425
aF1702.3643365450441
aa(lp3426
VGhost rider
p3427
aF1702.4668903983113
aa(lp3428
VMephisto
p3429
aF1703.067056847194
aa(lp3430
VClark
p3431
aF1703.5616445046635
aa(lp3432
VCloud
p3433
aF1703.655116674255
aa(lp3434
VBurter
p3435
aF1703.8765799128719
aa(lp3436
VBilly lee
p3437
aF1704.0530893446685
aa(lp3438
VThe thing
p3439
aF1704.280039634828
aa(lp3440
VGuy
p3441
aF1704.3486390956662
aa(lp3442
VSuper metroid
p3443
aF1704.3733275827308
aa(lp3444
VSion
p3445
aF1704.886771199316
aa(lp3446
VDr.gero
p3447
aF1705.020488017445
aa(lp3448
VRock
p3449
aF1705.5032515884154
aa(lp3450
VEriol hiiragizawa
p3451
aF1705.7404095284621
aa(lp3452
VLucky 71113
p3453
aF1705.8297320262584
aa(lp3454
VIchi
p3455
aF1705.8340383870768
aa(lp3456
VJean grey
p3457
aF1705.894354295317
aa(lp3458
VKouryu
p3459
aF1707.0072197910897
aa(lp3460
VIori 71113
p3461
aF1707.6222396786545
aa(lp3462
VWolverine
p3463
aF1707.7198624777882
aa(lp3464
VAgony
p3465
aF1708.5973262342695
aa(lp3466
VDemitri
p3467
aF1708.7099682351648
aa(lp3468
VOrchid
p3469
aF1709.4508226986045
aa(lp3470
VM. bison
p3471
aF1709.8820834411508
aa(lp3472
VStrider hiryu
p3473
aF1710.476897768802
aa(lp3474
VShin gouki
p3475
aF1710.556545041746
aa(lp3476
VSquall
p3477
aF1711.1659586987569
aa(lp3478
VBlackheart
p3479
aF1711.4809158641372
aa(lp3480
VJimmy lee
p3481
aF1711.534144403483
aa(lp3482
VChizuru kagura
p3483
aF1712.0919741769249
aa(lp3484
VBerserk
p3485
aF1712.324163478149
aa(lp3486
VMarrow
p3487
aF1712.3353836086299
aa(lp3488
VHato sabure
p3489
aF1712.4278006019997
aa(lp3490
VCyborg superman
p3491
aF1712.4580763537372
aa(lp3492
VSentinel
p3493
aF1712.7463956249462
aa(lp3494
VLayla
p3495
aF1715.321965502062
aa(lp3496
VOrochi vega
p3497
aF1716.0954997582287
aa(lp3498
VBlack tiger
p3499
aF1716.1455273734675
aa(lp3500
VHomero
p3501
aF1716.7604206903386
aa(lp3502
VCaptain america
p3503
aF1716.7753154445224
aa(lp3504
VJohnny cage
p3505
aF1716.8610143206429
aa(lp3506
VWarakia
p3507
aF1717.47602476951
aa(lp3508
VDink smallwood
p3509
aF1717.6859284309937
aa(lp3510
VDiablo_skeleton
p3511
aF1718.1855968189209
aa(lp3512
VFlonne
p3513
aF1718.2964006440113
aa(lp3514
VLilith aensland
p3515
aF1718.346803216755
aa(lp3516
VBlaze agent
p3517
aF1718.4917585540866
aa(lp3518
VVergil
p3519
aF1718.5718806250281
aa(lp3520
VMature
p3521
aF1718.648881457994
aa(lp3522
VCable
p3523
aF1718.8336198970449
aa(lp3524
VDr.doom
p3525
aF1718.8749925700938
aa(lp3526
VShin kazuma
p3527
aF1719.0350189821434
aa(lp3528
VArcueid
p3529
aF1719.1006271245067
aa(lp3530
VYue
p3531
aF1719.1803427780874
aa(lp3532
VRai
p3533
aF1720.1895297520507
aa(lp3534
VUltron
p3535
aF1720.2224173781024
aa(lp3536
VMexican typhoon
p3537
aF1721.770314029539
aa(lp3538
VLavos spawn
p3539
aF1722.389227037537
aa(lp3540
VShadow dio
p3541
aF1722.8040565701137
aa(lp3542
VAnakaris
p3543
aF1722.9701580387098
aa(lp3544
VKazama kazuki
p3545
aF1723.2265361815817
aa(lp3546
VDragon claw
p3547
aF1723.5445177908437
aa(lp3548
VNakoruru
p3549
aF1723.7264604156762
aa(lp3550
VCyclops
p3551
aF1723.9987660190973
aa(lp3552
VBullseye
p3553
aF1724.572182433523
aa(lp3554
VHulk
p3555
aF1724.6523939608498
aa(lp3556
VSuper androide 17 hd
p3557
aF1724.8182548522077
aa(lp3558
VK9999
p3559
aF1725.0747049439935
aa(lp3560
VEvil ryu
p3561
aF1725.4098724154985
aa(lp3562
VTerry bogard
p3563
aF1726.0910981302966
aa(lp3564
VDonald
p3565
aF1726.5600008003314
aa(lp3566
VBroken
p3567
aF1726.5815701865558
aa(lp3568
VMb-02
p3569
aF1726.8193540675513
aa(lp3570
VKamek
p3571
aF1727.2360747823434
aa(lp3572
VG-akiha
p3573
aF1727.469073973549
aa(lp3574
VMs. fanservice
p3575
aF1727.9867989894378
aa(lp3576
VDeath ogre
p3577
aF1728.2963504863606
aa(lp3578
VJin saotome
p3579
aF1728.4417428670695
aa(lp3580
VThe flash
p3581
aF1728.7243489850741
aa(lp3582
VSegalow
p3583
aF1728.8927211745408
aa(lp3584
VGoku nex
p3585
aF1729.384818802849
aa(lp3586
VSynn
p3587
aF1729.7081102120362
aa(lp3588
VWonder woman
p3589
aF1730.3328986776187
aa(lp3590
VGohan ssj4
p3591
aF1730.4035692667626
aa(lp3592
VNaruto kun
p3593
aF1730.4184531847918
aa(lp3594
VHisui
p3595
aF1730.874650574312
aa(lp3596
VSuper skrull
p3597
aF1731.045412064728
aa(lp3598
VThe blob
p3599
aF1731.271435285725
aa(lp3600
VGideon
p3601
aF1732.1953611537745
aa(lp3602
VOgre akuma
p3603
aF1732.4348122884307
aa(lp3604
VOssan
p3605
aF1733.0753588455161
aa(lp3606
VZeeky h. bomb
p3607
aF1733.443308251229
aa(lp3608
VSymbiote spider-man
p3609
aF1733.5673873945614
aa(lp3610
VHyper neo-kamek
p3611
aF1733.8620546751006
aa(lp3612
VMongul
p3613
aF1733.9313925996469
aa(lp3614
VHel'lauren
p3615
aF1733.9509041451079
aa(lp3616
VLex luthor
p3617
aF1733.9613461309943
aa(lp3618
VDrdoom
p3619
aF1735.0131493767387
aa(lp3620
VJuggernaut
p3621
aF1735.1460835959113
aa(lp3622
VSaori - athena
p3623
aF1735.6711165284992
aa(lp3624
VMisty
p3625
aF1736.3160713475875
aa(lp3626
VSpiral
p3627
aF1737.0114765559285
aa(lp3628
VAngus
p3629
aF1737.188521883511
aa(lp3630
VSaint kyo
p3631
aF1737.6053023911418
aa(lp3632
VSasuke kun
p3633
aF1738.1258300482382
aa(lp3634
VWell
p3635
aF1739.0587583005797
aa(lp3636
VBarney
p3637
aF1739.466327669625
aa(lp3638
VLion magnus
p3639
aF1739.485752424336
aa(lp3640
VEvil dan
p3641
aF1741.563768836081
aa(lp3642
VSuper mario
p3643
aF1741.7995972259903
aa(lp3644
VNeco-arc
p3645
aF1742.0589049010043
aa(lp3646
VRamon 71113
p3647
aF1742.461144965064
aa(lp3648
VRyu
p3649
aF1743.4409211810882
aa(lp3650
VChiel
p3651
aF1743.5269095629608
aa(lp3652
VCless alvein
p3653
aF1743.798724734302
aa(lp3654
VNrvnqsr chaos
p3655
aF1744.0447167195307
aa(lp3656
VDarkseid
p3657
aF1744.178217582838
aa(lp3658
VKanna
p3659
aF1745.0911418149394
aa(lp3660
VKoryu
p3661
aF1746.0201892320072
aa(lp3662
VDonovan
p3663
aF1746.3921336409398
aa(lp3664
VShishio
p3665
aF1747.1869504042222
aa(lp3666
VGohan  grande normale
p3667
aF1747.5793032461575
aa(lp3668
VThe dazzler
p3669
aF1748.0615644269744
aa(lp3670
VOverlord
p3671
aF1750.203379093455
aa(lp3672
VMaster hand
p3673
aF1750.5789022290617
aa(lp3674
VT. kawk
p3675
aF1752.4499098518652
aa(lp3676
VSonson
p3677
aF1752.7659821949057
aa(lp3678
VG rugal
p3679
aF1753.2586498977294
aa(lp3680
VNail
p3681
aF1753.756475046115
aa(lp3682
VGhetto warmachine
p3683
aF1754.787251851099
aa(lp3684
VRonald
p3685
aF1755.7889848931202
aa(lp3686
VMega weapon
p3687
aF1757.276757837225
aa(lp3688
VOnslaught
p3689
aF1758.9525272948356
aa(lp3690
VPerfect storm x
p3691
aF1762.358074083174
aa(lp3692
VSsj5 goku
p3693
aF1762.78927782699
aa(lp3694
VRadish ssj4
p3695
aF1768.0555906177224
aa(lp3696
VHoly ken
p3697
aF1768.8671785640904
aa(lp3698
VMishio
p3699
aF1770.5024141394717
aa(lp3700
VRemilia
p3701
aF1771.5237920640518
aa(lp3702
VShuma gorath
p3703
aF1773.696874497784
aa(lp3704
VRock volnutt
p3705
aF1774.4617978315296
aa(lp3706
VNero
p3707
aF1775.1162715750295
aa(lp3708
VSandman
p3709
aF1775.5791721049015
aa(lp3710
VPossessed heita
p3711
aF1778.4574816810768
aa(lp3712
VMaster sakura
p3713
aF1779.7027779757218
aa(lp3714
VSilversamurai
p3715
aF1786.498745071512
aa(lp3716
VPatchouli
p3717
aF1786.6760684545486
aa(lp3718
VDaimon 71113
p3719
aF1793.8065239087807
aa(lp3720
VKiller whale
p3721
aF1794.175782122755
aa(lp3722
VChaos hiryu
p3723
aF1794.3743036670874
aa(lp3724
VAlter amiba
p3725
aF1811.5156914119289
aa(lp3726
VSakura kinomoto
p3727
aF1818.354936961699
aa(lp3728
VEvil ken
p3729
aF1838.2334101118408
aatp3730
Rp3731
.