ccollections
OrderedDict
p0
((lp1
(lp2
VGinew
p3
aF1412.6949427885697
aa(lp4
VVegeta ssj1
p5
aF1412.808924572434
aa(lp6
VWindows me
p7
aF1429.1535576840183
aa(lp8
VSuigintou
p9
aF1435.985365711553
aa(lp10
VGoku sb1
p11
aF1444.660601638069
aa(lp12
VCatwoman
p13
aF1446.3970099223109
aa(lp14
VMajin buu
p15
aF1448.7839810607236
aa(lp16
V95
p17
aF1449.1755760290093
aa(lp18
VYellow-pipo
p19
aF1450.3590002199073
aa(lp20
VEdward elrick
p21
aF1450.5058747394114
aa(lp22
VRouge
p23
aF1452.7762496177534
aa(lp24
VMarie
p25
aF1452.8108384463972
aa(lp26
VDante
p27
aF1453.0924558675454
aa(lp28
VPikachu
p29
aF1453.4054454931163
aa(lp30
VHebiitigo
p31
aF1454.3027886057514
aa(lp32
VBlob
p33
aF1455.1057408761324
aa(lp34
VNyaonyao
p35
aF1455.4294259268843
aa(lp36
VDio brando
p37
aF1456.193984339418
aa(lp38
VVisbou
p39
aF1458.5676252608628
aa(lp40
VCell
p41
aF1460.4855751120222
aa(lp42
VGokussj4d
p43
aF1461.655939778399
aa(lp44
VRecoome
p45
aF1461.9407679029086
aa(lp46
VVega
p47
aF1462.3623430814391
aa(lp48
VTao jun
p49
aF1462.5234852266885
aa(lp50
VMaximum frieza
p51
aF1463.565185896687
aa(lp52
VKagome
p53
aF1465.5228478855424
aa(lp54
VTetsuo
p55
aF1465.5400097490042
aa(lp56
VKrillin
p57
aF1468.6501821919965
aa(lp58
VNightmare
p59
aF1469.1332915811042
aa(lp60
VZaku
p61
aF1470.077868596799
aa(lp62
VBlack manta
p63
aF1470.3202894899152
aa(lp64
VHercule gt
p65
aF1470.9868639040455
aa(lp66
VModoi-san
p67
aF1471.4857896435922
aa(lp68
VDinozord
p69
aF1471.7101382253907
aa(lp70
VGogeta ssj
p71
aF1471.7423187901288
aa(lp72
VSinku
p73
aF1472.598914604811
aa(lp74
VSparta_heika
p75
aF1473.1073391712605
aa(lp76
VVanilla ice
p77
aF1474.466976003105
aa(lp78
VAmy
p79
aF1474.570219044276
aa(lp80
VYakui san
p81
aF1475.1950676738743
aa(lp82
VXanmi chan
p83
aF1475.3253683509304
aa(lp84
VBlaster
p85
aF1475.426347650716
aa(lp86
VOmegamon
p87
aF1475.5582831119978
aa(lp88
VSub zero
p89
aF1475.582884546513
aa(lp90
VTrunks
p91
aF1476.8821282565157
aa(lp92
VZidane
p93
aF1477.9573885552034
aa(lp94
VOgitafanada
p95
aF1478.0810243055435
aa(lp96
VX
p97
aF1478.1465913541683
aa(lp98
VE-102r
p99
aF1478.5152171187442
aa(lp100
VSsj4gohan
p101
aF1479.0811005663109
aa(lp102
VYamiyuki
p103
aF1479.4889214845675
aa(lp104
VKumao
p105
aF1479.6981365520585
aa(lp106
VCrono
p107
aF1479.7200059048703
aa(lp108
VGambit
p109
aF1480.1566259973413
aa(lp110
VDrill asamin
p111
aF1481.6838413235494
aa(lp112
VYoshikage killa
p113
aF1484.932931876259
aa(lp114
VMega piccolo
p115
aF1485.382579258718
aa(lp116
VMega gohan
p117
aF1485.518746353288
aa(lp118
VAnother jissou seki
p119
aF1485.8061372283157
aa(lp120
VThink
p121
aF1485.8883976269028
aa(lp122
VBaiken
p123
aF1486.8369793394495
aa(lp124
VShangtsung
p125
aF1487.3520093973887
aa(lp126
VBrainiac
p127
aF1487.4932089251408
aa(lp128
VZemial
p129
aF1487.9996211885848
aa(lp130
VBaldhead
p131
aF1488.4026226517099
aa(lp132
V2ban-tan
p133
aF1488.7231715170312
aa(lp134
VMarle
p135
aF1489.4734147458357
aa(lp136
VSol
p137
aF1489.505139029459
aa(lp138
VKnuckles
p139
aF1489.9224806645689
aa(lp140
VGorunks ssj4
p141
aF1489.9461479932895
aa(lp142
VBabidi
p143
aF1490.6198265471905
aa(lp144
VScorpion
p145
aF1490.8588777472376
aa(lp146
VAsuta-san
p147
aF1491.0672797928378
aa(lp148
VWind
p149
aF1491.325979641884
aa(lp150
VHisui&kohaku;
p151
aF1492.329532327189
aa(lp152
VKid gohan
p153
aF1492.5189005760167
aa(lp154
VMotokoaoyama
p155
aF1493.125728345939
aa(lp156
VKomepo
p157
aF1493.1491223899372
aa(lp158
VCartman
p159
aF1493.1525087758312
aa(lp160
VMr.satan
p161
aF1493.577687196161
aa(lp162
VThunder megazord
p163
aF1493.6778597226976
aa(lp164
VBoo
p165
aF1495.133018406168
aa(lp166
VChipp
p167
aF1495.532164176521
aa(lp168
VB. magic girl
p169
aF1496.315921526395
aa(lp170
VChaos
p171
aF1496.566410538874
aa(lp172
VNobunaga
p173
aF1496.8306147064452
aa(lp174
VPolnareff
p175
aF1497.5830282957902
aa(lp176
VRhino
p177
aF1497.755789439741
aa(lp178
VSponge bob
p179
aF1497.871992698499
aa(lp180
VMagus
p181
aF1498.579862507389
aa(lp182
VNorimaro
p183
aF1499.1009810729388
aa(lp184
V2k
p185
aF1500.34018328222
aa(lp186
VAoi-ko
p187
aF1500.859568289758
aa(lp188
VGoku ssj gt
p189
aF1501.1840000048562
aa(lp190
VSajin
p191
aF1501.2062335358567
aa(lp192
VKanon
p193
aF1501.3286886307276
aa(lp194
VXp(pro)
p195
aF1501.495670906555
aa(lp196
VSango
p197
aF1501.5396992138626
aa(lp198
VV.akiha
p199
aF1501.7317439490043
aa(lp200
VAlucard
p201
aF1501.8352677735802
aa(lp202
VJissou seki
p203
aF1501.8864995652275
aa(lp204
VShadir
p205
aF1501.8972152999875
aa(lp206
VMisery
p207
aF1502.0920336015186
aa(lp208
VGoku normal hd
p209
aF1502.3020718589153
aa(lp210
VChloe
p211
aF1502.7373799962857
aa(lp212
VSimba
p213
aF1502.789769164548
aa(lp214
VBalrog
p215
aF1502.9387660587106
aa(lp216
VBlue ranger
p217
aF1503.2404544396252
aa(lp218
VUryuu
p219
aF1503.656490550403
aa(lp220
VTabasa
p221
aF1503.8095248320599
aa(lp222
VKairi
p223
aF1504.307072688829
aa(lp224
VMunch
p225
aF1504.6189401898566
aa(lp226
VI-no
p227
aF1505.1125094733268
aa(lp228
VRobo-kyii
p229
aF1505.2962983377463
aa(lp230
VMiyazato erika
p231
aF1505.4620629886083
aa(lp232
VMega vegeta
p233
aF1506.0009478612521
aa(lp234
VSuper vegeta
p235
aF1506.0110628680975
aa(lp236
VChibi ubuu
p237
aF1506.0993365757695
aa(lp238
VHyper buu
p239
aF1506.2419030084734
aa(lp240
VZettaiaku
p241
aF1506.3043817411906
aa(lp242
VBrimstone
p243
aF1506.3270010272786
aa(lp244
VVegeta sb1
p245
aF1506.3275215518313
aa(lp246
VAbui
p247
aF1506.872235171323
aa(lp248
VThierry henry
p249
aF1507.0124179856869
aa(lp250
VKakashi
p251
aF1507.081170119991
aa(lp252
VKabal
p253
aF1507.4453193925976
aa(lp254
VEnya
p255
aF1507.6616032731688
aa(lp256
VBishamon
p257
aF1508.1822446732378
aa(lp258
VTen-sing
p259
aF1508.4927345007034
aa(lp260
VBebi vegeta
p261
aF1508.7350709469097
aa(lp262
VGarlic junior
p263
aF1508.8137809849013
aa(lp264
VHarpagos
p265
aF1508.830236644088
aa(lp266
VRecoom
p267
aF1509.328077001482
aa(lp268
VInvisible woman
p269
aF1510.526656999932
aa(lp270
VMedoi-san
p271
aF1511.4962569221461
aa(lp272
VJohnny
p273
aF1511.6753611427864
aa(lp274
VHads
p275
aF1512.1642007489238
aa(lp276
VJagi
p277
aF1512.4670657193224
aa(lp278
VJill
p279
aF1512.644561521301
aa(lp280
VNobuhiko
p281
aF1513.164868906545
aa(lp282
VShuh
p283
aF1513.287575716982
aa(lp284
VFreeza 100%
p285
aF1513.9438916841405
aa(lp286
VSakon
p287
aF1514.0144734334813
aa(lp288
VAlice
p289
aF1514.2709146365382
aa(lp290
VSimonkin2006
p291
aF1514.4471698417601
aa(lp292
VTayuya
p293
aF1514.5506431860663
aa(lp294
VKhan
p295
aF1514.6583002784382
aa(lp296
VMariah
p297
aF1514.715099177314
aa(lp298
VExocist(dnf)
p299
aF1514.8079914584941
aa(lp300
VGold warmachine
p301
aF1515.2795356678641
aa(lp302
VRose
p303
aF1515.6233662270085
aa(lp304
VMio
p305
aF1515.7911779958472
aa(lp306
VRinfa
p307
aF1515.795669987214
aa(lp308
VTakakazu abe
p309
aF1516.2763945358074
aa(lp310
VBack beard
p311
aF1516.5368952231643
aa(lp312
VTakobue
p313
aF1516.5489354768522
aa(lp314
VTenshinham
p315
aF1516.6783866086475
aa(lp316
VSakura shingouji
p317
aF1516.7059211899204
aa(lp318
VGoku kid
p319
aF1516.732046682767
aa(lp320
VCaptain ginyu
p321
aF1517.4211707579195
aa(lp322
VKaguya kimimaro
p323
aF1517.4795146980982
aa(lp324
VAnother iori
p325
aF1517.5119699743532
aa(lp326
V95 no danna
p327
aF1517.532425467579
aa(lp328
VMestre kame
p329
aF1517.5421280647818
aa(lp330
VNoroko
p331
aF1517.5504018104573
aa(lp332
V98
p333
aF1518.2418956194765
aa(lp334
VBatgirl
p335
aF1518.4802038954344
aa(lp336
VTetuwo
p337
aF1518.5054081482097
aa(lp338
VBrian griffin
p339
aF1518.8330476415742
aa(lp340
VIno
p341
aF1518.9414755201901
aa(lp342
VToki
p343
aF1518.9980400415582
aa(lp344
VChange dragon
p345
aF1519.79308461828
aa(lp346
VSuperboy
p347
aF1520.3025698911788
aa(lp348
VLink
p349
aF1520.3119165323003
aa(lp350
VDragon guy
p351
aF1520.533070813729
aa(lp352
VOre
p353
aF1520.584916827239
aa(lp354
V98se
p355
aF1521.1812376846453
aa(lp356
VGarfield
p357
aF1521.5442714105575
aa(lp358
VHeika
p359
aF1521.8586558758584
aa(lp360
VDabura
p361
aF1522.189126059015
aa(lp362
VChill penguin
p363
aF1522.5192023812992
aa(lp364
VMr buu
p365
aF1522.5785969733465
aa(lp366
VLi'l gohan
p367
aF1522.7281303875448
aa(lp368
VShin ryu
p369
aF1522.7805086081796
aa(lp370
VGuy gardner
p371
aF1522.8057902190255
aa(lp372
VAmiba
p373
aF1523.0152234841976
aa(lp374
VHol horse
p375
aF1523.1027401180218
aa(lp376
VDark ryu
p377
aF1523.2198262802947
aa(lp378
VRubber soul
p379
aF1523.3316433453126
aa(lp380
VMegazord
p381
aF1523.7049835420278
aa(lp382
VComplete cell
p383
aF1523.7071509919979
aa(lp384
VPizza
p385
aF1524.161846592713
aa(lp386
VSnoopy
p387
aF1524.333536480416
aa(lp388
VGuerrero divino del dragn
p389
aF1524.3669906248
aa(lp390
VG-bit
p391
aF1524.3815756412816
aa(lp392
VKszsk-shuko
p393
aF1524.4566404180205
aa(lp394
VGoku ssj5
p395
aF1524.4979444801504
aa(lp396
VNeyufeulle
p397
aF1524.7010949071264
aa(lp398
VGoku db
p399
aF1524.8463352238657
aa(lp400
VKid gohan ssj1
p401
aF1524.9536321250037
aa(lp402
VSyo hayate
p403
aF1525.0931424809573
aa(lp404
VHol 'butt king' funtimes
p405
aF1525.1146717474041
aa(lp406
VGobotenn
p407
aF1525.468629438484
aa(lp408
VKoola
p409
aF1525.7589323548332
aa(lp410
VDosu
p411
aF1525.8951343313095
aa(lp412
VAxl
p413
aF1525.9055789031763
aa(lp414
VAngel ryu
p415
aF1526.355278477695
aa(lp416
VWinnie the pooh
p417
aF1526.5062567187144
aa(lp418
VAthena
p419
aF1526.8271955218327
aa(lp420
VBlack polnareff
p421
aF1527.0850972947258
aa(lp422
VHokage
p423
aF1527.3235399862574
aa(lp424
VWhite ranger
p425
aF1527.5233690850835
aa(lp426
VLucca
p427
aF1527.6024020679356
aa(lp428
VShikamaru
p429
aF1527.6312771007308
aa(lp430
VRock howard
p431
aF1527.7896518916996
aa(lp432
VTron bonne
p433
aF1528.701910659449
aa(lp434
VGrover
p435
aF1528.796167855765
aa(lp436
VPachet
p437
aF1528.9063746753245
aa(lp438
VA.b.a
p439
aF1528.98091399287
aa(lp440
VKarin kanzuki
p441
aF1529.2474281522957
aa(lp442
VPiccolo daimaoh
p443
aF1529.5648704040875
aa(lp444
VRusty
p445
aF1529.6978937335666
aa(lp446
VDodoria
p447
aF1529.7285864871014
aa(lp448
VSuperman
p449
aF1529.8563347161341
aa(lp450
VPlastic man
p451
aF1529.8802264391866
aa(lp452
VMickey
p453
aF1530.0679890032638
aa(lp454
VNanaya
p455
aF1530.3988328735065
aa(lp456
VKimberly
p457
aF1530.491779178918
aa(lp458
VInuzuka kiba
p459
aF1530.6819742481398
aa(lp460
VNightwing
p461
aF1530.888310445055
aa(lp462
VTibigintou
p463
aF1531.0297101802382
aa(lp464
VTakuma.s_xiii
p465
aF1531.3377016909194
aa(lp466
VPolaris
p467
aF1531.368463417233
aa(lp468
VWolvenom
p469
aF1531.428878858234
aa(lp470
VRayman
p471
aF1531.659051446595
aa(lp472
VRorschach
p473
aF1531.8586703928165
aa(lp474
VAndroid 18
p475
aF1531.91801910032
aa(lp476
VBanshee
p477
aF1531.9637120400912
aa(lp478
VNaruto
p479
aF1531.9644520282168
aa(lp480
VVenom
p481
aF1532.0234624941743
aa(lp482
VPrincess peach
p483
aF1532.1512540558185
aa(lp484
VRanma saotome
p485
aF1532.3165617228842
aa(lp486
VRouga_zanma
p487
aF1532.4377980514766
aa(lp488
VPhoenix
p489
aF1532.536036486449
aa(lp490
VGrappler_hiyama
p491
aF1533.128397624263
aa(lp492
VAstroboy
p493
aF1533.252987717821
aa(lp494
VSasuke
p495
aF1533.2921586633051
aa(lp496
VGoku kaiouken x4
p497
aF1533.4329732669353
aa(lp498
VDevo
p499
aF1533.4677416826692
aa(lp500
VHigyo-pam
p501
aF1533.504085483995
aa(lp502
VMystia
p503
aF1533.7107595297357
aa(lp504
VWildcat
p505
aF1534.5649195995286
aa(lp506
VYuki in midday
p507
aF1534.7506481390499
aa(lp508
VNenaikodareda
p509
aF1534.7746148386414
aa(lp510
VHinata
p511
aF1534.9697426594996
aa(lp512
VFloren
p513
aF1535.0191211973122
aa(lp514
VMaxima
p515
aF1535.1329446646569
aa(lp516
VSuper boo
p517
aF1535.494790352285
aa(lp518
VReimi jyahana
p519
aF1535.6710375729863
aa(lp520
VGreat saiyaman
p521
aF1535.8399075199322
aa(lp522
VLion-o
p523
aF1535.9574696994318
aa(lp524
VAnna
p525
aF1536.2175029356265
aa(lp526
VFubuki sakuragasaki
p527
aF1536.3077908035082
aa(lp528
VNemesis
p529
aF1536.3284734143729
aa(lp530
VW len ar
p531
aF1536.9324354798794
aa(lp532
VGotenks ssj3
p533
aF1537.20490914891
aa(lp534
VJoseph the b.b.
p535
aF1537.315727735107
aa(lp536
VUzumaki naruto
p537
aF1537.3229461146148
aa(lp538
VYashaoh
p539
aF1537.7052638873602
aa(lp540
VBojack
p541
aF1537.8669490300276
aa(lp542
VRobert
p543
aF1538.3158514454879
aa(lp544
VHuman torch
p545
aF1538.3244762521451
aa(lp546
VIkisan
p547
aF1538.420860354551
aa(lp548
VMayko
p549
aF1538.9881550380717
aa(lp550
VTimmy turner
p551
aF1539.483594754378
aa(lp552
VOjisama-chaos
p553
aF1539.656778731415
aa(lp554
VGoten
p555
aF1540.0793454347256
aa(lp556
VElectro
p557
aF1540.1143523348853
aa(lp558
VDarkon
p559
aF1540.160917837964
aa(lp560
VTerry
p561
aF1540.1710823424255
aa(lp562
VMay
p563
aF1540.972767687032
aa(lp564
VMr burns
p565
aF1541.171959823802
aa(lp566
VRobo-ky
p567
aF1541.2897557466679
aa(lp568
VYoh
p569
aF1541.2947594647019
aa(lp570
VPsylocke
p571
aF1541.4714266828041
aa(lp572
VThe nightmare
p573
aF1541.8013581546265
aa(lp574
VWhite len
p575
aF1541.9478484818644
aa(lp576
VAgito_of_the_dark
p577
aF1542.1232506242488
aa(lp578
VGod ken
p579
aF1542.5097988723376
aa(lp580
VGohan fight money
p581
aF1542.5684745798221
aa(lp582
VUltimate-gohan
p583
aF1542.722826136792
aa(lp584
VAlessi
p585
aF1542.9283738378374
aa(lp586
VKuroko
p587
aF1543.0394686593086
aa(lp588
VSpider girl
p589
aF1543.1507801992666
aa(lp590
VSamurai jack
p591
aF1543.1807469798175
aa(lp592
VMega goku
p593
aF1543.2912819148382
aa(lp594
VSailor moon
p595
aF1543.3473534519167
aa(lp596
VYagumo
p597
aF1543.4134283066846
aa(lp598
VThe joker
p599
aF1543.5182929651608
aa(lp600
VHe-man
p601
aF1543.5187119310838
aa(lp602
VMajin boo
p603
aF1543.5448842468932
aa(lp604
VKen & gang
p605
aF1543.6747060202877
aa(lp606
VMeirin
p607
aF1543.7795175698857
aa(lp608
VPetshop
p609
aF1544.3098920808195
aa(lp610
VPunisher
p611
aF1544.3327407055988
aa(lp612
VHory marlu
p613
aF1544.6682230703495
aa(lp614
VJotaro kujo
p615
aF1544.7489866040096
aa(lp616
VTensinhan
p617
aF1544.8641683853457
aa(lp618
VKy
p619
aF1545.4022758868932
aa(lp620
VLord shaolin lee
p621
aF1545.687083659121
aa(lp622
VPengintou
p623
aF1545.710553370559
aa(lp624
VHideo&kyoko;
p625
aF1545.8424808751756
aa(lp626
VS.p.o. ryu
p627
aF1546.551460619692
aa(lp628
VMorgiana
p629
aF1546.6669249693296
aa(lp630
VSuper sonic
p631
aF1546.6672674496767
aa(lp632
VPoison
p633
aF1546.6944259429013
aa(lp634
VHulk 2099
p635
aF1546.886525284549
aa(lp636
VGoku ssj 3
p637
aF1547.1872757954025
aa(lp638
VDevil_daigo
p639
aF1548.3570607109634
aa(lp640
VShun
p641
aF1548.7492662810434
aa(lp642
VTapion
p643
aF1548.8220118342758
aa(lp644
VSanzou_kongoumaru
p645
aF1548.8275007100642
aa(lp646
VChouji
p647
aF1548.8513748303324
aa(lp648
VWarmachine
p649
aF1549.1549651495332
aa(lp650
VHobgoblin
p651
aF1549.412387026976
aa(lp652
VZarbom
p653
aF1549.6392916761167
aa(lp654
VGaara
p655
aF1549.6638468491506
aa(lp656
VAsahina mikuru
p657
aF1549.725462095139
aa(lp658
VMai
p659
aF1549.973424718845
aa(lp660
VChris sakurigan
p661
aF1550.410492238875
aa(lp662
VNanase(+d)&mayu;
p663
aF1550.8414600431083
aa(lp664
VLeela
p665
aF1550.9613638939936
aa(lp666
VPsychopath kyo
p667
aF1551.00916532923
aa(lp668
VSimonkin2005
p669
aF1551.0142962468374
aa(lp670
VMora
p671
aF1551.3983865519867
aa(lp672
VVegeta normal 2
p673
aF1551.5991739859248
aa(lp674
VAndromeda
p675
aF1551.749634662691
aa(lp676
VJin
p677
aF1551.7723958341355
aa(lp678
VUesugi kensin
p679
aF1551.7767442484148
aa(lp680
VWar machine
p681
aF1552.0109589760928
aa(lp682
VPeter
p683
aF1552.0431519975855
aa(lp684
VRyu hayabusa
p685
aF1552.2087533658128
aa(lp686
VK' xiii
p687
aF1552.5699608321775
aa(lp688
VMyon
p689
aF1552.6099034745037
aa(lp690
VItachi
p691
aF1552.635764143756
aa(lp692
VGoku pce
p693
aF1552.702529907909
aa(lp694
VZatanna
p695
aF1552.7790483911185
aa(lp696
VKano
p697
aF1552.8528840460187
aa(lp698
VPan
p699
aF1553.1711207737342
aa(lp700
VBlanka
p701
aF1553.3844732348166
aa(lp702
VSsj gohan
p703
aF1553.4778544320131
aa(lp704
VKaori&shiori;
p705
aF1553.4989610818943
aa(lp706
VFox mccloud
p707
aF1553.666475623364
aa(lp708
VRen_idagawa
p709
aF1553.7157886835464
aa(lp710
VNayuki minase
p711
aF1553.8388772310975
aa(lp712
VDaffy duck
p713
aF1553.8737395567518
aa(lp714
VFireman
p715
aF1553.9023831994139
aa(lp716
VJustice
p717
aF1553.957353014457
aa(lp718
VMidler
p719
aF1553.996521368762
aa(lp720
VZero svc
p721
aF1554.0872451058697
aa(lp722
VSlayer
p723
aF1554.68038553979
aa(lp724
VEmma frost
p725
aF1554.9758967006949
aa(lp726
VBra
p727
aF1555.0165667672584
aa(lp728
VDark ash
p729
aF1555.2207644526056
aa(lp730
VYuri sakazaki
p731
aF1555.2247352730008
aa(lp732
VKeine
p733
aF1555.2305090403397
aa(lp734
VCell genesis
p735
aF1555.23517590504
aa(lp736
VAkane satomura
p737
aF1555.4180367221047
aa(lp738
VGohan ssj2
p739
aF1555.4524620548013
aa(lp740
VSatori
p741
aF1555.6127344894578
aa(lp742
VKenshiro
p743
aF1555.6414620500996
aa(lp744
VHuninki
p745
aF1555.6634027769755
aa(lp746
VIchijo akari
p747
aF1555.678345789247
aa(lp748
VAtusi
p749
aF1555.8720304237181
aa(lp750
VGoku gt ssj3
p751
aF1556.080967813905
aa(lp752
VRuby heart
p753
aF1556.0817756992785
aa(lp754
VDudley
p755
aF1556.3034401449188
aa(lp756
VEiji kisaragi
p757
aF1556.719992134109
aa(lp758
VGoku sayajin
p759
aF1557.178796334602
aa(lp760
VBurai_yamamoto
p761
aF1557.3223243105117
aa(lp762
VLunasa prismriver
p763
aF1557.5630792845034
aa(lp764
VLipsyncher
p765
aF1557.5639205272998
aa(lp766
VMega and.18
p767
aF1557.6091245492435
aa(lp768
VAmingo
p769
aF1557.642359885007
aa(lp770
VJuri
p771
aF1558.1706408113994
aa(lp772
VBig chicken
p773
aF1558.1890228407044
aa(lp774
VHaku
p775
aF1558.3556470830367
aa(lp776
VSsj goku
p777
aF1558.394856024927
aa(lp778
VKikuri
p779
aF1558.413554991478
aa(lp780
VMoorhunn
p781
aF1559.3323520315441
aa(lp782
VOmega red
p783
aF1559.3421175723013
aa(lp784
VKosmos
p785
aF1559.477536124661
aa(lp786
VEddie
p787
aF1559.5103619167655
aa(lp788
VViuda negra
p789
aF1559.7635862839606
aa(lp790
VManbou
p791
aF1560.0711097404092
aa(lp792
VBlack.t
p793
aF1560.0998489181989
aa(lp794
VSailor neptune
p795
aF1560.3069028520956
aa(lp796
VMamizou
p797
aF1560.3256517654388
aa(lp798
VRaditz
p799
aF1560.5867662460846
aa(lp800
VDark psylocke
p801
aF1560.7832357144773
aa(lp802
VKino
p803
aF1560.871430175024
aa(lp804
VWriggle
p805
aF1561.0136921116325
aa(lp806
VTung fu rue
p807
aF1561.090386364163
aa(lp808
VPicapiedra
p809
aF1561.2793562555023
aa(lp810
VChibi goku
p811
aF1561.3370646268575
aa(lp812
VPiccolo sb1
p813
aF1561.6387430083137
aa(lp814
VShen
p815
aF1561.6429738038407
aa(lp816
VSaya
p817
aF1561.7377692490275
aa(lp818
VRed tornado
p819
aF1561.97204689573
aa(lp820
VSongoku-snk/sf
p821
aF1561.9824611442398
aa(lp822
VKenshirou
p823
aF1562.1033270620503
aa(lp824
VGundam heavy arms
p825
aF1562.142102702986
aa(lp826
VHeita zinnai
p827
aF1562.1673434728104
aa(lp828
VJuda
p829
aF1562.1857334929814
aa(lp830
VDr gero-and20
p831
aF1562.186896074717
aa(lp832
VVegetto ex
p833
aF1562.4016355792235
aa(lp834
VVegeta ssj4
p835
aF1562.5449584599169
aa(lp836
VGreat gohan
p837
aF1563.0437665544525
aa(lp838
VMr. bison
p839
aF1563.259147462059
aa(lp840
VZangya
p841
aF1563.3130133678526
aa(lp842
VJiroubou
p843
aF1563.624738250941
aa(lp844
VTyouunn-shiryu
p845
aF1563.6664678514335
aa(lp846
VMega lilde
p847
aF1563.8729232139588
aa(lp848
VNeji
p849
aF1563.910779753046
aa(lp850
VYamcha
p851
aF1563.9452838804325
aa(lp852
VOjisama
p853
aF1564.0362765654143
aa(lp854
VAndroid 17
p855
aF1564.5298224457092
aa(lp856
VSkeletor
p857
aF1564.5815445192477
aa(lp858
VBeavis
p859
aF1564.6437276250772
aa(lp860
VPredator
p861
aF1564.7158027111154
aa(lp862
VT.hawk
p863
aF1564.752015904019
aa(lp864
VNitori
p865
aF1564.93460048022
aa(lp866
V20 (dr. gero)
p867
aF1564.9788596428066
aa(lp868
VMekazawa
p869
aF1565.023287756842
aa(lp870
VNightmare yamazaki
p871
aF1565.6192704605714
aa(lp872
VZabuza
p873
aF1565.9941985186067
aa(lp874
VHaruno sakura
p875
aF1566.0548611410998
aa(lp876
VRuili
p877
aF1566.2399537009994
aa(lp878
VMetallo
p879
aF1566.2739315477556
aa(lp880
VMarco
p881
aF1566.293040408355
aa(lp882
VSylphie
p883
aF1566.4411592541046
aa(lp884
VGray fly
p885
aF1567.2108509118586
aa(lp886
V009
p887
aF1567.4664241650187
aa(lp888
VLetty whiterock
p889
aF1567.588912166042
aa(lp890
VShin scrub ken
p891
aF1567.721535810232
aa(lp892
VGogeta ssj4
p893
aF1567.771871336427
aa(lp894
VTemari
p895
aF1567.9060274383799
aa(lp896
VBilly_xiii
p897
aF1567.9644762206187
aa(lp898
VLord raptor
p899
aF1567.9826364058304
aa(lp900
VArchetype:earth
p901
aF1568.136944472353
aa(lp902
VDaigo
p903
aF1568.1751492002493
aa(lp904
VTewi_inaba
p905
aF1568.2080594440622
aa(lp906
VHeihachi mishima
p907
aF1568.229477414422
aa(lp908
VGuile
p909
aF1568.2336495540198
aa(lp910
VKagami kyosuke
p911
aF1568.3551321492487
aa(lp912
VP-gohan ssj2
p913
aF1568.5711635685504
aa(lp914
VMurasa
p915
aF1568.625645374262
aa(lp916
VYuri di aaaaaaa
p917
aF1568.63760581431
aa(lp918
VAquaman
p919
aF1568.7912999732469
aa(lp920
VVegeta ultra ssj
p921
aF1568.9728630898403
aa(lp922
VSaba
p923
aF1568.9770069981257
aa(lp924
VIbuki
p925
aF1569.1438950782383
aa(lp926
VElena
p927
aF1569.6903416146672
aa(lp928
VInspector gadget
p929
aF1569.8232903487365
aa(lp930
VReisen
p931
aF1570.0481606710914
aa(lp932
VGreen ranger
p933
aF1570.106683907945
aa(lp934
VM.bison
p935
aF1570.1325137910392
aa(lp936
VAeris ;or if you prefer, use aerith
p937
aF1570.1552987180796
aa(lp938
VSkull-man
p939
aF1570.447317870111
aa(lp940
VSinestro
p941
aF1570.500732458965
aa(lp942
VHenri
p943
aF1570.5048553234997
aa(lp944
VHirasawa_yui
p945
aF1570.6858479488344
aa(lp946
VLelouch
p947
aF1570.8205814450323
aa(lp948
VKyo 71113
p949
aF1570.933320547312
aa(lp950
VKang
p951
aF1571.1915862174737
aa(lp952
VUkitake
p953
aF1571.2793785473252
aa(lp954
VAnji
p955
aF1571.5053797551654
aa(lp956
VMonky d luffy
p957
aF1571.6119543372881
aa(lp958
VNue houjuu
p959
aF1571.639072559086
aa(lp960
VAraki runa
p961
aF1571.645954438755
aa(lp962
VZero
p963
aF1571.9321993443052
aa(lp964
VTiger
p965
aF1572.3637354031448
aa(lp966
VChichi
p967
aF1572.41731045885
aa(lp968
VStarfire
p969
aF1572.5405450662136
aa(lp970
VKyouko
p971
aF1572.5765219848913
aa(lp972
VSupergirl
p973
aF1572.6977992597683
aa(lp974
VTrunks ssj4
p975
aF1572.8137152468616
aa(lp976
VChibi trunks
p977
aF1573.054332501882
aa(lp978
VBlaziken
p979
aF1573.0882672360692
aa(lp980
VArthur
p981
aF1573.1032306593836
aa(lp982
VFoxy
p983
aF1573.4146359127162
aa(lp984
VQueen beryl
p985
aF1573.9339307539572
aa(lp986
VSilver horns
p987
aF1574.2959051617242
aa(lp988
VKanmi chan
p989
aF1574.4126132509991
aa(lp990
VBomber man
p991
aF1574.4171280049122
aa(lp992
VFrog
p993
aF1574.4231104897665
aa(lp994
VChise
p995
aF1574.518966295323
aa(lp996
VElastigirl
p997
aF1574.6833830931382
aa(lp998
VCrashman
p999
aF1574.7841008707562
aa(lp1000
VDodgers
p1001
aF1575.157669615607
aa(lp1002
VSilver samurai
p1003
aF1575.6177510941257
aa(lp1004
VSophitia
p1005
aF1575.6642385240364
aa(lp1006
VTeam nicktoon
p1007
aF1575.7508223857956
aa(lp1008
VMokou
p1009
aF1575.8338614563177
aa(lp1010
VPsycho weapon
p1011
aF1576.7159382781426
aa(lp1012
VTrunks sb1
p1013
aF1576.7468205467735
aa(lp1014
VKarnov
p1015
aF1576.8969261182035
aa(lp1016
VD-rugal
p1017
aF1576.9387843241152
aa(lp1018
VKunagi_tenrou
p1019
aF1577.0868779135562
aa(lp1020
VShe-hulk
p1021
aF1577.2166156380054
aa(lp1022
VHavok
p1023
aF1577.5641790025836
aa(lp1024
VSpawn
p1025
aF1577.5979483811336
aa(lp1026
VChris
p1027
aF1577.5984850255559
aa(lp1028
VKing
p1029
aF1577.6935717664683
aa(lp1030
VNate summers
p1031
aF1577.7819864579967
aa(lp1032
VPrincess Peach
p1033
aF1577.8167441332198
aa(lp1034
VGurocure
p1035
aF1577.9319081604988
aa(lp1036
VMr Satan
p1037
aF1578.0220021916712
aa(lp1038
VTara-gyouza
p1039
aF1578.0427961468374
aa(lp1040
VBlockhead
p1041
aF1578.0583393599013
aa(lp1042
VAlice margatroid
p1043
aF1578.0632175992346
aa(lp1044
VSsjgoku
p1045
aF1578.1860690180665
aa(lp1046
VSaibaman
p1047
aF1578.2606093583906
aa(lp1048
VAntman
p1049
aF1578.2834324218418
aa(lp1050
VHanny
p1051
aF1578.6526311601306
aa(lp1052
VYuki
p1053
aF1578.6583747813224
aa(lp1054
VKyo kusanagi
p1055
aF1578.8892698699547
aa(lp1056
VNormal chibi trunks
p1057
aF1578.9758402410687
aa(lp1058
VPhobos
p1059
aF1578.9902285905725
aa(lp1060
VKaio shin
p1061
aF1579.1256292891537
aa(lp1062
VTrevor spacer
p1063
aF1579.286701258199
aa(lp1064
VKaede
p1065
aF1579.4860108012865
aa(lp1066
VKogasa
p1067
aF1579.73067467755
aa(lp1068
VMako
p1069
aF1579.825452177446
aa(lp1070
VLizardman
p1071
aF1580.052749807063
aa(lp1072
VAvdol ver 2001/01/30 by camrat
p1073
aF1580.066219403993
aa(lp1074
VYatogi tetsu
p1075
aF1580.515849788632
aa(lp1076
VShadow vegeta
p1077
aF1580.6536349868368
aa(lp1078
VElecman
p1079
aF1580.929944678381
aa(lp1080
VSinki
p1081
aF1581.143865986973
aa(lp1082
VDeath maul
p1083
aF1581.1895568118052
aa(lp1084
VZantetsu
p1085
aF1581.6006725379798
aa(lp1086
VBlack ranger
p1087
aF1582.2150047537132
aa(lp1088
VReimu
p1089
aF1582.400339889962
aa(lp1090
VKyon
p1091
aF1582.5547351479954
aa(lp1092
VShino
p1093
aF1582.5575099750054
aa(lp1094
VTails
p1095
aF1582.6695131284168
aa(lp1096
VElongated man
p1097
aF1583.0239562997633
aa(lp1098
VSion_tatari
p1099
aF1583.0475288261189
aa(lp1100
VDee jay
p1101
aF1583.055311211988
aa(lp1102
VSpenoza
p1103
aF1583.2012911377033
aa(lp1104
VButtercup
p1105
aF1583.3794697924016
aa(lp1106
VGotenks ssj
p1107
aF1583.3850782243019
aa(lp1108
VSanae
p1109
aF1583.4001795445524
aa(lp1110
VBootleg ryu
p1111
aF1583.4271830283656
aa(lp1112
VMegaman.exe
p1113
aF1583.5709902716408
aa(lp1114
VGreat sayaman
p1115
aF1583.8656988679033
aa(lp1116
VPotemkin
p1117
aF1583.8949945618085
aa(lp1118
VSuwako moriya
p1119
aF1583.947778263051
aa(lp1120
VJudgement
p1121
aF1583.9881513481546
aa(lp1122
VSpiderman 2099
p1123
aF1584.0045369316351
aa(lp1124
VChrisg sakurigan
p1125
aF1584.129469043409
aa(lp1126
VVegettossj3
p1127
aF1584.3994033903982
aa(lp1128
VScarlet witch
p1129
aF1584.4386183414833
aa(lp1130
VNoriaki kakyoin
p1131
aF1584.4642456854326
aa(lp1132
VFreeza 1st form
p1133
aF1584.5295896646487
aa(lp1134
VSpelunker
p1135
aF1584.5765004560446
aa(lp1136
VGohan gt
p1137
aF1584.5817761186684
aa(lp1138
VPrince vegeta
p1139
aF1584.5981800634763
aa(lp1140
VTokiko
p1141
aF1584.6103393389114
aa(lp1142
VEmerl
p1143
aF1584.6194438444195
aa(lp1144
VNormal sword trunks
p1145
aF1584.698735427917
aa(lp1146
VGhetto Warmachine
p1147
aF1584.7354183443615
aa(lp1148
VDocOck
p1149
aF1584.7467893092917
aa(lp1150
VTakakazu Abe
p1151
aF1584.7483049961086
aa(lp1152
VSuper Buu
p1153
aF1584.7537051982956
aa(lp1154
VSpopovich
p1155
aF1584.7556274349154
aa(lp1156
VNick fury
p1157
aF1584.7900336878631
aa(lp1158
VBardock
p1159
aF1584.9503999003105
aa(lp1160
VFei-long
p1161
aF1584.9849755385612
aa(lp1162
VTest a.i.
p1163
aF1585.078418570716
aa(lp1164
VEiji Kisaragi
p1165
aF1585.0813585727308
aa(lp1166
VAirman
p1167
aF1585.2162422820386
aa(lp1168
VTurles
p1169
aF1585.2502937801703
aa(lp1170
VGreen goblin
p1171
aF1585.2803723781417
aa(lp1172
VKid Gohan
p1173
aF1585.2936763096725
aa(lp1174
VBoulma
p1175
aF1585.4261201095135
aa(lp1176
VMetal Man
p1177
aF1585.4425149153049
aa(lp1178
VLesty
p1179
aF1585.45156747837
aa(lp1180
VShadowcat
p1181
aF1585.6278221529763
aa(lp1182
VSephiroth
p1183
aF1585.6398584191822
aa(lp1184
VFio
p1185
aF1585.715444254015
aa(lp1186
VMomizi
p1187
aF1585.7733120792325
aa(lp1188
VKaren na hito
p1189
aF1585.856160969456
aa(lp1190
VNeco chaos
p1191
aF1585.9300556270607
aa(lp1192
VKiller Whale
p1193
aF1585.9317425750248
aa(lp1194
VGuldo
p1195
aF1586.0258701526564
aa(lp1196
VBebi vegeta form 1
p1197
aF1586.0341823284323
aa(lp1198
VGill
p1199
aF1586.40819815186
aa(lp1200
VLupin the 3rd
p1201
aF1586.4193715806516
aa(lp1202
VGato
p1203
aF1586.6059693805978
aa(lp1204
VBattlemage_[dnf]
p1205
aF1586.6730047044914
aa(lp1206
VCharizard
p1207
aF1586.6810044999925
aa(lp1208
VPicurin
p1209
aF1586.6957515910497
aa(lp1210
VLeonardo
p1211
aF1586.7449860338004
aa(lp1212
VSora
p1213
aF1586.8010817233735
aa(lp1214
VNamek gohan
p1215
aF1586.8113581868954
aa(lp1216
VPegasus di fuoco
p1217
aF1587.0980697683253
aa(lp1218
VIori yagami
p1219
aF1587.2379760043234
aa(lp1220
VToramaru syou
p1221
aF1587.4327448106944
aa(lp1222
VVegeta
p1223
aF1587.5472426554409
aa(lp1224
VOozaru
p1225
aF1587.9237071743016
aa(lp1226
VPepe
p1227
aF1588.2722506534992
aa(lp1228
VLi sheng long
p1229
aF1588.2900060459422
aa(lp1230
VVidel
p1231
aF1588.4117063739282
aa(lp1232
VBenimaru_xiii
p1233
aF1588.5014932648558
aa(lp1234
VAsh
p1235
aF1588.5663046563452
aa(lp1236
VSpider-man 2099
p1237
aF1588.840654573214
aa(lp1238
VKingpin
p1239
aF1589.241766395266
aa(lp1240
VMorfo
p1241
aF1589.3154404296192
aa(lp1242
VDoparmin
p1243
aF1589.4581101129154
aa(lp1244
VSalty goku
p1245
aF1589.633856885701
aa(lp1246
VYuugi
p1247
aF1590.039766224577
aa(lp1248
VLee
p1249
aF1590.08167002192
aa(lp1250
VThanoseid
p1251
aF1590.1359572636245
aa(lp1252
VStorm
p1253
aF1590.8737085943653
aa(lp1254
VHagen
p1255
aF1591.040446298254
aa(lp1256
VWario
p1257
aF1591.1041025300854
aa(lp1258
VVicViper
p1259
aF1591.3025551989574
aa(lp1260
VHwa jai
p1261
aF1591.4102964425024
aa(lp1262
VKen
p1263
aF1591.6195459219136
aa(lp1264
VSentry
p1265
aF1591.7405443013477
aa(lp1266
VBlack Polnareff
p1267
aF1591.8117804123644
aa(lp1268
VYakui San
p1269
aF1591.8250675261702
aa(lp1270
VOjisama-Chaos
p1271
aF1591.8250675261702
aa(lp1272
VUzumaki Naruto
p1273
aF1591.837289183114
aa(lp1274
VGundam Heavy Arms
p1275
aF1591.8428175711974
aa(lp1276
VSon trunks
p1277
aF1591.8505396476821
aa(lp1278
VPopeye
p1279
aF1591.8756320297518
aa(lp1280
VRock Howard
p1281
aF1592.0444915518758
aa(lp1282
VMech Gouki
p1283
aF1592.193415553329
aa(lp1284
VDr Gero and 20
p1285
aF1592.2116549273721
aa(lp1286
VParsee
p1287
aF1592.2291882865452
aa(lp1288
VBlack Adam
p1289
aF1592.348262935135
aa(lp1290
VNormal trunks
p1291
aF1592.352373130004
aa(lp1292
VChibi gohan nex
p1293
aF1592.353959383624
aa(lp1294
VHomer
p1295
aF1592.3559537257406
aa(lp1296
VHydra
p1297
aF1592.3646733765163
aa(lp1298
VBrian Griffin
p1299
aF1592.3686997293614
aa(lp1300
VSonGoku SNK SF
p1301
aF1592.3743723570142
aa(lp1302
VSuper Vegeta
p1303
aF1592.4015679822148
aa(lp1304
VMr Bison
p1305
aF1592.4015679822148
aa(lp1306
VJin Kazama
p1307
aF1592.4015679822148
aa(lp1308
V*Nanaya
p1309
aF1592.4015679822148
aa(lp1310
VXP Pro
p1311
aF1592.4015679822148
aa(lp1312
VLady Deathstrike
p1313
aF1592.4015679822148
aa(lp1314
VFat Albert
p1315
aF1592.4015679822148
aa(lp1316
VMr Karate
p1317
aF1592.4015679822148
aa(lp1318
VHercule GT
p1319
aF1592.4015679822148
aa(lp1320
VKarin Kanzuki
p1321
aF1592.4015679822148
aa(lp1322
VPitt
p1323
aF1592.4732436228558
aa(lp1324
VMaster chief
p1325
aF1592.5126370524529
aa(lp1326
VYuri Di AAAAAA
p1327
aF1592.5303075304382
aa(lp1328
VSSJ Goku
p1329
aF1592.5357917683389
aa(lp1330
VPiccolo Daimaoh
p1331
aF1592.5554360529813
aa(lp1332
VGreen lantern js
p1333
aF1592.5681899397064
aa(lp1334
VSuper #13
p1335
aF1592.6583157319785
aa(lp1336
VAndy_xiii
p1337
aF1592.664433937855
aa(lp1338
VMultiple Man
p1339
aF1592.767947436995
aa(lp1340
VMike Tyson
p1341
aF1592.8823396721475
aa(lp1342
V20 Dr. Gero
p1343
aF1592.9325843771649
aa(lp1344
VGotenks
p1345
aF1593.0020880003713
aa(lp1346
VKoopa Troopa
p1347
aF1593.1119236937702
aa(lp1348
VSyo Hayate
p1349
aF1593.4210535034085
aa(lp1350
VJanemba
p1351
aF1593.433317134855
aa(lp1352
VGold Warmachine
p1353
aF1593.6060131927659
aa(lp1354
VQuicksilver
p1355
aF1593.647135889525
aa(lp1356
V(sman)
p1357
aF1593.7738941901102
aa(lp1358
VBizarro
p1359
aF1594.0203357256503
aa(lp1360
VJeice
p1361
aF1594.0887111312759
aa(lp1362
VCaptain marvell
p1363
aF1594.2717478188379
aa(lp1364
VGohan school
p1365
aF1595.6721869640182
aa(lp1366
VBaby commando
p1367
aF1596.0876889608319
aa(lp1368
VRobert garcia
p1369
aF1596.1325923029224
aa(lp1370
VMeta-knight
p1371
aF1596.282825127394
aa(lp1372
VBulleta
p1373
aF1596.3093672521582
aa(lp1374
VChaka
p1375
aF1596.3210384372958
aa(lp1376
VDonatello
p1377
aF1596.5586929724932
aa(lp1378
VChiaotzu
p1379
aF1596.6649898882888
aa(lp1380
VTifa lockhart
p1381
aF1597.2926175688203
aa(lp1382
VOrione
p1383
aF1597.5554677421428
aa(lp1384
VAnother kyo
p1385
aF1597.9942017738783
aa(lp1386
VIchigo
p1387
aF1598.1239313936096
aa(lp1388
VFlash
p1389
aF1598.1387619624918
aa(lp1390
VErza
p1391
aF1598.2465496363134
aa(lp1392
VGreat s. man
p1393
aF1598.5426834599455
aa(lp1394
VZeroko
p1395
aF1598.6610802534155
aa(lp1396
VYuriesbyfe
p1397
aF1598.7460168590112
aa(lp1398
VZangia
p1399
aF1598.7707017614491
aa(lp1400
VYumi
p1401
aF1598.7941632359916
aa(lp1402
VFirestar
p1403
aF1598.808170710869
aa(lp1404
VHal jordan
p1405
aF1599.124077184471
aa(lp1406
VSailor Jupiter
p1407
aF1599.656858441605
aa(lp1408
VRaoh
p1409
aF1599.7721443204728
aa(lp1410
VBaitang
p1411
aF1599.786954034025
aa(lp1412
VUnknown
p1413
aF1599.9750647212254
aa(lp1414
VGod Ken
p1415
aI1600
aa(lp1416
VVegeta Ultra SSJ
p1417
aI1600
aa(lp1418
V*Marco
p1419
aI1600
aa(lp1420
V*Orione
p1421
aI1600
aa(lp1422
VBender
p1423
aI1600
aa(lp1424
VGotenks SSJ
p1425
aI1600
aa(lp1426
V*Bane
p1427
aI1600
aa(lp1428
VLord Ravenous
p1429
aI1600
aa(lp1430
VVegetto EX
p1431
aI1600
aa(lp1432
VCatwalk
p1433
aI1600
aa(lp1434
V*The Joker
p1435
aI1600
aa(lp1436
VGogeta SSJ2
p1437
aI1600
aa(lp1438
V*Beast
p1439
aI1600
aa(lp1440
VTest2
p1441
aI1600
aa(lp1442
VTest4
p1443
aI1600
aa(lp1444
Vpizza\u005cpizza.def
p1445
aI1600
aa(lp1446
VJones
p1447
aI1600
aa(lp1448
VChun Lee Dark Bolt
p1449
aI1600
aa(lp1450
VHigh Dio
p1451
aI1600
aa(lp1452
VA.B.A.
p1453
aI1600
aa(lp1454
VTao Jun
p1455
aI1600
aa(lp1456
VKaren Na Hito
p1457
aI1600
aa(lp1458
Vgill\u005cgill.def
p1459
aI1600
aa(lp1460
VRuby Heart
p1461
aI1600
aa(lp1462
VTrunks SB1
p1463
aI1600
aa(lp1464
VNeo-arc Chaos
p1465
aI1600
aa(lp1466
VDunbai san
p1467
aI1600
aa(lp1468
VDeathOgre + GhettoWar
p1469
aI1600
aa(lp1470
V*Spiral
p1471
aI1600
aa(lp1472
VGoku Vegeta
p1473
aI1600
aa(lp1474
VKazuya
p1475
aI1600
aa(lp1476
VNate Summers
p1477
aI1600
aa(lp1478
VDio Di Musca
p1479
aI1600
aa(lp1480
VGoku DB
p1481
aI1600
aa(lp1482
V*Superman
p1483
aI1600
aa(lp1484
VVic Viper
p1485
aI1600
aa(lp1486
VRorscach
p1487
aI1600
aa(lp1488
VGreen Lantern GG
p1489
aI1600
aa(lp1490
VSolid Snake
p1491
aI1600
aa(lp1492
VCream
p1493
aI1600
aa(lp1494
VSuper Skrull
p1495
aI1600
aa(lp1496
VSSJ3 Goku
p1497
aI1600
aa(lp1498
VWaha
p1499
aI1600
aa(lp1500
VTung Fu Rue
p1501
aI1600
aa(lp1502
VMinikata Moriya
p1503
aI1600
aa(lp1504
V*Geese
p1505
aI1600
aa(lp1506
VMega Piccolo
p1507
aI1600
aa(lp1508
V*Pegasus Di Fuoco
p1509
aI1600
aa(lp1510
VAraki Runa
p1511
aI1600
aa(lp1512
VThierry Henry
p1513
aI1600
aa(lp1514
VDeath Maul
p1515
aI1600
aa(lp1516
VSadclaps x2
p1517
aI1600
aa(lp1518
VChizuru Kagura
p1519
aI1600
aa(lp1520
VShuma Gorath
p1521
aI1600
aa(lp1522
V*Hydra
p1523
aI1600
aa(lp1524
VChill Penguin
p1525
aI1600
aa(lp1526
V98SE
p1527
aI1600
aa(lp1528
VChibi Goku
p1529
aI1600
aa(lp1530
VGoku SB1
p1531
aI1600
aa(lp1532
VSpider Girl
p1533
aI1600
aa(lp1534
VVegetto
p1535
aI1600
aa(lp1536
VGogeta SSJ
p1537
aI1600
aa(lp1538
VLord Raptor
p1539
aI1600
aa(lp1540
VDark Ryu
p1541
aI1600
aa(lp1542
VBulma
p1543
aI1600
aa(lp1544
VSSJGoku
p1545
aI1600
aa(lp1546
VReimi Jyahana
p1547
aI1600
aa(lp1548
VMega Vegeta
p1549
aI1600
aa(lp1550
VGreat S Man
p1551
aI1600
aa(lp1552
Vgohanex\u005cgohanex.def
p1553
aI1600
aa(lp1554
V*Piccolo Daimaoh
p1555
aI1600
aa(lp1556
VMega Lilde
p1557
aI1600
aa(lp1558
VVegeta Normal 3
p1559
aI1600
aa(lp1560
VYoshikage Killa
p1561
aI1600
aa(lp1562
VMega Gohan
p1563
aI1600
aa(lp1564
VLord Shaolin Lee
p1565
aI1600
aa(lp1566
VPiccolo SB1
p1567
aI1600
aa(lp1568
Vu
p1569
aI1600
aa(lp1570
VShin Gouki
p1571
aI1600
aa(lp1572
V*Super Vegeta
p1573
aI1600
aa(lp1574
VHuman Torch
p1575
aI1600
aa(lp1576
VRamon and Daimon 71113
p1577
aI1600
aa(lp1578
VComplete Cell
p1579
aI1600
aa(lp1580
V*Yuki
p1581
aI1600
aa(lp1582
VChaotzu
p1583
aI1600
aa(lp1584
VHonda Asuka
p1585
aI1600
aa(lp1586
VGreat Saiyaman
p1587
aI1600
aa(lp1588
VShang Tsung
p1589
aI1600
aa(lp1590
VOpera Elmer
p1591
aI1600
aa(lp1592
VMestre Kame
p1593
aI1600
aa(lp1594
VGoku GT SSJ3
p1595
aI1600
aa(lp1596
VS-kyo + Holy Ken
p1597
aI1600
aa(lp1598
VE-102R
p1599
aI1600
aa(lp1600
VHisui&Kohaku;
p1601
aI1600
aa(lp1602
VGohan Zeta
p1603
aI1600
aa(lp1604
VInuzuma Kiba
p1605
aI1600
aa(lp1606
VVenon
p1607
aI1600
aa(lp1608
VAnother Jissou Seki
p1609
aI1600
aa(lp1610
VYayoi
p1611
aI1600
aa(lp1612
V*Predator
p1613
aI1600
aa(lp1614
VVegeta Normal 2
p1615
aI1600
aa(lp1616
VGohan School
p1617
aI1600
aa(lp1618
V*Vanilla Ice
p1619
aI1600
aa(lp1620
VGoku SSJ2
p1621
aI1600
aa(lp1622
VTrevor Spacer
p1623
aI1600
aa(lp1624
VFreeza 1st Form
p1625
aI1600
aa(lp1626
VKara Na Hito
p1627
aI1600
aa(lp1628
VBart
p1629
aI1600
aa(lp1630
VCell Genesis
p1631
aI1600
aa(lp1632
VCaptan Ginew
p1633
aI1600
aa(lp1634
VResume before 12:55am
p1635
aI1600
aa(lp1636
V*Cammy
p1637
aI1600
aa(lp1638
V*Punisher
p1639
aI1600
aa(lp1640
VSailor Venus
p1641
aI1600
aa(lp1642
VSpelunker Sensei
p1643
aI1600
aa(lp1644
VGray Fly 1
p1645
aI1600
aa(lp1646
VSuper Boo
p1647
aI1600
aa(lp1648
VSailor Moon
p1649
aI1600
aa(lp1650
V95 No Danna
p1651
aI1600
aa(lp1652
VBra 1
p1653
aI1600
aa(lp1654
V*Emma Frost
p1655
aI1600
aa(lp1656
VInvisible Woman
p1657
aI1600
aa(lp1658
VVegeth SSJ2
p1659
aI1600
aa(lp1660
V*Mr. Fantastic
p1661
aI1600
aa(lp1662
VVanilla Ice
p1663
aI1600
aa(lp1664
V*Airman
p1665
aI1600
aa(lp1666
VMega And 18
p1667
aI1600
aa(lp1668
VGotenks SSJ3
p1669
aI1600
aa(lp1670
VLion-O
p1671
aI1600
aa(lp1672
VHel Lauren
p1673
aI1600
aa(lp1674
V2Ban-tan
p1675
aI1600
aa(lp1676
VGoku SSJ 3
p1677
aI1600
aa(lp1678
VButthead
p1679
aI1600
aa(lp1680
V*Human Torch
p1681
aI1600
aa(lp1682
VRubber Soul
p1683
aI1600
aa(lp1684
VYellow devil;<-- replace with name to display
p1685
aI1600
aa(lp1686
VSailor Mercury
p1687
aI1600
aa(lp1688
VShadowman CFAS
p1689
aI1600
aa(lp1690
VMega Goku
p1691
aI1600
aa(lp1692
VGinew 2
p1693
aI1600
aa(lp1694
VCell Junior
p1695
aI1600
aa(lp1696
VNate
p1697
aI1600
aa(lp1698
VBack Beard
p1699
aI1600
aa(lp1700
VPetShop
p1701
aF1600.0369792869265
aa(lp1702
VAlter Amiba
p1703
aF1600.045628672448
aa(lp1704
VNeodio
p1705
aF1600.1028543430325
aa(lp1706
VCell jr
p1707
aF1600.112791555209
aa(lp1708
VChibi Gohan Nex
p1709
aF1600.2016250922943
aa(lp1710
VUtsuho reiuji
p1711
aF1600.3187743896758
aa(lp1712
VSamurai Jack
p1713
aF1600.3522289509374
aa(lp1714
VYoutube poop robotnik
p1715
aF1600.380903396573
aa(lp1716
VP Chunli
p1717
aF1600.396057734326
aa(lp1718
VGohan SSJ2
p1719
aF1600.4065551773742
aa(lp1720
VHol Horse
p1721
aF1600.5674798752502
aa(lp1722
VDeath13
p1723
aF1600.6243161150005
aa(lp1724
VMars people
p1725
aF1600.6276677998856
aa(lp1726
VGlacius
p1727
aF1600.6770499216282
aa(lp1728
VTron Bonne
p1729
aF1600.7246279244762
aa(lp1730
VWar Machine
p1731
aF1600.9073643568506
aa(lp1732
VVulture
p1733
aF1600.9145346342093
aa(lp1734
VShin mr. karate
p1735
aF1600.9450530742768
aa(lp1736
VYang
p1737
aF1601.0973120539907
aa(lp1738
VJason Todd
p1739
aF1601.2129172630891
aa(lp1740
VKujo jotaro
p1741
aF1601.2799035016878
aa(lp1742
VSasuke Kun
p1743
aF1601.3094279572747
aa(lp1744
VLord ravenous
p1745
aF1601.3730080844216
aa(lp1746
VSad Claps
p1747
aF1601.4519136360416
aa(lp1748
VBaby Commando
p1749
aF1601.4545454545455
aa(lp1750
VGreen Arrow
p1751
aF1601.4545454545455
aa(lp1752
VYusuke
p1753
aF1601.4545454545455
aa(lp1754
VSakura Shingouji
p1755
aF1601.4545454545455
aa(lp1756
VDragon Guy
p1757
aF1601.5656440710568
aa(lp1758
VTenten
p1759
aF1601.720677610792
aa(lp1760
VVenom Scorpion
p1761
aF1601.9322634686798
aa(lp1762
VSsj4 goten
p1763
aF1601.9570069341391
aa(lp1764
VGoku gt
p1765
aF1602.213510404644
aa(lp1766
VEri_hasumi
p1767
aF1602.2601454775986
aa(lp1768
VTenshi
p1769
aF1602.3652304873165
aa(lp1770
VHina
p1771
aF1602.4126644742544
aa(lp1772
VMr. increible
p1773
aF1602.7506283683736
aa(lp1774
VSailor mercury
p1775
aF1602.7800990545684
aa(lp1776
VVictor
p1777
aF1602.9112594777991
aa(lp1778
VNanaya shiki
p1779
aF1602.9636653635412
aa(lp1780
VMaster Sakura
p1781
aF1602.9972299723684
aa(lp1782
VShin Kazuma
p1783
aF1603.0123935387805
aa(lp1784
VProtoman
p1785
aF1603.1458124571197
aa(lp1786
VButt-head
p1787
aF1603.3434079253916
aa(lp1788
VObsidian
p1789
aF1603.4426526097816
aa(lp1790
VUltraman
p1791
aF1603.5410714230661
aa(lp1792
VLuigi
p1793
aF1603.6405905571
aa(lp1794
VLou
p1795
aF1603.6836981215454
aa(lp1796
VBeast
p1797
aF1603.7093290851033
aa(lp1798
VFirebrand
p1799
aF1603.8943280757023
aa(lp1800
VMakoto
p1801
aF1603.9371647834428
aa(lp1802
VZangief
p1803
aF1604.3247406342416
aa(lp1804
VJon talbain
p1805
aF1604.4883456260975
aa(lp1806
VHawkman
p1807
aF1604.6747020520097
aa(lp1808
VKisume
p1809
aF1604.8951385300159
aa(lp1810
VShin bison
p1811
aF1605.0575761893483
aa(lp1812
VRimururu
p1813
aF1605.0996377203899
aa(lp1814
VWing zero
p1815
aF1605.2091272367823
aa(lp1816
VDespero
p1817
aF1605.2195662881677
aa(lp1818
VBloodrayne
p1819
aF1605.4141376075695
aa(lp1820
VMr. x
p1821
aF1606.1230298316339
aa(lp1822
VHatate_himekaidou
p1823
aF1606.168744462353
aa(lp1824
VMinakata moriya
p1825
aF1606.2159235579766
aa(lp1826
VLilin
p1827
aF1606.3077054397247
aa(lp1828
VGogeta SSJ4
p1829
aF1606.9352873698786
aa(lp1830
VNeco-arc chaos
p1831
aF1607.0305041115812
aa(lp1832
VGoku GT
p1833
aF1607.110288700279
aa(lp1834
VFat albert
p1835
aF1607.1314525686964
aa(lp1836
VSpider-carnage
p1837
aF1607.1519773465518
aa(lp1838
VAngel Ryu
p1839
aF1607.4532270674206
aa(lp1840
VBartman
p1841
aF1607.4614551689324
aa(lp1842
VPrime sentinels
p1843
aF1607.4865099788829
aa(lp1844
VKurama
p1845
aF1607.5800556270478
aa(lp1846
VSalty and Zeroko
p1847
aF1607.612478137967
aa(lp1848
VM-Vegeta SSJ3
p1849
aF1607.6407689140294
aa(lp1850
VDoom Vega
p1851
aF1607.645093904122
aa(lp1852
VJoe Higashi
p1853
aF1607.645093904122
aa(lp1854
VGuile Machine
p1855
aF1607.6490073176449
aa(lp1856
VOmega Tom Hanks
p1857
aF1607.6490073176449
aa(lp1858
VYatogi Tetsu
p1859
aF1607.6566965529134
aa(lp1860
VRaphael
p1861
aF1607.699538164457
aa(lp1862
VGoku kid_ssj
p1863
aF1607.7396790320086
aa(lp1864
VCell (2 forma)
p1865
aF1607.7598963075184
aa(lp1866
VAndroide 18
p1867
aF1607.7627813435297
aa(lp1868
VSlash
p1869
aF1607.8250675261702
aa(lp1870
VGiygas
p1871
aF1607.8290790657013
aa(lp1872
VChosu
p1873
aF1607.8330298350645
aa(lp1874
VBastion
p1875
aF1607.8330298350645
aa(lp1876
VVegeta SSJ4
p1877
aF1607.8330298350645
aa(lp1878
VNega Joe
p1879
aF1607.8485322617796
aa(lp1880
VVegeta SSJ3
p1881
aF1607.9922020206343
aa(lp1882
VAnnie Murakami
p1883
aF1607.9965126642105
aa(lp1884
VYellow-Pipo
p1885
aF1608.000851479545
aa(lp1886
VEvil ranger
p1887
aF1608.0064780372213
aa(lp1888
VMai_K
p1889
aF1608.0194469535602
aa(lp1890
VArmored Gohan
p1891
aF1608.023792313902
aa(lp1892
VMajin Buu
p1893
aF1608.027950194659
aa(lp1894
VShadow Man
p1895
aF1608.033491951137
aa(lp1896
VShadow Vegeta
p1897
aF1608.033491951137
aa(lp1898
VShin Ninja Turtle
p1899
aF1608.033491951137
aa(lp1900
VNormal Chibi Trunks
p1901
aF1608.033491951137
aa(lp1902
VEvil Dan
p1903
aF1608.033491951137
aa(lp1904
VMecha Potemkin
p1905
aF1608.033491951137
aa(lp1906
VRandy M Green
p1907
aF1608.033491951137
aa(lp1908
VOmega tom hanks
p1909
aF1608.033491951137
aa(lp1910
VLast Adult Goku
p1911
aF1608.033491951137
aa(lp1912
VAnother Iori
p1913
aF1608.040369121709
aa(lp1914
VGoku
p1915
aF1608.161201267911
aa(lp1916
VGohan Grande Normale
p1917
aF1608.180595743736
aa(lp1918
VPerfect Storm X
p1919
aF1608.1849450297184
aa(lp1920
VArrange_kano
p1921
aF1608.1886760787759
aa(lp1922
VGogeta SSJ3
p1923
aF1608.2084053466624
aa(lp1924
VGoku ssj4
p1925
aF1608.3486905904479
aa(lp1926
VDr Gero
p1927
aF1608.390630601002
aa(lp1928
VMirai Trunks
p1929
aF1608.4015679822148
aa(lp1930
VMoraga
p1931
aF1608.505119575717
aa(lp1932
VIron Man
p1933
aF1608.555263745771
aa(lp1934
VAbyss
p1935
aF1608.609708310177
aa(lp1936
VRimle
p1937
aF1608.7054088642553
aa(lp1938
VGoten GT
p1939
aF1608.7475246668062
aa(lp1940
VEmma Frost
p1941
aF1608.7475246668062
aa(lp1942
VMega Weapon
p1943
aF1608.7629818516916
aa(lp1944
VCaptain America
p1945
aF1608.8258852441047
aa(lp1946
VAstaroth
p1947
aF1608.8392816690828
aa(lp1948
VKyle dunamis
p1949
aF1608.8710309565322
aa(lp1950
VMarvel spider-man
p1951
aF1608.9155153731435
aa(lp1952
VNamor
p1953
aF1608.9696958872414
aa(lp1954
VAnother Kyo
p1955
aF1609.2092793202783
aa(lp1956
VDark Psylocke
p1957
aF1609.246140107883
aa(lp1958
VSailor mars
p1959
aF1609.3705708695813
aa(lp1960
VBlaze Agent
p1961
aF1609.4210535034085
aa(lp1962
VEvil Ryu
p1963
aF1609.4210535034085
aa(lp1964
VMiyako yoshika
p1965
aF1609.5305783640754
aa(lp1966
VNeo-sephiroth
p1967
aF1609.5402536527547
aa(lp1968
VCless Alvein
p1969
aF1609.6387197140302
aa(lp1970
VCaptain Marvel
p1971
aF1609.6387197140302
aa(lp1972
VKiba
p1973
aF1609.7890041539545
aa(lp1974
VAlien Queen
p1975
aF1609.9259469631506
aa(lp1976
VHotaru futaba
p1977
aF1610.082437767123
aa(lp1978
VT Kawk
p1979
aF1610.1342183135685
aa(lp1980
VVegeth ssj2
p1981
aF1610.1695372091503
aa(lp1982
VBlack mask
p1983
aF1610.526529617722
aa(lp1984
VJason todd
p1985
aF1610.9511917808384
aa(lp1986
VMinis mahn
p1987
aF1611.1405136019018
aa(lp1988
VThe Flash
p1989
aF1611.3250621694515
aa(lp1990
VOrochi
p1991
aF1611.340798949112
aa(lp1992
VKoopa troopa
p1993
aF1611.5232445777658
aa(lp1994
VCrilin sposato
p1995
aF1611.7885005114722
aa(lp1996
VLucky 711131
p1997
aF1611.9886718122193
aa(lp1998
VVita
p1999
aF1612.0142832960173
aa(lp2000
VAthena asamiya
p2001
aF1612.0486910197408
aa(lp2002
VMordecai
p2003
aF1612.1087508704538
aa(lp2004
VByakuya
p2005
aF1612.1309616452918
aa(lp2006
VIwao
p2007
aF1612.2458745833155
aa(lp2008
VElisabeth blanctorche xiii
p2009
aF1612.4868354321716
aa(lp2010
VSagat
p2011
aF1612.6962768553713
aa(lp2012
VJess
p2013
aF1612.9868553357576
aa(lp2014
VGohan ssj5
p2015
aF1613.0737903181011
aa(lp2016
VGajeel
p2017
aF1613.1481044273007
aa(lp2018
VRumia
p2019
aF1613.1607352559324
aa(lp2020
VRegina
p2021
aF1613.4169870161027
aa(lp2022
VMr.karate
p2023
aF1613.5155239753424
aa(lp2024
VNatsu
p2025
aF1613.5432882486343
aa(lp2026
VSabretooth
p2027
aF1613.8451841174428
aa(lp2028
VCyborg_mai
p2029
aF1613.965805797789
aa(lp2030
VArcher
p2031
aF1613.9695630437934
aa(lp2032
VM-vegeta-ssj3
p2033
aF1614.0066742697495
aa(lp2034
VSeth
p2035
aF1614.113266410595
aa(lp2036
VFelicia
p2037
aF1614.2245810379075
aa(lp2038
VGiro
p2039
aF1614.8437257828598
aa(lp2040
VRoomi
p2041
aF1614.947172491705
aa(lp2042
VSolid snake
p2043
aF1615.1592055027747
aa(lp2044
VBattle mahoro
p2045
aF1615.1934965265787
aa(lp2046
VBasara
p2047
aF1615.255707863313
aa(lp2048
VRin natsume
p2049
aF1615.3150652682618
aa(lp2050
VMarisa Kirisame
p2051
aF1615.3226902751776
aa(lp2052
VRyuho
p2053
aF1615.3823034913466
aa(lp2054
VViolent Dan
p2055
aF1615.498429075089
aa(lp2056
VVenom scorpion
p2057
aF1615.6330038548926
aa(lp2058
VGreen Latern GG
p2059
aF1615.6802431450558
aa(lp2060
VYellow devil
p2061
aF1615.7069115878078
aa(lp2062
VChaos Hiryu
p2063
aF1615.7645335827085
aa(lp2064
VLi Sheng Long
p2065
aF1615.8084471469501
aa(lp2066
VPrincess silver
p2067
aF1615.8388599142243
aa(lp2068
VGoku SSJ4 DB Final Bout
p2069
aF1615.8485469214186
aa(lp2070
VMajin Vegeta
p2071
aF1615.8485469214186
aa(lp2072
VBurta
p2073
aF1615.9074139910265
aa(lp2074
VHarley quinn
p2075
aF1615.9692553025188
aa(lp2076
VBlack Tiger
p2077
aF1615.996737858116
aa(lp2078
V*Chameleon
p2079
aI1616
aa(lp2080
VG-Rugal
p2081
aI1616
aa(lp2082
VJamian Di Corvus
p2083
aI1616
aa(lp2084
V*Krauser
p2085
aI1616
aa(lp2086
V*Prime Sentinels
p2087
aI1616
aa(lp2088
VSuper Goku
p2089
aI1616
aa(lp2090
VSatsuki Yumiduka
p2091
aI1616
aa(lp2092
VNero Chaos
p2093
aI1616
aa(lp2094
V*Hal Jordan
p2095
aI1616
aa(lp2096
VSSJ3 Broli
p2097
aI1616
aa(lp2098
VNeco-arc Chaos
p2099
aI1616
aa(lp2100
VRedLantern\u005cRedLantern.def
p2101
aI1616
aa(lp2102
VBB Hood
p2103
aI1616
aa(lp2104
VNeo Sephiroth
p2105
aI1616
aa(lp2106
VAracne De Tarantula
p2107
aI1616
aa(lp2108
V*Son Goku
p2109
aI1616
aa(lp2110
VMai Shiranui
p2111
aI1616
aa(lp2112
VEiko Magami
p2113
aI1616
aa(lp2114
VTest1
p2115
aI1616
aa(lp2116
VTest3
p2117
aI1616
aa(lp2118
VStrider Hiryu
p2119
aI1616
aa(lp2120
VMegaman.EXE
p2121
aI1616
aa(lp2122
V*Saito
p2123
aI1616
aa(lp2124
VGuerrero Divino
p2125
aI1616
aa(lp2126
VGoku Sayajin
p2127
aI1616
aa(lp2128
VFuture Trunks
p2129
aI1616
aa(lp2130
VKurokishi
p2131
aI1616
aa(lp2132
V*Android 16
p2133
aI1616
aa(lp2134
VGohan SSJ4
p2135
aI1616
aa(lp2136
VGohan SSJ3
p2137
aI1616
aa(lp2138
V*Miss Marvel
p2139
aI1616
aa(lp2140
VNanaya Shiki
p2141
aI1616
aa(lp2142
VBlue Destiny 2
p2143
aI1616
aa(lp2144
VKazuya Mishima
p2145
aI1616
aa(lp2146
VGoku SSJ GT
p2147
aI1616
aa(lp2148
VAku Amakusa
p2149
aI1616
aa(lp2150
VOgre Akuma
p2151
aI1616
aa(lp2152
VYumeji Kurokouchi
p2153
aI1616
aa(lp2154
VMoleman\u005cMoleman.def
p2155
aI1616
aa(lp2156
VNagato Yuki
p2157
aI1616
aa(lp2158
VOrochi Iori
p2159
aI1616
aa(lp2160
VKanmi Chan
p2161
aI1616
aa(lp2162
VTara-Gyouza
p2163
aI1616
aa(lp2164
VGreen Devil
p2165
aI1616
aa(lp2166
VOnpu Segawa
p2167
aI1616
aa(lp2168
VYoko Yuki
p2169
aI1616
aa(lp2170
VDee Jay
p2171
aI1616
aa(lp2172
VMusashi Akatsuki
p2173
aI1616
aa(lp2174
VTrunks SSJ4
p2175
aI1616
aa(lp2176
VLex Luthor
p2177
aI1616
aa(lp2178
VYellow Devil
p2179
aI1616
aa(lp2180
VStrider Hien
p2181
aI1616
aa(lp2182
V*Heihachi
p2183
aI1616
aa(lp2184
VGohan GT
p2185
aI1616
aa(lp2186
VCyborg Superman
p2187
aI1616
aa(lp2188
VYuki in Midday
p2189
aI1616
aa(lp2190
VMotoko-Aoyama
p2191
aI1616
aa(lp2192
VShiki VP
p2193
aI1616
aa(lp2194
VMr. Bison
p2195
aI1616
aa(lp2196
V*Moleman
p2197
aI1616
aa(lp2198
VLynn Baker
p2199
aI1616
aa(lp2200
VRobo-Kyii
p2201
aI1616
aa(lp2202
VP-Gohan SSJ2
p2203
aI1616
aa(lp2204
VSSJ5 Goku
p2205
aI1616
aa(lp2206
VGreat S man
p2207
aI1616
aa(lp2208
VShiki Tohno
p2209
aI1616
aa(lp2210
VNostalgic ballz
p2211
aI1616
aa(lp2212
VIron Lantern
p2213
aI1616
aa(lp2214
V*Felicia
p2215
aI1616
aa(lp2216
VPrime Sentinels
p2217
aI1616
aa(lp2218
VSub-Zero
p2219
aI1616
aa(lp2220
VJimmy Lee
p2221
aI1616
aa(lp2222
VJotaro Kujo
p2223
aI1616
aa(lp2224
VUsapi
p2225
aI1616
aa(lp2226
V*Sagat MB-02
p2227
aI1616
aa(lp2228
VNoriaki Kakyoin
p2229
aI1616
aa(lp2230
VJoseph the BB
p2231
aI1616
aa(lp2232
Vcellhd\u005ccellhd.def
p2233
aI1616
aa(lp2234
VCyborg Mai
p2235
aI1616
aa(lp2236
VSaori - Athena
p2237
aI1616
aa(lp2238
VGreen Lantern JS
p2239
aI1616
aa(lp2240
VViuda Negra
p2241
aI1616
aa(lp2242
VRadish SSJ4
p2243
aI1616
aa(lp2244
VD-Rugal
p2245
aI1616
aa(lp2246
VCyborg_Mai
p2247
aI1616
aa(lp2248
VKazuki
p2249
aI1616
aa(lp2250
VOozura Vegeta
p2251
aI1616
aa(lp2252
VSaori-Athena
p2253
aI1616
aa(lp2254
VSymbiote onslaught
p2255
aI1616
aa(lp2256
VThe Joker
p2257
aI1616
aa(lp2258
VBlack Cat
p2259
aI1616
aa(lp2260
VBig Chicken
p2261
aI1616
aa(lp2262
VShin Ryu
p2263
aI1616
aa(lp2264
VUltimate Gohan
p2265
aI1616
aa(lp2266
VLisa
p2267
aI1616
aa(lp2268
VMr. Fantastic
p2269
aI1616
aa(lp2270
VRobo Rock
p2271
aI1616
aa(lp2272
VKung Lao
p2273
aI1616
aa(lp2274
V*Warmachine
p2275
aI1616
aa(lp2276
VKen and Gang
p2277
aI1616
aa(lp2278
VGod Yuri
p2279
aI1616
aa(lp2280
VShin Bison
p2281
aI1616
aa(lp2282
VGreat Sayaman
p2283
aI1616
aa(lp2284
VInsane Hiryu
p2285
aI1616
aa(lp2286
VUppercut x2
p2287
aI1616
aa(lp2288
VBomber Man
p2289
aI1616
aa(lp2290
VRyu Plus
p2291
aI1616
aa(lp2292
VGoku Nex
p2293
aI1616
aa(lp2294
VEvil Ken and Ryu
p2295
aI1616
aa(lp2296
V*Cyborg Superman
p2297
aI1616
aa(lp2298
VAmi BF
p2299
aI1616
aa(lp2300
VRobo Ky
p2301
aI1616
aa(lp2302
V*Donovan
p2303
aI1616
aa(lp2304
VSSJ Gohan
p2305
aI1616
aa(lp2306
VGohan Saiya Jin EX
p2307
aI1616
aa(lp2308
VMSakura + PstormX
p2309
aI1616
aa(lp2310
VSadClaps + AltAmiba
p2311
aI1616
aa(lp2312
V*Bullseye
p2313
aI1616
aa(lp2314
V*Kim
p2315
aI1616
aa(lp2316
VMech Hisui
p2317
aI1616
aa(lp2318
VJoseph Joestar
p2319
aI1616
aa(lp2320
VZero Hotaru
p2321
aI1616
aa(lp2322
VCell Frieza
p2323
aI1616
aa(lp2324
VBra 2
p2325
aI1616
aa(lp2326
VJon Talbain
p2327
aI1616
aa(lp2328
VGray Fly 2
p2329
aI1616
aa(lp2330
VDrDoom
p2331
aI1616
aa(lp2332
VMai K
p2333
aI1616
aa(lp2334
VWild Ken Ex
p2335
aI1616
aa(lp2336
VKagami Kyosuke
p2337
aI1616
aa(lp2338
VChibi Ubuu
p2339
aI1616
aa(lp2340
VGinew 1
p2341
aI1616
aa(lp2342
VNorimaru
p2343
aI1616
aa(lp2344
VI-No
p2345
aI1616
aa(lp2346
VHyoga De Cisne
p2347
aI1616
aa(lp2348
VNamek Gohan
p2349
aI1616
aa(lp2350
VDark Chun Li
p2351
aI1616
aa(lp2352
VKoopa Troppa
p2353
aI1616
aa(lp2354
V*Maraiah
p2355
aI1616
aa(lp2356
V*Rajaamaki
p2357
aI1616
aa(lp2358
VNrvnqsr Chaos
p2359
aI1616
aa(lp2360
VManamana
p2361
aI1616
aa(lp2362
V*Kagami Kyosuke
p2363
aI1616
aa(lp2364
VWhite Len
p2365
aI1616
aa(lp2366
VSnake Eyes
p2367
aI1616
aa(lp2368
VCaptain Caveman
p2369
aI1616
aa(lp2370
VAku-Amakusa
p2371
aI1616
aa(lp2372
V*Zangief Maskered
p2373
aI1616
aa(lp2374
VDr. Doom
p2375
aI1616
aa(lp2376
VResume on or after 12:55am
p2377
aI1616
aa(lp2378
VSean Matsuda
p2379
aI1616
aa(lp2380
VSSJ4 Gogeta
p2381
aI1616
aa(lp2382
VWakamoto
p2383
aI1616
aa(lp2384
VMars People
p2385
aI1616
aa(lp2386
VWinnie the Pooh
p2387
aI1616
aa(lp2388
VWing Zero
p2389
aF1616.0284977497868
aa(lp2390
VSuper Mario
p2391
aF1616.1760257302128
aa(lp2392
VAdon
p2393
aF1616.192714791265
aa(lp2394
VCheap Boss Type
p2395
aF1616.3324597906906
aa(lp2396
VRock Volnutt
p2397
aF1616.4086770536353
aa(lp2398
VSuper soldier
p2399
aF1616.4692931137893
aa(lp2400
VSon gohan
p2401
aF1616.5736497628636
aa(lp2402
VAmi bf
p2403
aF1616.6114823126486
aa(lp2404
VSean matsuda
p2405
aF1616.7183073931255
aa(lp2406
VJay Garrick
p2407
aF1617.0335305187705
aa(lp2408
VStrong guy
p2409
aF1617.2349430110767
aa(lp2410
VHiedano akyu
p2411
aF1617.2369549401196
aa(lp2412
VShermie
p2413
aF1617.2630653302786
aa(lp2414
VDoomsday
p2415
aF1617.4481913544657
aa(lp2416
VBatman Beyond
p2417
aF1617.4545454545455
aa(lp2418
VOmega Red
p2419
aF1617.4545454545455
aa(lp2420
VEriol Hiiragizawa
p2421
aF1617.4545454545455
aa(lp2422
VThe Thing
p2423
aF1617.4545454545455
aa(lp2424
VJohnny Cage
p2425
aF1617.4545454545455
aa(lp2426
VChibiko
p2427
aF1617.4545454545455
aa(lp2428
V*Jay Garrick
p2429
aF1617.4545454545455
aa(lp2430
VVanilla H
p2431
aF1617.4545454545455
aa(lp2432
VPaul Phoenix
p2433
aF1617.4545454545455
aa(lp2434
VLion Magnus
p2435
aF1617.4545454545455
aa(lp2436
VKujo Jotaro
p2437
aF1617.4545454545455
aa(lp2438
VM Bison
p2439
aF1617.4545454545455
aa(lp2440
VMiss Marvel
p2441
aF1617.4545454545455
aa(lp2442
VTyouun Shiryu
p2443
aF1617.4545454545455
aa(lp2444
VStrong Guy
p2445
aF1617.4545454545455
aa(lp2446
VR Lilith
p2447
aF1617.4545454545455
aa(lp2448
VZangief Maskered
p2449
aF1617.4545454545455
aa(lp2450
VYoutube Poop Robotnik
p2451
aF1617.4545454545455
aa(lp2452
VHeihachi
p2453
aF1617.4545454545455
aa(lp2454
VPiccolo
p2455
aF1617.5483629740193
aa(lp2456
VRobo rock
p2457
aF1617.580967029869
aa(lp2458
VMajin vegeta ssj6
p2459
aF1617.6164859736546
aa(lp2460
VKyo
p2461
aF1617.6284138426802
aa(lp2462
VShocker
p2463
aF1618.2874351899052
aa(lp2464
VOrochi iori
p2465
aF1618.3566177545829
aa(lp2466
VIk borodin
p2467
aF1618.3570531708344
aa(lp2468
VYuyuko & youmu
p2469
aF1618.8274419982135
aa(lp2470
VGogeta ssj2
p2471
aF1619.1007884161027
aa(lp2472
V'gou no ken' kenshirou
p2473
aF1619.334640505887
aa(lp2474
VMimic
p2475
aF1619.4240800088885
aa(lp2476
VVegeta ssj5
p2477
aF1619.6028398267704
aa(lp2478
VAmi
p2479
aF1619.8725486184055
aa(lp2480
VZombie
p2481
aF1620.1980169086894
aa(lp2482
VHanyuu
p2483
aF1620.3268993215086
aa(lp2484
VSangoku
p2485
aF1620.9647087890348
aa(lp2486
VDhalsim
p2487
aF1621.0037611462299
aa(lp2488
VKensou
p2489
aF1621.0738084697368
aa(lp2490
VCactuar
p2491
aF1621.1988737227155
aa(lp2492
VAchi cirno
p2493
aF1621.2640753768942
aa(lp2494
VCv wakamoto
p2495
aF1621.3373422569127
aa(lp2496
VHijiri byakuren
p2497
aF1621.4474393908615
aa(lp2498
VFuture trunks
p2499
aF1621.4591349778227
aa(lp2500
VBass
p2501
aF1621.5227034910386
aa(lp2502
VVivi_ornitier
p2503
aF1621.5677641748132
aa(lp2504
VHisame shizumaru
p2505
aF1621.648473044746
aa(lp2506
VChomper
p2507
aF1621.7061614822503
aa(lp2508
VTaki
p2509
aF1621.9107647414683
aa(lp2510
VSub-zero
p2511
aF1622.2278473570004
aa(lp2512
VSon Gohan
p2513
aF1622.2949262890018
aa(lp2514
VHayato
p2515
aF1622.321240146708
aa(lp2516
VNinja megazord
p2517
aF1622.411127600929
aa(lp2518
VLilith
p2519
aF1622.6995395070865
aa(lp2520
VVegeta normal 3
p2521
aF1622.797865710772
aa(lp2522
VKenshin
p2523
aF1622.9115744767105
aa(lp2524
VUltra SSJ5 Vegeta
p2525
aF1623.1041849692574
aa(lp2526
VAndroide 17
p2527
aF1623.145143786247
aa(lp2528
VVice
p2529
aF1623.1790711831543
aa(lp2530
VPerfect Cell
p2531
aF1623.2914497623742
aa(lp2532
VMilan Flare
p2533
aF1623.2951558089576
aa(lp2534
VGengetu
p2535
aF1623.3961089878924
aa(lp2536
VSsj3 goku
p2537
aF1623.411497461286
aa(lp2538
VAVDOL VER2001
p2539
aF1623.65972027427
aa(lp2540
VEvil Ken
p2541
aF1623.8485322617796
aa(lp2542
VAndore Jr
p2543
aF1623.8485322617796
aa(lp2544
VNmori yagami
p2545
aF1623.9557067367805
aa(lp2546
VBlue destiny 2
p2547
aF1623.9906409179473
aa(lp2548
VHoly Ken
p2549
aF1624.033491951137
aa(lp2550
VFat boo
p2551
aF1624.1065635834896
aa(lp2552
VKaede_hioh
p2553
aF1624.1514430205889
aa(lp2554
VThe Blob
p2555
aF1624.1882185927086
aa(lp2556
VClark steel
p2557
aF1624.252334516741
aa(lp2558
VWakko
p2559
aF1624.307227949188
aa(lp2560
VRox Howard Clones
p2561
aF1624.3778246038767
aa(lp2562
VArrange_remilia
p2563
aF1624.4005202612764
aa(lp2564
VEmerald
p2565
aF1624.435916134517
aa(lp2566
VIggy
p2567
aF1624.4831800421568
aa(lp2568
VMaster Hand
p2569
aF1624.674297665153
aa(lp2570
VBlack Widow
p2571
aF1624.7721715453201
aa(lp2572
VG Rugal
p2573
aF1624.8786770795525
aa(lp2574
VKing Godzilla
p2575
aF1624.8786770795525
aa(lp2576
VYuyuko saigyouji
p2577
aF1624.8814452882539
aa(lp2578
VMech Zangief
p2579
aF1624.9011163625523
aa(lp2580
VSerika
p2581
aF1624.959488294207
aa(lp2582
VDora
p2583
aF1624.983291366609
aa(lp2584
VMinis Mahn
p2585
aF1625.237670832597
aa(lp2586
VShiori misaka
p2587
aF1625.279504147249
aa(lp2588
VNagato yuki
p2589
aF1625.290769391016
aa(lp2590
VJay garrick
p2591
aF1625.339888398414
aa(lp2592
VMexican Typhoon
p2593
aF1625.4545454545455
aa(lp2594
VDeath Ogre
p2595
aF1625.4545454545455
aa(lp2596
VNeco
p2597
aF1625.740222866276
aa(lp2598
VMr satan
p2599
aF1626.0096319661363
aa(lp2600
VFlandre scarlet
p2601
aF1626.1889938034428
aa(lp2602
VScarecrow
p2603
aF1626.2235638604093
aa(lp2604
VZangyura
p2605
aF1626.3920065655404
aa(lp2606
VLobo
p2607
aF1626.5103128699618
aa(lp2608
VWaha-
p2609
aF1626.8356509759046
aa(lp2610
VArthas
p2611
aF1627.2720923219945
aa(lp2612
VBlossom
p2613
aF1627.3788032092507
aa(lp2614
VNanoha takamachi
p2615
aF1627.4862220362777
aa(lp2616
VGoku ssj2
p2617
aF1627.500613455916
aa(lp2618
VJoe higashi
p2619
aF1627.6138364872304
aa(lp2620
VJuan
p2621
aF1627.7186903112008
aa(lp2622
VKira daidoji
p2623
aF1628.1567869083547
aa(lp2624
VColossus
p2625
aF1628.2211866757686
aa(lp2626
VIsaiah bradley
p2627
aF1628.4572344235291
aa(lp2628
VSuika ibuki
p2629
aF1628.4941668596227
aa(lp2630
VEagle
p2631
aF1628.563745552511
aa(lp2632
VBatman beyond
p2633
aF1628.678016712771
aa(lp2634
VLady deathstrike
p2635
aF1628.7853922028721
aa(lp2636
VCell junior
p2637
aF1629.0609863928303
aa(lp2638
VVegeth@
p2639
aF1629.243715800106
aa(lp2640
VDiablo
p2641
aF1629.3080967079577
aa(lp2642
VSakuya_swr
p2643
aF1629.445497984332
aa(lp2644
VKim kaphwan
p2645
aF1629.4635059173713
aa(lp2646
VDio
p2647
aF1629.5228971042743
aa(lp2648
VRan yakumo
p2649
aF1629.575271425546
aa(lp2650
VDare devil
p2651
aF1629.7513246680574
aa(lp2652
VHaohmaru
p2653
aF1629.8297592134422
aa(lp2654
VMiko
p2655
aF1630.074917360322
aa(lp2656
VSeravy
p2657
aF1630.3848752081938
aa(lp2658
VKanako yasaka
p2659
aF1630.5198439821158
aa(lp2660
VInsane hiryu
p2661
aF1630.606520581164
aa(lp2662
VShikieiki yamaxanadu
p2663
aF1630.7390209791076
aa(lp2664
VSon Trunks
p2665
aF1630.7474166579796
aa(lp2666
VBiohazard
p2667
aF1630.7686502598258
aa(lp2668
VMima
p2669
aF1630.9304811019356
aa(lp2670
VShadow Dio
p2671
aF1630.9494032515734
aa(lp2672
VAkuma
p2673
aF1630.9511641152146
aa(lp2674
VChaos blanka
p2675
aF1630.991548259145
aa(lp2676
VMilan flare
p2677
aF1631.2015323339433
aa(lp2678
VGodzilla
p2679
aF1631.2183616750578
aa(lp2680
VGoten gt
p2681
aF1631.270404010491
aa(lp2682
VRenamon
p2683
aF1631.4591680313006
aa(lp2684
VNagae iku
p2685
aF1631.6062688491281
aa(lp2686
VKuma
p2687
aF1631.6261164775028
aa(lp2688
VSSJ4 Goten
p2689
aI1632
aa(lp2690
VKazama Kazuki
p2691
aI1632
aa(lp2692
VZero hotaru
p2693
aI1632
aa(lp2694
VPegAAAAAAsus x2
p2695
aI1632
aa(lp2696
VThe Nightmare
p2697
aI1632
aa(lp2698
VJyakku no keshin dio
p2699
aI1632
aa(lp2700
VYuri di AAAA
p2701
aI1632
aa(lp2702
VJin Saotome
p2703
aI1632
aa(lp2704
VNash Shadow
p2705
aI1632
aa(lp2706
VEliza
p2707
aF1632.1605077371023
aa(lp2708
VC-19
p2709
aF1632.2973504101685
aa(lp2710
VE. honda
p2711
aF1632.3264684183414
aa(lp2712
VGalactus
p2713
aF1632.4771090973377
aa(lp2714
VMedicine melancholy
p2715
aF1632.5265182559995
aa(lp2716
VKung lao
p2717
aF1632.7459283081907
aa(lp2718
VRyoko asakura
p2719
aF1633.0016792607755
aa(lp2720
VMichaelangelo
p2721
aF1633.0234274438594
aa(lp2722
VJack frost
p2723
aF1633.0339743341992
aa(lp2724
VBlack adam
p2725
aF1633.0653001877815
aa(lp2726
VOmega
p2727
aF1633.2238444125253
aa(lp2728
VMegaman
p2729
aF1633.2532895524225
aa(lp2730
VDio di musca
p2731
aF1633.6508048051865
aa(lp2732
VGod yuri
p2733
aF1633.7653699293764
aa(lp2734
VDocock
p2735
aF1634.0278243028815
aa(lp2736
VEiko magami
p2737
aF1634.4192555160973
aa(lp2738
VKohaku
p2739
aF1634.4529520730853
aa(lp2740
VLion(coh)
p2741
aF1634.48024278067
aa(lp2742
VDark phoenix
p2743
aF1634.5023453652984
aa(lp2744
VJin kazama
p2745
aF1634.8787242764754
aa(lp2746
VPowergirl
p2747
aF1635.0731875913525
aa(lp2748
VPerfect cell
p2749
aF1635.1368847490278
aa(lp2750
VAndore jr
p2751
aF1635.238572735882
aa(lp2752
VLen and w. len
p2753
aF1635.362433663185
aa(lp2754
VRadel
p2755
aF1635.5656985098692
aa(lp2756
VYumeji kurokouchi
p2757
aF1635.5798268857914
aa(lp2758
VYukari_swr
p2759
aF1635.6515964296382
aa(lp2760
VChibi naruto
p2761
aF1635.7597066113133
aa(lp2762
VArrange_ayu
p2763
aF1635.8343482582
aa(lp2764
VSyaoran
p2765
aF1635.8601949473368
aa(lp2766
VSakura
p2767
aF1636.0433043375283
aa(lp2768
VMajin vegeta
p2769
aF1636.1188499509215
aa(lp2770
VSuika
p2771
aF1636.1286980934467
aa(lp2772
VKrusty
p2773
aF1636.4846390154619
aa(lp2774
VChun-li
p2775
aF1636.678266552308
aa(lp2776
VYamcha by tomur
p2777
aF1636.919000726148
aa(lp2778
VKazuya mishima
p2779
aF1636.9554228399245
aa(lp2780
VCharlotte
p2781
aF1636.9654801219417
aa(lp2782
VParasite
p2783
aF1636.9818202332367
aa(lp2784
VDan
p2785
aF1636.9989064263
aa(lp2786
VNightcrawler
p2787
aF1637.023953571501
aa(lp2788
VMinoriko aki
p2789
aF1637.1339502723522
aa(lp2790
VRobocop
p2791
aF1637.3332115090166
aa(lp2792
VMillia
p2793
aF1637.4309642848339
aa(lp2794
VTrouble man
p2795
aF1637.5688580310264
aa(lp2796
VJo jo
p2797
aF1637.6258346386091
aa(lp2798
VElektra
p2799
aF1637.672289812799
aa(lp2800
VYoumu konpaku
p2801
aF1637.7710784557237
aa(lp2802
VMasta gambit
p2803
aF1637.842123198098
aa(lp2804
VLeona
p2805
aF1638.0137150384019
aa(lp2806
VYuka takeuchi
p2807
aF1638.0265559113539
aa(lp2808
VIron lantern
p2809
aF1638.0484466425228
aa(lp2810
VRhadamantis
p2811
aF1638.0541221503745
aa(lp2812
VGohan saiya-jin ex
p2813
aF1638.5218613509585
aa(lp2814
VRyuuoutan
p2815
aF1638.7711965913331
aa(lp2816
VKanorin
p2817
aF1638.7721154026692
aa(lp2818
VCirno
p2819
aF1639.1358198221674
aa(lp2820
VMukai
p2821
aF1639.1405372105746
aa(lp2822
VGoku ssj3
p2823
aF1639.175239856402
aa(lp2824
VKishima kouma
p2825
aF1639.4750951836581
aa(lp2826
VMirai trunks
p2827
aF1639.7509750770573
aa(lp2828
VKrizalid
p2829
aF1639.9230196680312
aa(lp2830
VReisen_swr
p2831
aF1639.9496337967528
aa(lp2832
VGoku transformer
p2833
aF1640.2806655645606
aa(lp2834
VWalkyrie
p2835
aF1640.3240254461048
aa(lp2836
VRin rin
p2837
aF1640.458345881165
aa(lp2838
VGohan zeta
p2839
aF1640.6680166585509
aa(lp2840
VDoraemon
p2841
aF1641.2668248610632
aa(lp2842
VSon goku
p2843
aF1641.5360905916616
aa(lp2844
VOozura vegeta
p2845
aF1641.5960788498282
aa(lp2846
VDizzy
p2847
aF1641.6054507707913
aa(lp2848
VYun
p2849
aF1641.7103700386615
aa(lp2850
VAura
p2851
aF1641.8134282723324
aa(lp2852
VPaul phoenix
p2853
aF1642.372866271133
aa(lp2854
VMultiple man
p2855
aF1642.378435533838
aa(lp2856
VZangief sf4
p2857
aF1642.6730596778366
aa(lp2858
VOpera elmer
p2859
aF1642.8132186783002
aa(lp2860
VGoten gt nex
p2861
aF1642.8936659069896
aa(lp2862
VBridget
p2863
aF1643.2897038247156
aa(lp2864
VDocinho
p2865
aF1643.2928538006904
aa(lp2866
VMegatron
p2867
aF1643.5564053188948
aa(lp2868
VRed ranger
p2869
aF1643.6529687414964
aa(lp2870
VIkki
p2871
aF1643.7318399408398
aa(lp2872
VMaster ryu
p2873
aF1643.8888912444806
aa(lp2874
VMoleman
p2875
aF1644.0581701707497
aa(lp2876
VArrange_misuzu
p2877
aF1644.1838850529218
aa(lp2878
VMystique
p2879
aF1644.2952074441453
aa(lp2880
VRalf
p2881
aF1644.6965069981404
aa(lp2882
VDet. garret laurel
p2883
aF1644.9254174920707
aa(lp2884
VNamazu
p2885
aF1645.1815186427452
aa(lp2886
VUltimat goku
p2887
aF1645.6196869022704
aa(lp2888
VStrider hien
p2889
aF1645.8333056723384
aa(lp2890
VShanghai
p2891
aF1646.1312891135733
aa(lp2892
VServbot
p2893
aF1646.4453469521518
aa(lp2894
VSon Goku
p2895
aF1646.6598618542114
aa(lp2896
VCpu nobunaga
p2897
aF1646.6906295647414
aa(lp2898
VShizuha aki
p2899
aF1646.6981124116685
aa(lp2900
VGeese
p2901
aF1647.1729572712056
aa(lp2902
VH-duolon
p2903
aF1647.1731165505437
aa(lp2904
VPatchouli_swr
p2905
aF1647.921345522836
aa(lp2906
VSnake eyes
p2907
aF1648.0188807800607
aa(lp2908
VShadow lady
p2909
aF1648.058125740714
aa(lp2910
VSaisyuu_dokusyo_bouei_system
p2911
aF1648.286649701256
aa(lp2912
VNormal freeza
p2913
aF1648.3690607158403
aa(lp2914
VAoshi
p2915
aF1648.4409408975232
aa(lp2916
VUsapi-
p2917
aF1648.6896443866706
aa(lp2918
VKing godzilla
p2919
aF1648.939202216807
aa(lp2920
VKuando
p2921
aF1649.401329200869
aa(lp2922
VSailor uranus
p2923
aF1649.4189267957263
aa(lp2924
VUnzan&ichirin;
p2925
aF1649.4456462936334
aa(lp2926
VYamame
p2927
aF1649.6216312627064
aa(lp2928
VShaoran lee
p2929
aF1649.6786279422488
aa(lp2930
VOrochi akuma
p2931
aF1650.1607850814692
aa(lp2932
VHelion
p2933
aF1650.5716740424025
aa(lp2934
VHugo
p2935
aF1651.386680171882
aa(lp2936
VJamian di corvus
p2937
aF1651.4814051078345
aa(lp2938
VCaptain marvel
p2939
aF1651.4901001555995
aa(lp2940
VRoll
p2941
aF1651.584753485884
aa(lp2942
VHellboy
p2943
aF1651.7083673137456
aa(lp2944
VYurika kirishima
p2945
aF1651.746135624948
aa(lp2946
VElla
p2947
aF1651.819669492726
aa(lp2948
VArrange_shiori
p2949
aF1651.924848568332
aa(lp2950
VKenpachi
p2951
aF1651.943607494878
aa(lp2952
VLei-lei
p2953
aF1651.9901806877676
aa(lp2954
VMagneto
p2955
aF1651.995191439262
aa(lp2956
VAkiha
p2957
aF1652.1880377247764
aa(lp2958
VSenna vp
p2959
aF1652.4726233247895
aa(lp2960
VCommissioner gordon
p2961
aF1652.5588910312817
aa(lp2962
VSaint Kyo
p2963
aF1652.6199965403089
aa(lp2964
VRed cyclone
p2965
aF1652.7232543488633
aa(lp2966
VGohan ssj3
p2967
aF1653.125353190727
aa(lp2968
VMr. fantastic
p2969
aF1653.5698028264258
aa(lp2970
VMissmarvel
p2971
aF1653.5729994152985
aa(lp2972
VLast adult goku
p2973
aF1653.5901874039469
aa(lp2974
VMugetu
p2975
aF1653.6124863252635
aa(lp2976
VTenma-sama
p2977
aF1653.7356712631286
aa(lp2978
VPyron
p2979
aF1653.7481708539194
aa(lp2980
VProfessor x
p2981
aF1653.8619213974173
aa(lp2982
VHikaru
p2983
aF1654.0284729752454
aa(lp2984
VVegeta ssj3
p2985
aF1654.0703873187667
aa(lp2986
VTsugumi
p2987
aF1654.0996997193638
aa(lp2988
VKamiccolo
p2989
aF1654.1702850871366
aa(lp2990
VSakura Kinomoto
p2991
aF1654.517611932728
aa(lp2992
VSonic
p2993
aF1654.874512245803
aa(lp2994
VMarisa kirisame
p2995
aF1654.9845017494756
aa(lp2996
VMaraiah
p2997
aF1655.019390638331
aa(lp2998
VDuke nukem
p2999
aF1655.0332216398467
aa(lp3000
VDeath adder
p3001
aF1655.1074898592578
aa(lp3002
VSuper buu
p3003
aF1655.1382833762016
aa(lp3004
VSaito
p3005
aF1655.1966342660892
aa(lp3006
VBroly
p3007
aF1655.9729465066162
aa(lp3008
VWild ken ex
p3009
aF1656.042791549225
aa(lp3010
VLynn baker
p3011
aF1656.1158257584523
aa(lp3012
VRouga(coh)
p3013
aF1656.4701037782716
aa(lp3014
VArrange_mishio
p3015
aF1656.9906935175202
aa(lp3016
VNazrin
p3017
aF1657.467168795866
aa(lp3018
VBenimaru
p3019
aF1657.8912142518916
aa(lp3020
VSatsuki yumiduka
p3021
aF1658.0267643670177
aa(lp3022
VBlodia
p3023
aF1658.1894398605482
aa(lp3024
VThe atom
p3025
aF1658.259811038984
aa(lp3026
VRikuo
p3027
aF1658.2601058246069
aa(lp3028
VNachi
p3029
aF1658.2876069895879
aa(lp3030
VArchangel
p3031
aF1658.3293118934862
aa(lp3032
VBlack widow
p3033
aF1658.3340992519893
aa(lp3034
VMusashi akatsuki
p3035
aF1658.444030443126
aa(lp3036
VAlex
p3037
aF1658.8566775451784
aa(lp3038
VVanessa
p3039
aF1659.000195404532
aa(lp3040
VJabu
p3041
aF1659.2930130467669
aa(lp3042
VKim
p3043
aF1659.4796794207725
aa(lp3044
VTien
p3045
aF1659.5016645279343
aa(lp3046
VSayuri kurata
p3047
aF1659.6346171669204
aa(lp3048
VYukari yakumo
p3049
aF1659.8506140585941
aa(lp3050
VVarnage
p3051
aF1659.9842605172369
aa(lp3052
VGotenks gt
p3053
aF1660.3800845829405
aa(lp3054
VKeel
p3055
aF1660.5461988747907
aa(lp3056
VCheap boss type
p3057
aF1660.5972557006776
aa(lp3058
VSonic machine
p3059
aF1660.8108588777977
aa(lp3060
VMecha potemkin
p3061
aF1660.9763853955126
aa(lp3062
VGonzales
p3063
aF1660.9829713131082
aa(lp3064
VToron
p3065
aF1661.471521932734
aa(lp3066
VIvy
p3067
aF1661.6427487175813
aa(lp3068
VJ'onn j'onnz
p3069
aF1661.7690134717325
aa(lp3070
VMyuu
p3071
aF1661.8652530550153
aa(lp3072
VAyu tsukimiya
p3073
aF1661.9269984066768
aa(lp3074
VBoo ssj
p3075
aF1662.3064527347283
aa(lp3076
VMorrigan
p3077
aF1662.51331830715
aa(lp3078
VCammy
p3079
aF1662.7471796154348
aa(lp3080
VTen
p3081
aF1662.9069813568444
aa(lp3082
VTeam reimisen
p3083
aF1663.0581802990039
aa(lp3084
VEvil homer
p3085
aF1663.3073727648032
aa(lp3086
VYuuka kazami
p3087
aF1663.3116788162333
aa(lp3088
VCapella
p3089
aF1663.3969309228178
aa(lp3090
VTessa
p3091
aF1663.4604868236588
aa(lp3092
VUltra ssj5 vegeta
p3093
aF1663.7467821320613
aa(lp3094
VRare Akuma
p3095
aF1663.8612299176905
aa(lp3096
VGodman
p3097
aF1664.0205576222604
aa(lp3098
VDeadpool
p3099
aF1664.7666635932972
aa(lp3100
VSilver surfer
p3101
aF1665.0513711738001
aa(lp3102
VSetsuna
p3103
aF1665.2378110679028
aa(lp3104
VLei lei
p3105
aF1665.6132972274734
aa(lp3106
VGogeta super saiyan 3
p3107
aF1665.7124846222496
aa(lp3108
VTin's fernandeath
p3109
aF1665.853938687398
aa(lp3110
VGouken
p3111
aF1666.1174260978587
aa(lp3112
VSatoko
p3113
aF1666.2426812705085
aa(lp3114
VChang
p3115
aF1666.9785070193284
aa(lp3116
VIronman
p3117
aF1667.3654081645238
aa(lp3118
VArrange_unknown
p3119
aF1667.505298201422
aa(lp3120
VUppercut
p3121
aF1667.8279967592823
aa(lp3122
VGreen lantern gg
p3123
aF1667.8378151605318
aa(lp3124
VOoze-o
p3125
aF1667.8800639356414
aa(lp3126
VOrochimaru
p3127
aF1668.158026939491
aa(lp3128
VYoko yuki
p3129
aF1668.2722574856568
aa(lp3130
VGreen arrow
p3131
aF1668.6398921524715
aa(lp3132
VJudith
p3133
aF1668.6823541430856
aa(lp3134
VLord zedd
p3135
aF1668.7127637919834
aa(lp3136
VRyo
p3137
aF1668.7640968290689
aa(lp3138
VKonngara
p3139
aF1668.8202191079565
aa(lp3140
VRiot
p3141
aF1668.8540847452462
aa(lp3142
VRaiden
p3143
aF1669.0608119196593
aa(lp3144
VZappa
p3145
aF1669.2167643332646
aa(lp3146
VMech gouki
p3147
aF1669.2595068743851
aa(lp3148
VNightwolf
p3149
aF1669.3203084289698
aa(lp3150
VMech-hisui
p3151
aF1669.358167723304
aa(lp3152
VP. chunli
p3153
aF1669.5362579856328
aa(lp3154
VTizoc
p3155
aF1669.598059308891
aa(lp3156
VBatman
p3157
aF1669.629126871384
aa(lp3158
VJedah
p3159
aF1669.679868356052
aa(lp3160
VRyuuguu rena
p3161
aF1669.9354908525781
aa(lp3162
VK'
p3163
aF1669.969998022389
aa(lp3164
VSteel
p3165
aF1669.9864269295997
aa(lp3166
VHotaru
p3167
aF1670.2017328213133
aa(lp3168
VGaits
p3169
aF1670.2048263869804
aa(lp3170
VBison
p3171
aF1670.734256437434
aa(lp3172
VAku-amakusa
p3173
aF1671.0228260201327
aa(lp3174
VYumemi
p3175
aF1671.264076164145
aa(lp3176
VRobin
p3177
aF1671.2922124274685
aa(lp3178
VChun-lee dark bolt
p3179
aF1671.3663302267428
aa(lp3180
VHyoga de cisne
p3181
aF1671.6321905759692
aa(lp3182
VMarvin
p3183
aF1671.7179422029558
aa(lp3184
VThanos
p3185
aF1671.8199068490458
aa(lp3186
VKrauser
p3187
aF1671.888916447476
aa(lp3188
VGoku ssj4 db final bout
p3189
aF1673.1127416528395
aa(lp3190
VMai shiranui
p3191
aF1673.4231622198663
aa(lp3192
VHaruhi suzumiya
p3193
aF1673.4409482589772
aa(lp3194
VSoujiro
p3195
aF1673.6125626587077
aa(lp3196
VFranko
p3197
aF1673.786262161509
aa(lp3198
VGiano
p3199
aF1673.9179462277689
aa(lp3200
VFerroman
p3201
aF1673.9632034905576
aa(lp3202
VUbu
p3203
aF1674.0812198485187
aa(lp3204
VCaptain commando
p3205
aF1674.2172493627636
aa(lp3206
VSoulgen
p3207
aF1674.250995183398
aa(lp3208
VChameleon
p3209
aF1674.4118042119248
aa(lp3210
VR. lilith
p3211
aF1675.0648687613418
aa(lp3212
VDeath black shot
p3213
aF1675.2047673611182
aa(lp3214
VReptos
p3215
aF1675.558060601949
aa(lp3216
VJackal
p3217
aF1675.8032609430695
aa(lp3218
VRasetsumaru
p3219
aF1675.8792232877831
aa(lp3220
VRugal
p3221
aF1676.5453984571682
aa(lp3222
VFrieza
p3223
aF1676.7670589337263
aa(lp3224
VBane
p3225
aF1677.0487472911498
aa(lp3226
VVanilla h
p3227
aF1677.0673674593756
aa(lp3228
VSuper-8
p3229
aF1677.7699819554007
aa(lp3230
VRaptor
p3231
aF1677.9256047974795
aa(lp3232
VAracne de tarantula
p3233
aF1678.5246995209543
aa(lp3234
VSissy
p3235
aF1678.7450278432837
aa(lp3236
VBaby bonnie hood
p3237
aF1679.0595269634084
aa(lp3238
VAnnie murakami
p3239
aF1679.0818837834372
aa(lp3240
VEtrigan
p3241
aF1679.4572677075598
aa(lp3242
VCc iron clara
p3243
aF1679.539492719278
aa(lp3244
VWarachia
p3245
aF1679.977237014405
aa(lp3246
VEsmeralda
p3247
aF1680.0795706431572
aa(lp3248
VZinc
p3249
aF1680.2147224942041
aa(lp3250
VBin laden
p3251
aF1680.3669805258512
aa(lp3252
VAoko
p3253
aF1680.4908047258705
aa(lp3254
VHaggar
p3255
aF1680.5015958832992
aa(lp3256
VShiki vp
p3257
aF1680.8221302687762
aa(lp3258
VFordy
p3259
aF1681.756863115697
aa(lp3260
VRogue
p3261
aF1681.827272073472
aa(lp3262
VKung fu fiunn
p3263
aF1682.2517582808593
aa(lp3264
VFaust
p3265
aF1682.262863640787
aa(lp3266
VMike tyson
p3267
aF1683.1010102272487
aa(lp3268
VSsj three broli
p3269
aF1683.1567013515037
aa(lp3270
VSatsuki
p3271
aF1683.2947465659277
aa(lp3272
VNega joe
p3273
aF1683.30144317317
aa(lp3274
VSaiki
p3275
aF1683.349941943103
aa(lp3276
VClayface
p3277
aF1683.4948752935195
aa(lp3278
VVertigo
p3279
aF1683.573778842343
aa(lp3280
VIkkaku
p3281
aF1683.7405616196966
aa(lp3282
VBurter
p3283
aF1684.166640469523
aa(lp3284
VSailor jupiter
p3285
aF1684.5353205175525
aa(lp3286
VOnpu segawa
p3287
aF1684.5357723947507
aa(lp3288
VSuper goku
p3289
aF1684.6998376515487
aa(lp3290
VIceman
p3291
aF1684.7260123432363
aa(lp3292
VRajaayuri
p3293
aF1684.75993030187
aa(lp3294
VAndroid 16
p3295
aF1684.9721680123937
aa(lp3296
VShiki tohno
p3297
aF1685.2752408071208
aa(lp3298
VUltimate cap
p3299
aF1685.3604883836142
aa(lp3300
VMai_k
p3301
aF1685.3879200242832
aa(lp3302
VBattousai
p3303
aF1686.2037715258198
aa(lp3304
VCyborg superman
p3305
aF1686.3003422151446
aa(lp3306
VShaq
p3307
aF1686.569857684252
aa(lp3308
VNanoha xp
p3309
aF1686.9705052277247
aa(lp3310
VRandy m. green
p3311
aF1687.1650889652653
aa(lp3312
VKurihan
p3313
aF1687.1652083453987
aa(lp3314
VCharlie
p3315
aF1687.1886331154874
aa(lp3316
VJean grey
p3317
aF1687.1962185202622
aa(lp3318
VAlex mercer
p3319
aF1687.2508890737508
aa(lp3320
VScream
p3321
aF1687.5674973035332
aa(lp3322
VClark
p3323
aF1687.7293214110894
aa(lp3324
VBlackheart
p3325
aF1688.125929925594
aa(lp3326
VCarnage
p3327
aF1688.5785735181166
aa(lp3328
VVergil
p3329
aF1688.6694403934187
aa(lp3330
VCaptain caveman
p3331
aF1688.7929040373976
aa(lp3332
VAlien queen
p3333
aF1689.1021233731585
aa(lp3334
VOgre
p3335
aF1689.2253820835028
aa(lp3336
VIronpatriot
p3337
aF1689.370745471536
aa(lp3338
VPoppy
p3339
aF1689.4587087246732
aa(lp3340
VMech zangief
p3341
aF1689.720673483458
aa(lp3342
VRyu plus
p3343
aF1690.5232670946205
aa(lp3344
VSpiderman
p3345
aF1691.015750952632
aa(lp3346
VEvil soul
p3347
aF1691.4229531789686
aa(lp3348
VBishop
p3349
aF1691.4354882558528
aa(lp3350
VHibiki
p3351
aF1691.5202448598914
aa(lp3352
VShadowman cfas
p3353
aF1691.595294480375
aa(lp3354
VVoid
p3355
aF1692.2876656676842
aa(lp3356
VSad claps
p3357
aF1692.5482995806192
aa(lp3358
VGoenitz
p3359
aF1692.5620716721407
aa(lp3360
VViolent dan
p3361
aF1692.720538844041
aa(lp3362
VKanae
p3363
aF1693.0241349916882
aa(lp3364
VArmored gohan
p3365
aF1693.3734825505603
aa(lp3366
VThor
p3367
aF1693.6017291506332
aa(lp3368
VRoa
p3369
aF1693.8320772091372
aa(lp3370
VSodom
p3371
aF1694.0504455694736
aa(lp3372
VSailor venus
p3373
aF1694.1860104302482
aa(lp3374
VOozura bebi
p3375
aF1694.3206417316492
aa(lp3376
VCloud
p3377
aF1695.1849616912846
aa(lp3378
VLilith aensland
p3379
aF1695.188223635424
aa(lp3380
VKazama sogetsu
p3381
aF1695.1981188492086
aa(lp3382
VGreen lantern
p3383
aF1695.3178366865127
aa(lp3384
VSasquatch
p3385
aF1695.6308690955539
aa(lp3386
VMorph
p3387
aF1695.9197369208598
aa(lp3388
VOmega tiger woods
p3389
aF1696.084359060731
aa(lp3390
VLucky 71113
p3391
aF1696.163870124346
aa(lp3392
VIchi
p3393
aF1696.8092369523608
aa(lp3394
VRare akuma
p3395
aF1697.112203648958
aa(lp3396
VStrider hiryu
p3397
aF1697.2385459876639
aa(lp3398
VKraken
p3399
aF1697.4738938053727
aa(lp3400
VDooby dummy
p3401
aF1697.5337656969261
aa(lp3402
VYamazaki 71113
p3403
aF1697.7247416410453
aa(lp3404
VShin kazuma
p3405
aF1697.863647816464
aa(lp3406
VBerserk
p3407
aF1698.1528768988735
aa(lp3408
VCrystal
p3409
aF1698.8194649436864
aa(lp3410
VBilly lee
p3411
aF1699.5016715743297
aa(lp3412
VPyro
p3413
aF1699.7246812546418
aa(lp3414
VShin gouki
p3415
aF1699.7548109253382
aa(lp3416
VDink smallwood
p3417
aF1699.8437643145985
aa(lp3418
VTalon
p3419
aF1700.7237365494552
aa(lp3420
VSion
p3421
aF1701.1792516154076
aa(lp3422
VMephisto
p3423
aF1701.2544273651336
aa(lp3424
VK9999
p3425
aF1701.6904679713775
aa(lp3426
VGhost rider
p3427
aF1701.8525087714759
aa(lp3428
VApocalypse
p3429
aF1701.9204046846403
aa(lp3430
VNail
p3431
aF1702.6767701609451
aa(lp3432
VM. bison
p3433
aF1703.4366352191967
aa(lp3434
VAgony
p3435
aF1703.943126948573
aa(lp3436
VReptile
p3437
aF1704.0172623400747
aa(lp3438
VGuy
p3439
aF1704.0870927561634
aa(lp3440
VDonald
p3441
aF1704.206072742761
aa(lp3442
VRajaamaki
p3443
aF1704.4122804873916
aa(lp3444
VSuper metroid
p3445
aF1704.530493856546
aa(lp3446
VWonderman
p3447
aF1704.828078009119
aa(lp3448
VWolverine
p3449
aF1705.002111095538
aa(lp3450
VDr.gero
p3451
aF1705.0169767023551
aa(lp3452
VEriol hiiragizawa
p3453
aF1706.6017334699145
aa(lp3454
VMongul
p3455
aF1706.7801064196751
aa(lp3456
VHato sabure
p3457
aF1706.8096379871217
aa(lp3458
VCaptain america
p3459
aF1706.850226686373
aa(lp3460
VIori 71113
p3461
aF1706.8886989463333
aa(lp3462
VKouryu
p3463
aF1706.9458556187767
aa(lp3464
VBlaze agent
p3465
aF1707.372643000691
aa(lp3466
VThe thing
p3467
aF1707.6235977837644
aa(lp3468
VWonder woman
p3469
aF1707.8082369212268
aa(lp3470
VJimmy lee
p3471
aF1709.1555430248052
aa(lp3472
VRock
p3473
aF1709.1736729860017
aa(lp3474
VE-terry 71113
p3475
aF1709.9288539148463
aa(lp3476
VUltron
p3477
aF1709.9387896399658
aa(lp3478
VSquall
p3479
aF1710.2897942565178
aa(lp3480
VMexican typhoon
p3481
aF1711.168308528985
aa(lp3482
VLavos spawn
p3483
aF1711.2255055432308
aa(lp3484
VJohnny cage
p3485
aF1711.4213143775823
aa(lp3486
VOrochi vega
p3487
aF1711.539995134414
aa(lp3488
VEvil ryu
p3489
aF1711.5758131465802
aa(lp3490
VChizuru kagura
p3491
aF1711.5999210139792
aa(lp3492
VBlack tiger
p3493
aF1711.627177633479
aa(lp3494
VDemitri
p3495
aF1712.3685499159853
aa(lp3496
VShadow dio
p3497
aF1713.216362576094
aa(lp3498
VJin saotome
p3499
aF1713.3744148229919
aa(lp3500
VWarakia
p3501
aF1713.4681902649581
aa(lp3502
VCable
p3503
aF1713.5110603146902
aa(lp3504
VDiablo_skeleton
p3505
aF1713.7908044603414
aa(lp3506
VYue
p3507
aF1713.9342146640104
aa(lp3508
VMature
p3509
aF1714.1158925427765
aa(lp3510
VCyclops
p3511
aF1714.1880533981553
aa(lp3512
VLayla
p3513
aF1714.4248819823977
aa(lp3514
VSentinel
p3515
aF1714.5627085241922
aa(lp3516
VMb-02
p3517
aF1714.5741118525914
aa(lp3518
VDr.doom
p3519
aF1714.677034070305
aa(lp3520
VThe flash
p3521
aF1714.7011623434978
aa(lp3522
VAnakaris
p3523
aF1715.7295529426374
aa(lp3524
VSynn
p3525
aF1715.8857724058382
aa(lp3526
VHulk
p3527
aF1716.4797440477982
aa(lp3528
VArcueid
p3529
aF1717.8623057309053
aa(lp3530
VSuper skrull
p3531
aF1717.996950736912
aa(lp3532
VOssan
p3533
aF1718.5925682903944
aa(lp3534
VNakoruru
p3535
aF1719.3157739728995
aa(lp3536
VOgre akuma
p3537
aF1719.563911337294
aa(lp3538
VOrchid
p3539
aF1719.741128289429
aa(lp3540
VSuper androide 17 hd
p3541
aF1720.1210824570137
aa(lp3542
VRamon 71113
p3543
aF1720.6294290056926
aa(lp3544
VSegalow
p3545
aF1720.8533121522664
aa(lp3546
VMaster hand
p3547
aF1721.4158473460766
aa(lp3548
VMarrow
p3549
aF1722.4596958272282
aa(lp3550
VTerry bogard
p3551
aF1722.6574250860278
aa(lp3552
VDeath ogre
p3553
aF1722.8835153318394
aa(lp3554
VDragon claw
p3555
aF1723.343993782973
aa(lp3556
VKazama kazuki
p3557
aF1723.446947945361
aa(lp3558
VDonovan
p3559
aF1724.512911744364
aa(lp3560
VHomero
p3561
aF1724.7498820443398
aa(lp3562
VFlonne
p3563
aF1725.3293430148285
aa(lp3564
VNrvnqsr chaos
p3565
aF1726.6704725701038
aa(lp3566
VSpiral
p3567
aF1727.5176342966433
aa(lp3568
VHisui
p3569
aF1727.6849497672215
aa(lp3570
VKamek
p3571
aF1727.7682061083794
aa(lp3572
VGideon
p3573
aF1727.8070866202877
aa(lp3574
VEvil dan
p3575
aF1727.8487230409746
aa(lp3576
VRai
p3577
aF1727.8678618140596
aa(lp3578
VNeco-arc
p3579
aF1727.8681882670232
aa(lp3580
VMs. fanservice
p3581
aF1728.52008993549
aa(lp3582
VHel'lauren
p3583
aF1728.9129463742333
aa(lp3584
VLex luthor
p3585
aF1728.9888019160928
aa(lp3586
VSymbiote spider-man
p3587
aF1729.6363485256068
aa(lp3588
VSasuke kun
p3589
aF1730.3028594696664
aa(lp3590
VNaruto kun
p3591
aF1730.3253076787496
aa(lp3592
VBroken
p3593
aF1731.4252436413353
aa(lp3594
VGoku nex
p3595
aF1732.463757659281
aa(lp3596
VKanna
p3597
aF1732.4808935156295
aa(lp3598
VShishio
p3599
aF1732.5344623137885
aa(lp3600
VAngus
p3601
aF1732.8602815780794
aa(lp3602
VHyper neo-kamek
p3603
aF1733.4764900280359
aa(lp3604
VZeeky h. bomb
p3605
aF1733.545877912595
aa(lp3606
VSonson
p3607
aF1734.0944603970913
aa(lp3608
VDrdoom
p3609
aF1735.0137869666592
aa(lp3610
VT. kawk
p3611
aF1736.1877919594688
aa(lp3612
VMisty
p3613
aF1736.373059344909
aa(lp3614
VSuper mario
p3615
aF1736.6315853999297
aa(lp3616
VCless alvein
p3617
aF1736.820196618505
aa(lp3618
VChiel
p3619
aF1737.7357888367937
aa(lp3620
VGohan ssj4
p3621
aF1737.7859243487198
aa(lp3622
VOverlord
p3623
aF1738.1849559563361
aa(lp3624
VThe blob
p3625
aF1739.1914212779727
aa(lp3626
VLion magnus
p3627
aF1739.6106881710366
aa(lp3628
VDarkseid
p3629
aF1739.9191728962385
aa(lp3630
VBullseye
p3631
aF1741.1219550273804
aa(lp3632
VJuggernaut
p3633
aF1741.619870068087
aa(lp3634
VG-akiha
p3635
aF1741.9920709303835
aa(lp3636
VSaori - athena
p3637
aF1742.3573752461189
aa(lp3638
VKoryu
p3639
aF1743.5043853635302
aa(lp3640
VThe dazzler
p3641
aF1745.6455600746747
aa(lp3642
VBarney
p3643
aF1746.7532680628829
aa(lp3644
VPerfect storm x
p3645
aF1747.8506439247967
aa(lp3646
VSaint kyo
p3647
aF1748.1721069749765
aa(lp3648
VRonald
p3649
aF1748.2808842072704
aa(lp3650
VWell
p3651
aF1748.9243581065957
aa(lp3652
VRock volnutt
p3653
aF1749.0504261655885
aa(lp3654
VNero
p3655
aF1750.2909649605783
aa(lp3656
VGohan  grande normale
p3657
aF1750.712032730539
aa(lp3658
VMaster sakura
p3659
aF1751.5669488736678
aa(lp3660
VMega weapon
p3661
aF1752.6848111801178
aa(lp3662
VSilversamurai
p3663
aF1752.8181143709742
aa(lp3664
VSsj5 goku
p3665
aF1752.8206508482353
aa(lp3666
VGhetto warmachine
p3667
aF1753.972087993172
aa(lp3668
VChaos hiryu
p3669
aF1758.510999333717
aa(lp3670
VDaimon 71113
p3671
aF1758.5399760702176
aa(lp3672
VOnslaught
p3673
aF1758.63434230484
aa(lp3674
VRemilia
p3675
aF1760.834174579244
aa(lp3676
VG rugal
p3677
aF1761.9533969896158
aa(lp3678
VMishio
p3679
aF1766.6369332561048
aa(lp3680
VRadish ssj4
p3681
aF1768.5933039927145
aa(lp3682
VHoly ken
p3683
aF1768.618547006356
aa(lp3684
VSandman
p3685
aF1770.2034554861882
aa(lp3686
VShuma gorath
p3687
aF1771.8205536359817
aa(lp3688
VPatchouli
p3689
aF1773.3261584855197
aa(lp3690
VKiller whale
p3691
aF1776.9928591097425
aa(lp3692
VRyu
p3693
aF1784.6338897667213
aa(lp3694
VAlter amiba
p3695
aF1787.8326475587064
aa(lp3696
VPossessed heita
p3697
aF1789.1434053454595
aa(lp3698
VSakura kinomoto
p3699
aF1797.3789214280466
aa(lp3700
VEvil ken
p3701
aF1822.6191043151202
aatp3702
Rp3703
.