ccollections
OrderedDict
p0
((lp1
(lp2
VTetsuo
p3
aF1543.8274007406692
aa(lp4
VVega
p5
aF1544.9446224187407
aa(lp6
VMedoi-san
p7
aF1546.3837866747028
aa(lp8
VPhoenix
p9
aF1547.988851325974
aa(lp10
VTenshinham
p11
aF1549.2864952637026
aa(lp12
VZettaiaku
p13
aF1550.0648162700818
aa(lp14
VSuperman
p15
aF1550.351968313194
aa(lp16
VCell
p17
aF1551.2498367187618
aa(lp18
VVegeta ssj1
p19
aF1554.223972669843
aa(lp20
VGinew
p21
aF1555.225288428883
aa(lp22
VWildcat
p23
aF1556.273280385962
aa(lp24
VAbui
p25
aF1557.529707218224
aa(lp26
VFox mccloud
p27
aF1558.393211200755
aa(lp28
VEnya
p29
aF1561.0738427191516
aa(lp30
VYellow-pipo
p31
aF1562.3332867628212
aa(lp32
VKakashi
p33
aF1562.4837902436295
aa(lp34
VVegetto EX
p35
aF1562.4972515708007
aa(lp36
VChaka
p37
aF1562.821530449689
aa(lp38
VMayko
p39
aF1562.8273395612728
aa(lp40
VNyaonyao
p41
aF1562.9037080851483
aa(lp42
VAndroid 18
p43
aF1562.9389263332416
aa(lp44
VKnuckles
p45
aF1563.613963266389
aa(lp46
VSlayer
p47
aF1563.6854191404982
aa(lp48
VYashaoh
p49
aF1563.8360713721358
aa(lp50
VSimonkin2006
p51
aF1563.8481540431749
aa(lp52
VChichi
p53
aF1563.9439253707014
aa(lp54
VSuperboy
p55
aF1564.1872929118056
aa(lp56
VWind
p57
aF1564.6226629382327
aa(lp58
VLink
p59
aF1569.4292686138795
aa(lp60
VZeroko
p61
aF1569.461760496517
aa(lp62
VBlack manta
p63
aF1569.5277468394393
aa(lp64
VJissou seki
p65
aF1569.5418032401667
aa(lp66
VTen-sing
p67
aF1569.6277898243281
aa(lp68
VMaxima
p69
aF1569.655790266896
aa(lp70
VJill
p71
aF1569.7616747584846
aa(lp72
VPolaris
p73
aF1569.776576500904
aa(lp74
VTurles
p75
aF1569.7983898243215
aa(lp76
VNorimaro
p77
aF1569.8294109795163
aa(lp78
VAmy
p79
aF1569.9108165235325
aa(lp80
VMegazord
p81
aF1569.9993083346415
aa(lp82
VG-bit
p83
aF1570.0976507722764
aa(lp84
VHol horse
p85
aF1570.2948992947997
aa(lp86
VShangtsung
p87
aF1570.3259480784925
aa(lp88
VGorunks ssj4
p89
aF1570.3676960341338
aa(lp90
VBebi vegeta
p91
aF1570.3836372321343
aa(lp92
VYakui san
p93
aF1570.5699826174687
aa(lp94
VTerry
p95
aF1570.6163865415951
aa(lp96
VSuigintou
p97
aF1570.6967168324554
aa(lp98
VSakon
p99
aF1570.7007504929304
aa(lp100
VBanshee
p101
aF1570.815507841688
aa(lp102
VBatgirl
p103
aF1570.9728791223404
aa(lp104
VTao jun
p105
aF1571.0412243141575
aa(lp106
VKang
p107
aF1571.2431748396211
aa(lp108
VKabal
p109
aF1571.385837482541
aa(lp110
VNaruto
p111
aF1572.2633134695407
aa(lp112
VWarmachine
p113
aF1572.8050070326383
aa(lp114
VLobo
p115
aF1573.4364731914288
aa(lp116
VKy
p117
aF1573.6821283519869
aa(lp118
VCream
p119
aF1575.837920060881
aa(lp120
VVanilla Ice
p121
aF1576.0622501635244
aa(lp122
VFloren
p123
aF1576.1758870305314
aa(lp124
VOrione
p125
aF1576.4419268297568
aa(lp126
VBrainiac
p127
aF1576.5537807057397
aa(lp128
VUltimate-gohan
p129
aF1576.5776432485966
aa(lp130
VSolid Snake
p131
aF1576.6963697390015
aa(lp132
VZidane
p133
aF1576.7569476824947
aa(lp134
VJin
p135
aF1576.774699284595
aa(lp136
VBlue ranger
p137
aF1576.8972190638885
aa(lp138
VRaditz
p139
aF1576.9478320957242
aa(lp140
VThunder megazord
p141
aF1576.9773088917336
aa(lp142
VGobotenn
p143
aF1577.0082640904238
aa(lp144
VWindows me
p145
aF1577.0722096705795
aa(lp146
VRorschach
p147
aF1577.0786129178264
aa(lp148
VMariah
p149
aF1577.0823810720874
aa(lp150
VMarie
p151
aF1577.088763589698
aa(lp152
VKaede
p153
aF1577.1068952587527
aa(lp154
VFireman
p155
aF1577.1387746013875
aa(lp156
VBabidi
p157
aF1577.227876384815
aa(lp158
VSaba
p159
aF1577.2487532715697
aa(lp160
VMestre kame
p161
aF1577.260139282249
aa(lp162
VSub zero
p163
aF1577.274993779285
aa(lp164
VRecoom
p165
aF1577.3694495090526
aa(lp166
VHisui&kohaku;
p167
aF1577.4266666046508
aa(lp168
VElecman
p169
aF1577.4420470609325
aa(lp170
VKid gohan ssj1
p171
aF1577.4582361691157
aa(lp172
VMega piccolo
p173
aF1577.4595218073464
aa(lp174
VDevo
p175
aF1577.4938815217026
aa(lp176
VJiroubou
p177
aF1577.6306534441235
aa(lp178
VGoku kid
p179
aF1577.6362082830356
aa(lp180
VComplete cell
p181
aF1577.6470529178405
aa(lp182
VRobert
p183
aF1577.6731173456367
aa(lp184
VRose
p185
aF1577.7574794010186
aa(lp186
VGokussj4d
p187
aF1577.7805549608952
aa(lp188
VDabura
p189
aF1577.7841245224486
aa(lp190
VMarle
p191
aF1577.784594467351
aa(lp192
VProtoman
p193
aF1577.7992012135282
aa(lp194
V95 no danna
p195
aF1577.8025994200834
aa(lp196
VSaibaman
p197
aF1577.9381662229628
aa(lp198
VPoison
p199
aF1577.9390837887524
aa(lp200
VNanaya
p201
aF1578.11674772036
aa(lp202
VMarco
p203
aF1578.1439432124332
aa(lp204
VKagami kyosuke
p205
aF1578.157706042532
aa(lp206
VKanon
p207
aF1578.1719200349646
aa(lp208
VMajin buu
p209
aF1578.1962564772039
aa(lp210
VWar machine
p211
aF1578.3106357082
aa(lp212
VLipsyncher
p213
aF1578.3243464276597
aa(lp214
VRobo-kyii
p215
aF1578.381722626261
aa(lp216
VIkisan
p217
aF1578.3817730655414
aa(lp218
VManbou
p219
aF1578.3943586460489
aa(lp220
VBalrog
p221
aF1578.40238177915
aa(lp222
VKenshirou
p223
aF1578.4070765898618
aa(lp224
VRubber soul
p225
aF1578.5006161896858
aa(lp226
VBaldhead
p227
aF1578.5688439335722
aa(lp228
VSuper Buu
p229
aF1578.6371232999356
aa(lp230
VShin ryu
p231
aF1578.651626306146
aa(lp232
VWolvenom
p233
aF1578.6964754975797
aa(lp234
VCartman
p235
aF1578.7800447797015
aa(lp236
VSuper sonic
p237
aF1579.1494967968906
aa(lp238
VChange dragon
p239
aF1579.5269175256394
aa(lp240
VOjisama-chaos
p241
aF1579.5525555520549
aa(lp242
VMay
p243
aF1579.7448609954783
aa(lp244
VGoku sb1
p245
aF1579.7539246941174
aa(lp246
VMisty
p247
aF1580.2573695115586
aa(lp248
VLupin the 3rd
p249
aF1580.9466339987266
aa(lp250
VTrunks
p251
aF1583.088923715187
aa(lp252
VBoo
p253
aF1583.2027704377933
aa(lp254
VCell Genesis
p255
aF1583.349019062783
aa(lp256
VGray fly
p257
aF1583.4464838391484
aa(lp258
VRhino
p259
aF1583.486394635858
aa(lp260
VComplete Cell
p261
aF1583.5156818798926
aa(lp262
VDrill asamin
p263
aF1583.5399975862938
aa(lp264
VAoi-ko
p265
aF1583.6782240678212
aa(lp266
VBojack
p267
aF1583.6887664305193
aa(lp268
VBack beard
p269
aF1583.7094799737254
aa(lp270
VTayuya
p271
aF1583.7841691418912
aa(lp272
VBlaster
p273
aF1583.8490894261577
aa(lp274
VPetshop
p275
aF1583.8924615215928
aa(lp276
VThink
p277
aF1583.9784503883607
aa(lp278
VPengintou
p279
aF1584.0264821504322
aa(lp280
VDeath13
p281
aF1584.031575262438
aa(lp282
VMega Gohan
p283
aF1584.0450894070136
aa(lp284
VDante
p285
aF1584.0546486771555
aa(lp286
VTabasa
p287
aF1584.0607639359341
aa(lp288
VButtercup
p289
aF1584.0936677118375
aa(lp290
VMagus
p291
aF1584.0974492516918
aa(lp292
VAquaman
p293
aF1584.1841803843963
aa(lp294
VKid gohan
p295
aF1584.1885047171945
aa(lp296
VMestre Kame
p297
aF1584.1927990057509
aa(lp298
VOre
p299
aF1584.1929160722113
aa(lp300
VAlucard
p301
aF1584.1952782715514
aa(lp302
VSpelunker
p303
aF1584.1962941979407
aa(lp304
VSonGoku SNK SF
p305
aF1584.2000435839718
aa(lp306
VCatwoman
p307
aF1584.20088620895
aa(lp308
VAmiba
p309
aF1584.207753135696
aa(lp310
VElastigirl
p311
aF1584.2489715300062
aa(lp312
VTibigintou
p313
aF1584.3019311270896
aa(lp314
VKagome
p315
aF1584.365752106078
aa(lp316
VMetal Man
p317
aF1584.3769579637205
aa(lp318
VGundam Heavy Arms
p319
aF1584.3793205128406
aa(lp320
VHavok
p321
aF1584.3825698173432
aa(lp322
V2ban-tan
p323
aF1584.4009055792355
aa(lp324
VYamcha
p325
aF1584.4016690543901
aa(lp326
VLord raptor
p327
aF1584.4033843607617
aa(lp328
VModoi-san
p329
aF1584.4046732885997
aa(lp330
VJotaro kujo
p331
aF1584.4159694479345
aa(lp332
VAtusi
p333
aF1584.4169694390012
aa(lp334
VYamiyuki
p335
aF1584.420906727321
aa(lp336
VMr Bison
p337
aF1584.516811053264
aa(lp338
VInuzuka kiba
p339
aF1584.5597045526295
aa(lp340
VReimu
p341
aF1584.5647133156863
aa(lp342
VMega goku
p343
aF1584.566861544599
aa(lp344
VSsj4gohan
p345
aF1584.5683009034838
aa(lp346
VGogeta SSJ
p347
aF1584.569548373218
aa(lp348
VHomer
p349
aF1584.5765004560446
aa(lp350
VBaiken
p351
aF1584.583348108732
aa(lp352
VDocOck
p353
aF1584.583752097992
aa(lp354
VSajin
p355
aF1584.6086682966652
aa(lp356
VMunch
p357
aF1584.614149407744
aa(lp358
VRuby Heart
p359
aF1584.6672350841923
aa(lp360
VDodoria
p361
aF1584.7075140129614
aa(lp362
VGreat S Man
p363
aF1584.7126223521245
aa(lp364
VHebiitigo
p365
aF1584.7142229720823
aa(lp366
VPegasus di fuoco
p367
aF1584.7188990703823
aa(lp368
VMickey
p369
aF1584.735129931728
aa(lp370
VHercule gt
p371
aF1584.7356606930537
aa(lp372
VLucca
p373
aF1584.7390474260712
aa(lp374
VSpiderman 2099
p375
aF1584.7428473475966
aa(lp376
VBlack Adam
p377
aF1584.7458331822816
aa(lp378
VYoshikage killa
p379
aF1584.7467893092917
aa(lp380
VE-102r
p381
aF1584.7520806284854
aa(lp382
VNightwing
p383
aF1584.753575634755
aa(lp384
VMaximum frieza
p385
aF1584.7546742341367
aa(lp386
VPsylocke
p387
aF1584.775129615756
aa(lp388
VZangyura
p389
aF1584.804927914101
aa(lp390
VFreeza 100%
p391
aF1584.875684500906
aa(lp392
VDr gero-and20
p393
aF1584.8957025071527
aa(lp394
VFat Albert
p395
aF1584.902917362217
aa(lp396
VMega vegeta
p397
aF1584.9236872483752
aa(lp398
VTakobue
p399
aF1584.9335190134789
aa(lp400
VHigyo-pam
p401
aF1584.9360955904722
aa(lp402
VSimonkin2005
p403
aF1584.9409017782912
aa(lp404
VDark psylocke
p405
aF1584.9441079051855
aa(lp406
VSylphie
p407
aF1584.9482946505566
aa(lp408
VGarfield
p409
aF1584.9497170344048
aa(lp410
VZaku
p411
aF1584.9609028470447
aa(lp412
VI-no
p413
aF1584.9699186122502
aa(lp414
VLord Shaolin Lee
p415
aF1585.017048971497
aa(lp416
VJin Kazama
p417
aF1585.0256798312282
aa(lp418
VKid Gohan
p419
aF1585.0506642660753
aa(lp420
VW len ar
p421
aF1585.0544743879157
aa(lp422
VJones
p423
aF1585.064199817466
aa(lp424
VHuninki
p425
aF1585.0648108406754
aa(lp426
VTung Fu Rue
p427
aF1585.0707646139804
aa(lp428
VMega gohan
p429
aF1585.077951663423
aa(lp430
VNoroko
p431
aF1585.0783170007273
aa(lp432
VHokage
p433
aF1585.0998938993025
aa(lp434
VTimmy turner
p435
aF1585.1039842429857
aa(lp436
VMarvel spider-man
p437
aF1585.103992645276
aa(lp438
VZemial
p439
aF1585.1107428317405
aa(lp440
VKimberly
p441
aF1585.1147579047497
aa(lp442
VJoseph the b.b.
p443
aF1585.1308549746516
aa(lp444
VOgitafanada
p445
aF1585.17372526658
aa(lp446
VSailor Venus
p447
aF1585.1876379795187
aa(lp448
VJagi
p449
aF1585.219719089467
aa(lp450
VRecoome
p451
aF1585.244360648805
aa(lp452
VMeta-knight
p453
aF1585.2540615615417
aa(lp454
VNemesis
p455
aF1585.2575945961491
aa(lp456
VKenshin
p457
aF1585.2634666219474
aa(lp458
VKarin kanzuki
p459
aF1585.2772292509528
aa(lp460
VPepe
p461
aF1585.2812642293857
aa(lp462
VAnother jissou seki
p463
aF1585.3716487823751
aa(lp464
VSabretooth
p465
aF1585.3789411610283
aa(lp466
VHuman torch
p467
aF1585.3811500159754
aa(lp468
VChibi Goku
p469
aF1585.414115184583
aa(lp470
VBootleg ryu
p471
aF1585.480775326592
aa(lp472
VPiccolo Daimaoh
p473
aF1585.533330446031
aa(lp474
VKomepo
p475
aF1585.5796654854216
aa(lp476
V95
p477
aF1585.6055844794548
aa(lp478
VShino
p479
aF1585.680815359737
aa(lp480
VPrincess Peach
p481
aF1585.6842708021506
aa(lp482
VKuroko
p483
aF1585.7180836458042
aa(lp484
VGohan Zeta
p485
aF1585.721723285895
aa(lp486
VZantetsu
p487
aF1585.7792245728003
aa(lp488
VLady deathstrike
p489
aF1585.8198306258557
aa(lp490
VChipp
p491
aF1585.8274217852163
aa(lp492
V'gou no ken' kenshirou
p493
aF1585.902419230579
aa(lp494
VBizarro
p495
aF1585.937126617181
aa(lp496
VFubuki sakuragasaki
p497
aF1585.9402469475376
aa(lp498
VMotokoaoyama
p499
aF1586.0757199492102
aa(lp500
VSon goku
p501
aF1586.3124939470943
aa(lp502
VCammy
p503
aF1586.326698111443
aa(lp504
VReimi jyahana
p505
aF1586.4714537648858
aa(lp506
VTung fu rue
p507
aF1586.500617841953
aa(lp508
VBart
p509
aF1586.5138233488367
aa(lp510
VPikachu
p511
aF1586.647630287434
aa(lp512
VSailor moon
p513
aF1586.80920288462
aa(lp514
VYumeji kurokouchi
p515
aF1586.9455871176
aa(lp516
VGambit
p517
aF1587.0503055489412
aa(lp518
VSailor mars
p519
aF1587.4838311315918
aa(lp520
VKrillin
p521
aF1587.886118693546
aa(lp522
VDarkon
p523
aF1591.3330329366302
aa(lp524
VAnji
p525
aF1591.4079448068312
aa(lp526
VE-102R
p527
aF1591.4690985323095
aa(lp528
VSimba
p529
aF1591.4771797493638
aa(lp530
VZatanna
p531
aF1591.508387697603
aa(lp532
VKoopa Troopa
p533
aF1591.5238567363192
aa(lp534
VVanilla ice
p535
aF1591.6217755894681
aa(lp536
VGod Ken
p537
aF1591.6223751368889
aa(lp538
VRubber Soul
p539
aF1591.6602361933387
aa(lp540
VSsj gohan
p541
aF1591.661371372213
aa(lp542
VDodgers
p543
aF1591.6766164958433
aa(lp544
VXanmi chan
p545
aF1591.6903017854493
aa(lp546
VAngel ryu
p547
aF1591.6964165227123
aa(lp548
VRusty
p549
aF1591.7191311981974
aa(lp550
VGold Warmachine
p551
aF1591.7727345619062
aa(lp552
VSSJ Goku
p553
aF1591.81659651417
aa(lp554
VSsj3 goku
p555
aF1591.8207242637334
aa(lp556
VRorscach
p557
aF1591.824405900275
aa(lp558
VBlack Polnareff
p559
aF1591.8374945321034
aa(lp560
VJeice
p561
aF1591.8403471356555
aa(lp562
VShang Tsung
p563
aF1591.8448331259706
aa(lp564
VAraki runa
p565
aF1591.8517111951285
aa(lp566
VSol
p567
aF1591.8573607147466
aa(lp568
VCrono
p569
aF1591.8740687189072
aa(lp570
VTrunks sb1
p571
aF1591.8758496309058
aa(lp572
VMoorhunn
p573
aF1591.8845897921228
aa(lp574
VSuper boo
p575
aF1591.9358754848183
aa(lp576
VInvisible Woman
p577
aF1592.0006562170988
aa(lp578
VZabuza
p579
aF1592.0040650697724
aa(lp580
VGreat Saiyaman
p581
aF1592.0049942013502
aa(lp582
VHaohmaru
p583
aF1592.0054541991178
aa(lp584
VMajin boo
p585
aF1592.0100415450481
aa(lp586
VWhite len
p587
aF1592.0124804689635
aa(lp588
VShen
p589
aF1592.0132744013792
aa(lp590
VLi'l gohan
p591
aF1592.0132744013792
aa(lp592
VNobuhiko
p593
aF1592.0171954328305
aa(lp594
VGogeta ssj
p595
aF1592.0174114113631
aa(lp596
VSSJGoku
p597
aF1592.0211911809802
aa(lp598
VGotenks SSJ
p599
aF1592.0212211438295
aa(lp600
VGuerrero divino del dragn
p601
aF1592.0244884388333
aa(lp602
VMega Lilde
p603
aF1592.028571199918
aa(lp604
VGoku normal hd
p605
aF1592.0361278073815
aa(lp606
VKazuya
p607
aF1592.0442102479938
aa(lp608
VRinfa
p609
aF1592.0451157647474
aa(lp610
VP-Gohan SSJ2
p611
aF1592.0596301823552
aa(lp612
VMidler
p613
aF1592.0618359376288
aa(lp614
VArthur
p615
aF1592.0808714856082
aa(lp616
VBulma
p617
aF1592.163838921997
aa(lp618
VMirai trunks
p619
aF1592.1695104307314
aa(lp620
VLelouch
p621
aF1592.1722258901705
aa(lp622
VVegeta Ultra SSJ
p623
aF1592.1725038078516
aa(lp624
VEiji kisaragi
p625
aF1592.1764320003256
aa(lp626
VMr.satan
p627
aF1592.1764866980486
aa(lp628
VAstroboy
p629
aF1592.1776442290177
aa(lp630
V20 Dr. Gero
p631
aF1592.1798616657966
aa(lp632
VExocist(dnf)
p633
aF1592.1803319846688
aa(lp634
VKanmi chan
p635
aF1592.184284561242
aa(lp636
VMr satan
p637
aF1592.1843634715476
aa(lp638
VMinikata Moriya
p639
aF1592.1849450297184
aa(lp640
VSalty goku
p641
aF1592.1849450297184
aa(lp642
VChun Lee Dark Bolt
p643
aF1592.1882661448567
aa(lp644
VVegeth ssj2
p645
aF1592.1887482404054
aa(lp646
VYayoi
p647
aF1592.1890740937724
aa(lp648
VNeo-arc Chaos
p649
aF1592.1908528228619
aa(lp650
VGoku pce
p651
aF1592.192719243379
aa(lp652
V98SE
p653
aF1592.1969462212292
aa(lp654
VTrunks SB1
p655
aF1592.1976205790113
aa(lp656
VGohan GT
p657
aF1592.2002605185237
aa(lp658
VCell Junior
p659
aF1592.2013593944266
aa(lp660
VFreeza 1st Form
p661
aF1592.2038598567149
aa(lp662
VThierry Henry
p663
aF1592.2041078800646
aa(lp664
VWaha
p665
aF1592.2065748446203
aa(lp666
VMega Goku
p667
aF1592.210463291507
aa(lp668
VSuper Skrull
p669
aF1592.2130887482283
aa(lp670
VTrunks ssj4
p671
aF1592.2156068974155
aa(lp672
VMr buu
p673
aF1592.2197415109372
aa(lp674
VSailor Mercury
p675
aF1592.2231249653087
aa(lp676
VVegeta normal 2
p677
aF1592.2330756694664
aa(lp678
VDragon guy
p679
aF1592.2370092729793
aa(lp680
VShin Ryu
p681
aF1592.2511130316448
aa(lp682
VEiji Kisaragi
p683
aF1592.252702758976
aa(lp684
VMajin Buu
p685
aF1592.2535958438689
aa(lp686
VRhadamantis
p687
aF1592.3204708899748
aa(lp688
VSSJ3 Goku
p689
aF1592.3299132428435
aa(lp690
VOjisama-Chaos
p691
aF1592.3391004414489
aa(lp692
VLord Ravenous
p693
aF1592.346898101755
aa(lp694
VJack frost
p695
aF1592.3519296062593
aa(lp696
VChaotzu
p697
aF1592.3524373028297
aa(lp698
VBridget
p699
aF1592.352580298048
aa(lp700
VMisery
p701
aF1592.3558507754178
aa(lp702
VSinku
p703
aF1592.3559537257406
aa(lp704
VHisui&Kohaku;
p705
aF1592.359394188579
aa(lp706
VMech Gouki
p707
aF1592.3598931514339
aa(lp708
VAnother Jissou Seki
p709
aF1592.3598988049052
aa(lp710
VDio Di Musca
p711
aF1592.3602007939742
aa(lp712
VKyouko
p713
aF1592.3605434806243
aa(lp714
VGoku db
p715
aF1592.3638432172324
aa(lp716
VIsaiah bradley
p717
aF1592.363883757978
aa(lp718
VTakakazu Abe
p719
aF1592.3641154662726
aa(lp720
VGreen Lantern GG
p721
aF1592.3646733765163
aa(lp722
VDare devil
p723
aF1592.3646733765163
aa(lp724
VYagumo
p725
aF1592.3670702278391
aa(lp726
VCaptan Ginew
p727
aF1592.3714597669896
aa(lp728
VDosu
p729
aF1592.3729360009227
aa(lp730
VB. magic girl
p731
aF1592.378357107801
aa(lp732
VSpider Girl
p733
aF1592.3802479139115
aa(lp734
VGreen Devil
p735
aF1592.382395903106
aa(lp736
VBroly
p737
aF1592.3842888740455
aa(lp738
VKumao
p739
aF1592.3875569956401
aa(lp740
VShuma Gorath
p741
aF1592.3915016724961
aa(lp742
VBlaziken
p743
aF1592.391702007059
aa(lp744
VChill Penguin
p745
aF1592.3950674738674
aa(lp746
VHyper buu
p747
aF1592.4015679822148
aa(lp748
V98se
p749
aF1592.4015679822148
aa(lp750
VKaori&shiori;
p751
aF1592.4015679822148
aa(lp752
VGuldo
p753
aF1592.4015679822148
aa(lp754
VYang
p755
aF1592.4015679822148
aa(lp756
VOmegamon
p757
aF1592.4015679822148
aa(lp758
VBrian griffin
p759
aF1592.4015679822148
aa(lp760
VNenaikodareda
p761
aF1592.4015679822148
aa(lp762
VSilver surfer
p763
aF1592.4015679822148
aa(lp764
VV.akiha
p765
aF1592.4015679822148
aa(lp766
VRen_idagawa
p767
aF1592.4015679822148
aa(lp768
VQuicksilver
p769
aF1592.4015679822148
aa(lp770
VHina
p771
aF1592.4015679822148
aa(lp772
VHuman Torch
p773
aF1592.4015679822148
aa(lp774
VChaos blanka
p775
aF1592.4015679822148
aa(lp776
VLizardman
p777
aF1592.4015679822148
aa(lp778
VMr.karate
p779
aF1592.4015679822148
aa(lp780
VMega And 18
p781
aF1592.4015679822148
aa(lp782
VHads
p783
aF1592.4080292461772
aa(lp784
VByakuya
p785
aF1592.4103871153095
aa(lp786
VNate Summers
p787
aF1592.411370318024
aa(lp788
VVicViper
p789
aF1592.4118177039763
aa(lp790
VAmingo
p791
aF1592.4141105488056
aa(lp792
VFat albert
p793
aF1592.4262652923323
aa(lp794
VMr. increible
p795
aF1592.4450856021813
aa(lp796
VOjisama
p797
aF1592.447796650454
aa(lp798
VButt-head
p799
aF1592.4612429024
aa(lp800
VGohan School
p801
aF1592.4894224831319
aa(lp802
VKara Na Hito
p803
aF1592.4992889248
aa(lp804
VHonda Asuka
p805
aF1592.504435783967
aa(lp806
VDr Gero and 20
p807
aF1592.5166441541971
aa(lp808
VEdward elrick
p809
aF1592.5273045119618
aa(lp810
VKarin Kanzuki
p811
aF1592.5318431670696
aa(lp812
VGoku SSJ 3
p813
aF1592.5342282859601
aa(lp814
VBoulma
p815
aF1592.5350247396125
aa(lp816
VMega Piccolo
p817
aF1592.5391004480964
aa(lp818
VLion-o
p819
aF1592.5393982388941
aa(lp820
VUryuu
p821
aF1592.5398951990858
aa(lp822
VVenon
p823
aF1592.543398656237
aa(lp824
VTenshi
p825
aF1592.5435079420272
aa(lp826
Vu
p827
aF1592.5439610696762
aa(lp828
VNate
p829
aF1592.5439610696762
aa(lp830
VMusashi akatsuki
p831
aF1592.5479625648677
aa(lp832
VButthead
p833
aF1592.5504791070523
aa(lp834
VBishamon
p835
aF1592.551707640895
aa(lp836
VBender
p837
aF1592.563359525332
aa(lp838
VDinozord
p839
aF1592.5683432881663
aa(lp840
VZangya
p841
aF1592.5712459583979
aa(lp842
V95 No Danna
p843
aF1592.5756435260234
aa(lp844
VChise
p845
aF1592.575868374993
aa(lp846
VMystia
p847
aF1592.5800988984565
aa(lp848
VFranko
p849
aF1592.5842016424888
aa(lp850
VReimi Jyahana
p851
aF1592.6624145760882
aa(lp852
VHe-man
p853
aF1592.6943920160465
aa(lp854
VYuki in midday
p855
aF1592.7069181242146
aa(lp856
VMultiple Man
p857
aF1592.71022270635
aa(lp858
VAsuta-san
p859
aF1592.713856573823
aa(lp860
VCyborg_mai
p861
aF1592.7146546217534
aa(lp862
VGohan fight money
p863
aF1592.7345827134675
aa(lp864
VNightmare
p865
aF1592.7424909704325
aa(lp866
VK' xiii
p867
aF1592.745642558098
aa(lp868
VHeita zinnai
p869
aF1592.745642558098
aa(lp870
VIno
p871
aF1592.7458478585543
aa(lp872
VShuh
p873
aF1592.7458890799996
aa(lp874
VHideo&kyoko;
p875
aF1592.7558670049432
aa(lp876
VTyouunn-shiryu
p877
aF1592.7615189069256
aa(lp878
VEvil ranger
p879
aF1592.767947436995
aa(lp880
VHel Lauren
p881
aF1592.767947436995
aa(lp882
VLeela
p883
aF1592.7792874482789
aa(lp884
VHinata
p885
aF1592.8552791146778
aa(lp886
VShadowman CFAS
p887
aF1592.8726380485184
aa(lp888
VGoku transformer
p889
aF1592.8823616462096
aa(lp890
VChizuru Kagura
p891
aF1592.8868118788787
aa(lp892
VSnoopy
p893
aF1592.8876053969939
aa(lp894
VVegeth@
p895
aF1592.8980975632167
aa(lp896
VMr Karate
p897
aF1592.9003454022147
aa(lp898
VGreat saiyaman
p899
aF1592.902045024573
aa(lp900
VSango
p901
aF1592.906827514284
aa(lp902
VEiko magami
p903
aF1592.9099601748792
aa(lp904
VWhite ranger
p905
aF1592.9386651089767
aa(lp906
VJon talbain
p907
aF1592.939691475084
aa(lp908
VCaptain ginyu
p909
aF1592.9949593198617
aa(lp910
VTao Jun
p911
aF1593.031375586665
aa(lp912
VNinja megazord
p913
aF1593.034499100203
aa(lp914
VAndroid 17
p915
aF1593.0349115333934
aa(lp916
VSsjgoku
p917
aF1593.0497739099997
aa(lp918
VHercule GT
p919
aF1593.0510891123226
aa(lp920
VElectro
p921
aF1593.0524529538466
aa(lp922
VKhan
p923
aF1593.0591119809146
aa(lp924
VChaos
p925
aF1593.080440365942
aa(lp926
VJustice
p927
aF1593.0899286472907
aa(lp928
VSon trunks
p929
aF1593.129088788039
aa(lp930
VInspector gadget
p931
aF1593.158226090109
aa(lp932
VMega Vegeta
p933
aF1593.1648964623585
aa(lp934
VShin Gouki
p935
aF1593.1845689452523
aa(lp936
VPunisher
p937
aF1593.255549667254
aa(lp938
VSasuke
p939
aF1593.2603430471488
aa(lp940
VLord Raptor
p941
aF1593.2667673116057
aa(lp942
VLuigi
p943
aF1593.27271755409
aa(lp944
VDoraemon
p945
aF1593.279077890632
aa(lp946
VSakura shingouji
p947
aF1593.2796897392727
aa(lp948
VSponge bob
p949
aF1593.3764034809933
aa(lp950
VPredator
p951
aF1593.4210535034085
aa(lp952
VSuper vegeta
p953
aF1593.4315634558782
aa(lp954
VKen
p955
aF1593.4770375601381
aa(lp956
VBane
p957
aF1593.5413742377698
aa(lp958
VBaby commando
p959
aF1593.5591613011566
aa(lp960
VKaguya kimimaro
p961
aF1593.6628667641394
aa(lp962
VNamor
p963
aF1593.8969212546492
aa(lp964
VGaara
p965
aF1593.9620721849917
aa(lp966
VGeese
p967
aF1594.0682727812934
aa(lp968
VFlash
p969
aF1594.1375250497108
aa(lp970
VAirman
p971
aF1594.223707879526
aa(lp972
VDan
p973
aF1594.4233815883567
aa(lp974
VBrimstone
p975
aF1594.5397126215328
aa(lp976
VAlice
p977
aF1594.6508441575752
aa(lp978
VSentry
p979
aF1594.7003474310097
aa(lp980
VFuture trunks
p981
aF1595.9862845586808
aa(lp982
VD-Rugal
p983
aF1598.5681568740642
aa(lp984
V98
p985
aF1598.5889799726206
aa(lp986
VTyouun Shiryu
p987
aF1598.8841512675758
aa(lp988
VVegetto
p989
aF1599.1164290215263
aa(lp990
VHal jordan
p991
aF1599.1388843601183
aa(lp992
VUltraman
p993
aF1599.307568116835
aa(lp994
VBartman
p995
aF1599.3358853627349
aa(lp996
VZarbom
p997
aF1599.3702739699404
aa(lp998
VDragon Guy
p999
aF1599.4112591656317
aa(lp1000
VMako
p1001
aF1599.4423872494312
aa(lp1002
VGuerrero Divino
p1003
aF1599.4686208748037
aa(lp1004
VHydra
p1005
aF1599.497408482098
aa(lp1006
VZero
p1007
aF1599.501371187923
aa(lp1008
VKano
p1009
aF1599.5258172467497
aa(lp1010
VChouji
p1011
aF1599.5641038297863
aa(lp1012
VKiba
p1013
aF1599.572597038627
aa(lp1014
VPicurin
p1015
aF1599.6087499945604
aa(lp1016
VTara-Gyouza
p1017
aF1599.6359938273715
aa(lp1018
VUnknown
p1019
aF1599.6488813784977
aa(lp1020
Vkgohanv594
p1021
aF1599.668931669149
aa(lp1022
VVenom Scorpion
p1023
aF1599.6734184334202
aa(lp1024
VVegeta SSJ3
p1025
aF1599.6745630639587
aa(lp1026
VFirebrand
p1027
aF1599.784200010976
aa(lp1028
VGuy gardner
p1029
aF1599.8130985181015
aa(lp1030
VAlessi
p1031
aF1599.8163139567607
aa(lp1032
Vcpu
p1033
aF1599.8253561915765
aa(lp1034
VSparta_heika
p1035
aF1599.8272472731585
aa(lp1036
VLou
p1037
aF1599.8323221615635
aa(lp1038
VViuda negra
p1039
aF1599.8332435621073
aa(lp1040
VPiccolo daimaoh
p1041
aF1599.8381676929482
aa(lp1042
VBatman beyond
p1043
aF1599.8485469214186
aa(lp1044
VGrappler_hiyama
p1045
aF1599.8485469214186
aa(lp1046
VShadowcat
p1047
aF1599.8690396677346
aa(lp1048
VStarfire
p1049
aF1599.874340339867
aa(lp1050
VI-No
p1051
aF1599.9611966539453
aa(lp1052
VNrvnqsr Chaos
p1053
aF1599.986367700902
aa(lp1054
VInvisible woman
p1055
aF1599.9933341818119
aa(lp1056
VBomber Man
p1057
aF1599.9953727339414
aa(lp1058
VDesperado+
p1059
aF1599.9961390753876
aa(lp1060
VHenri
p1061
aI1600
aa(lp1062
V*Marco
p1063
aI1600
aa(lp1064
V*Orione
p1065
aI1600
aa(lp1066
VBeavis
p1067
aI1600
aa(lp1068
VMinis mahn
p1069
aI1600
aa(lp1070
V*Bane
p1071
aI1600
aa(lp1072
VRouge
p1073
aI1600
aa(lp1074
V*The Joker
p1075
aI1600
aa(lp1076
VMamizou
p1077
aI1600
aa(lp1078
VDark ash
p1079
aI1600
aa(lp1080
VGogeta SSJ2
p1081
aI1600
aa(lp1082
VNightmare yamazaki
p1083
aI1600
aa(lp1084
V*Beast
p1085
aI1600
aa(lp1086
VSailor neptune
p1087
aI1600
aa(lp1088
VChloe
p1089
aI1600
aa(lp1090
Vpizza\u005cpizza.def
p1091
aI1600
aa(lp1092
VKogasa
p1093
aI1600
aa(lp1094
VReisen
p1095
aI1600
aa(lp1096
VX
p1097
aI1600
aa(lp1098
VYatogi tetsu
p1099
aI1600
aa(lp1100
V*Mr. Fantastic
p1101
aI1600
aa(lp1102
VHigh Dio
p1103
aI1600
aa(lp1104
VA.B.A.
p1105
aI1600
aa(lp1106
VKaren Na Hito
p1107
aI1600
aa(lp1108
Vgill\u005cgill.def
p1109
aI1600
aa(lp1110
VGoku ssj 3
p1111
aI1600
aa(lp1112
VMega lilde
p1113
aI1600
aa(lp1114
VYakui San
p1115
aI1600
aa(lp1116
V(sman)
p1117
aI1600
aa(lp1118
VSuper Vegeta
p1119
aI1600
aa(lp1120
V*Spiral
p1121
aI1600
aa(lp1122
VKaio shin
p1123
aI1600
aa(lp1124
VScarlet witch
p1125
aI1600
aa(lp1126
VGoku DB
p1127
aI1600
aa(lp1128
VAsahina mikuru
p1129
aI1600
aa(lp1130
V*Superman
p1131
aI1600
aa(lp1132
VVic Viper
p1133
aI1600
aa(lp1134
VBig chicken
p1135
aI1600
aa(lp1136
VRouga_zanma
p1137
aI1600
aa(lp1138
VLunasa prismriver
p1139
aI1600
aa(lp1140
VMorgiana
p1141
aI1600
aa(lp1142
VAlice margatroid
p1143
aI1600
aa(lp1144
V*Geese
p1145
aI1600
aa(lp1146
VChris sakurigan
p1147
aI1600
aa(lp1148
V*Pegasus Di Fuoco
p1149
aI1600
aa(lp1150
VAraki Runa
p1151
aI1600
aa(lp1152
VMio
p1153
aI1600
aa(lp1154
VMiyazato erika
p1155
aI1600
aa(lp1156
VEri_hasumi
p1157
aI1600
aa(lp1158
VKen & gang
p1159
aI1600
aa(lp1160
VTizoc
p1161
aI1600
aa(lp1162
VDeath Maul
p1163
aI1600
aa(lp1164
V*Hydra
p1165
aI1600
aa(lp1166
VMegaman.exe
p1167
aI1600
aa(lp1168
VGoku SB1
p1169
aI1600
aa(lp1170
VBrian Griffin
p1171
aI1600
aa(lp1172
VYuri di aaaaaaa
p1173
aI1600
aa(lp1174
VDark Ryu
p1175
aI1600
aa(lp1176
VUkitake
p1177
aI1600
aa(lp1178
VGoku sayajin
p1179
aI1600
aa(lp1180
VRed tornado
p1181
aI1600
aa(lp1182
VAgito_of_the_dark
p1183
aI1600
aa(lp1184
VMorfo
p1185
aI1600
aa(lp1186
V*Nanaya
p1187
aI1600
aa(lp1188
V*Piccolo Daimaoh
p1189
aI1600
aa(lp1190
VSuwako moriya
p1191
aI1600
aa(lp1192
VSaya
p1193
aI1600
aa(lp1194
VVegeta Normal 2
p1195
aI1600
aa(lp1196
VVegeta Normal 3
p1197
aI1600
aa(lp1198
VMurasa
p1199
aI1600
aa(lp1200
VYoshikage Killa
p1201
aI1600
aa(lp1202
VAntman
p1203
aI1600
aa(lp1204
VXP Pro
p1205
aI1600
aa(lp1206
VBra 1
p1207
aI1600
aa(lp1208
VPiccolo SB1
p1209
aI1600
aa(lp1210
VMega and.18
p1211
aI1600
aa(lp1212
V*Super Vegeta
p1213
aI1600
aa(lp1214
VVegeta sb1
p1215
aI1600
aa(lp1216
VFio
p1217
aI1600
aa(lp1218
VVictor
p1219
aI1600
aa(lp1220
VGoku gt ssj3
p1221
aI1600
aa(lp1222
VYuyuko saigyouji
p1223
aI1600
aa(lp1224
V*Yuki
p1225
aI1600
aa(lp1226
VGoku kaiouken x4
p1227
aI1600
aa(lp1228
VInuzuma Kiba
p1229
aI1600
aa(lp1230
VShin bison
p1231
aI1600
aa(lp1232
V2k
p1233
aI1600
aa(lp1234
VMora
p1235
aI1600
aa(lp1236
VSpopovich
p1237
aI1600
aa(lp1238
VGrover
p1239
aI1600
aa(lp1240
VOpera Elmer
p1241
aI1600
aa(lp1242
VGoku GT SSJ3
p1243
aI1600
aa(lp1244
VGotenks
p1245
aI1600
aa(lp1246
VRock Howard
p1247
aI1600
aa(lp1248
VThe nightmare
p1249
aI1600
aa(lp1250
VKarnov
p1251
aI1600
aa(lp1252
V*Vanilla Ice
p1253
aI1600
aa(lp1254
VGoku SSJ2
p1255
aI1600
aa(lp1256
VTrevor Spacer
p1257
aI1600
aa(lp1258
VMukai
p1259
aI1600
aa(lp1260
VRobert garcia
p1261
aI1600
aa(lp1262
VVisbou
p1263
aI1600
aa(lp1264
VSkull-man
p1265
aI1600
aa(lp1266
VNanase(+d)&mayu;
p1267
aI1600
aa(lp1268
VDaigo
p1269
aI1600
aa(lp1270
VBurai_yamamoto
p1271
aI1600
aa(lp1272
Vgohanex\u005cgohanex.def
p1273
aI1600
aa(lp1274
V*Cammy
p1275
aI1600
aa(lp1276
VTakuma.s_xiii
p1277
aI1600
aa(lp1278
VMr Satan
p1279
aI1600
aa(lp1280
VLady Deathstrike
p1281
aI1600
aa(lp1282
VSinestro
p1283
aI1600
aa(lp1284
VDoomsday
p1285
aI1600
aa(lp1286
V*Punisher
p1287
aI1600
aa(lp1288
VMeirin
p1289
aI1600
aa(lp1290
VSpelunker Sensei
p1291
aI1600
aa(lp1292
VSanae
p1293
aI1600
aa(lp1294
VSanzou_kongoumaru
p1295
aI1600
aa(lp1296
VAeris ;or if you prefer, use aerith
p1297
aI1600
aa(lp1298
VShin mr. karate
p1299
aI1600
aa(lp1300
VSailor Moon
p1301
aI1600
aa(lp1302
V*Emma Frost
p1303
aI1600
aa(lp1304
VVegeth SSJ2
p1305
aI1600
aa(lp1306
VPeter
p1307
aI1600
aa(lp1308
VSuper Boo
p1309
aI1600
aa(lp1310
V*Airman
p1311
aI1600
aa(lp1312
VGotenks SSJ3
p1313
aI1600
aa(lp1314
VSinki
p1315
aI1600
aa(lp1316
VLion-O
p1317
aI1600
aa(lp1318
V*Predator
p1319
aI1600
aa(lp1320
V2Ban-tan
p1321
aI1600
aa(lp1322
VGohan ssj2
p1323
aI1600
aa(lp1324
V*Human Torch
p1325
aI1600
aa(lp1326
VHeika
p1327
aI1600
aa(lp1328
VKyo kusanagi
p1329
aI1600
aa(lp1330
VSephiroth
p1331
aI1600
aa(lp1332
VUzumaki Naruto
p1333
aI1600
aa(lp1334
VFoxy
p1335
aI1600
aa(lp1336
VGinew 2
p1337
aI1600
aa(lp1338
VBack Beard
p1339
aI1600
aa(lp1340
VIori yagami
p1341
aI1600
aa(lp1342
VTest12
p1343
aF1600.004143121367
aa(lp1344
VPrince vegeta
p1345
aF1600.0048808295296
aa(lp1346
VRuby heart
p1347
aF1600.0341947449228
aa(lp1348
VVegeta ssj4
p1349
aF1600.0365830244014
aa(lp1350
VDr Gero
p1351
aF1600.0369792869265
aa(lp1352
VGurocure
p1353
aF1600.0385658342786
aa(lp1354
VChibi goku
p1355
aF1600.0410426951519
aa(lp1356
VReptos
p1357
aF1600.053485646218
aa(lp1358
VM-Vegeta SSJ3
p1359
aF1600.0711003239549
aa(lp1360
VEagle
p1361
aF1600.084872662253
aa(lp1362
VScorpion
p1363
aF1600.0905106586533
aa(lp1364
VJohnny
p1365
aF1600.1499700384702
aa(lp1366
VTest5
p1367
aF1600.1841742594847
aa(lp1368
VVegetaHD2
p1369
aF1600.1841742594847
aa(lp1370
VBartman\u005c._bartman.def
p1371
aF1600.1841742594847
aa(lp1372
Vsouseiseki\u005csouseiseki.def
p1373
aF1600.1841742594847
aa(lp1374
VTheJoker
p1375
aF1600.1841742594847
aa(lp1376
VHijiri byakuren
p1377
aF1600.1841742594847
aa(lp1378
VPChunli\u005cpchunli.def
p1379
aF1600.1841742594847
aa(lp1380
VCyberbots_Reptos
p1381
aF1600.1841742594847
aa(lp1382
Vvegetahd2\u005cVegetaHD2.def
p1383
aF1600.1841742594847
aa(lp1384
VSuperskrull\u005cSuperskrull.def
p1385
aF1600.1841742594847
aa(lp1386
VGoten GT nex
p1387
aF1600.1841742594847
aa(lp1388
Ve
p1389
aF1600.1841742594847
aa(lp1390
Vnagato
p1391
aF1600.1841742594847
aa(lp1392
VDeathOgre\u005cDeathOgre.def
p1393
aF1600.1841742594847
aa(lp1394
V!so_mexican
p1395
aF1600.1841742594847
aa(lp1396
Vginew\u005cGinew_Final.def
p1397
aF1600.1841742594847
aa(lp1398
Vmm_rox\u005cmm_rox.def
p1399
aF1600.1841742594847
aa(lp1400
Vgobo\u005cgobo.def
p1401
aF1600.1841742594847
aa(lp1402
VEmerl
p1403
aF1600.184193402956
aa(lp1404
VSkeletor
p1405
aF1600.189272735597
aa(lp1406
VPicapiedra
p1407
aF1600.1985182229585
aa(lp1408
VTrevor spacer
p1409
aF1600.2116404818305
aa(lp1410
VHaruno sakura
p1411
aF1600.2133770083744
aa(lp1412
VSteel
p1413
aF1600.216895436967
aa(lp1414
VHellboy
p1415
aF1600.216895436967
aa(lp1416
Vwingzero\u005cwingzero.def
p1417
aF1600.217645233854
aa(lp1418
VCarnage
p1419
aF1600.248531363563
aa(lp1420
VPopeye
p1421
aF1600.2761244989997
aa(lp1422
VMr. bison
p1423
aF1600.2848443664143
aa(lp1424
VKrizalid
p1425
aF1600.289234831627
aa(lp1426
VKujo Jotaro
p1427
aF1600.299644612125
aa(lp1428
VWild Ken Ex
p1429
aF1600.3050335435394
aa(lp1430
VTest3
p1431
aF1600.3483705705512
aa(lp1432
VChibi Gohan Nex
p1433
aF1600.3554384005208
aa(lp1434
VJamian
p1435
aF1600.359968822029
aa(lp1436
VAnother Iori
p1437
aF1600.360192442968
aa(lp1438
VWhite Len
p1439
aF1600.3745771837275
aa(lp1440
VPetShop
p1441
aF1600.3754541081478
aa(lp1442
VSamurai jack
p1443
aF1600.3826723602185
aa(lp1444
VSailor Jupiter
p1445
aF1600.3914497761527
aa(lp1446
VBenimaru
p1447
aF1600.3936700010947
aa(lp1448
VZappa
p1449
aF1600.3965029343128
aa(lp1450
VShaoran lee
p1451
aF1600.400759153718
aa(lp1452
VFat boo
p1453
aF1600.4015679822148
aa(lp1454
VTapion
p1455
aF1600.4126091870062
aa(lp1456
VTaki
p1457
aF1600.4205951224385
aa(lp1458
VSongoku-snk/sf
p1459
aF1600.4326151323328
aa(lp1460
VKurama
p1461
aF1600.4466098500295
aa(lp1462
VRobo-ky
p1463
aF1600.468469265461
aa(lp1464
VSangoku
p1465
aF1600.5115412281434
aa(lp1466
VRanma saotome
p1467
aF1600.515987207554
aa(lp1468
VRoll
p1469
aF1600.5162004063213
aa(lp1470
VSophitia
p1471
aF1600.551866282151
aa(lp1472
VGreen Arrow
p1473
aF1600.5641911375494
aa(lp1474
VYumi
p1475
aF1600.568643248108
aa(lp1476
VLesty
p1477
aF1600.5709426530857
aa(lp1478
VSamurai Jack
p1479
aF1600.5730708329004
aa(lp1480
VPsycho weapon
p1481
aF1600.5830668422238
aa(lp1482
VXp(pro)
p1483
aF1600.6475639976543
aa(lp1484
VTest1
p1485
aF1600.680095837278
aa(lp1486
VAracne De Tarantula
p1487
aF1600.6957313748082
aa(lp1488
VSyo Hayate
p1489
aF1600.6979644597718
aa(lp1490
VS.p.o. ryu
p1491
aF1600.7211708286172
aa(lp1492
VPrincess peach
p1493
aF1600.727402882481
aa(lp1494
VKenshiro
p1495
aF1600.7428884413814
aa(lp1496
VGreen lantern js
p1497
aF1600.7467893092917
aa(lp1498
VTen
p1499
aF1600.8299640738041
aa(lp1500
VYusuke
p1501
aF1600.8444366858337
aa(lp1502
VUzumaki naruto
p1503
aF1600.8975953663128
aa(lp1504
VSSJ Gohan
p1505
aF1600.9176041176308
aa(lp1506
VPizza
p1507
aF1600.9319508862359
aa(lp1508
VMajin vegeta ssj6
p1509
aF1600.9333291067205
aa(lp1510
VKazuya mishima
p1511
aF1600.9406187641512
aa(lp1512
VSSJ6 Vegeta
p1513
aF1601.037441685865
aa(lp1514
VGoku GT
p1515
aF1601.0663882879435
aa(lp1516
VAndore jr
p1517
aF1601.1022582512282
aa(lp1518
VChibi trunks
p1519
aF1601.105868846428
aa(lp1520
VVegeta ssj5
p1521
aF1601.1063796388303
aa(lp1522
VTara-gyouza
p1523
aF1601.1104884747456
aa(lp1524
VOmega tom hanks
p1525
aF1601.1178441678446
aa(lp1526
VAthena
p1527
aF1601.1651473850507
aa(lp1528
VPiccolo
p1529
aF1601.2086653896235
aa(lp1530
VPan
p1531
aF1601.2250231346156
aa(lp1532
VTakakazu abe
p1533
aF1601.2280891511116
aa(lp1534
VShiki vp
p1535
aF1601.2311269795712
aa(lp1536
VHaku
p1537
aF1601.246998404512
aa(lp1538
VWario
p1539
aF1601.2814406088742
aa(lp1540
VNega joe
p1541
aF1601.2913980664214
aa(lp1542
VNeji
p1543
aF1601.295675058793
aa(lp1544
VSpawn
p1545
aF1601.4058766154703
aa(lp1546
VGoten
p1547
aF1601.4545454545455
aa(lp1548
VCv wakamoto
p1549
aF1601.4545454545455
aa(lp1550
VBlack mask
p1551
aF1601.4545454545455
aa(lp1552
VGuile
p1553
aF1601.4545454545455
aa(lp1554
VGlacius
p1555
aF1601.4545454545455
aa(lp1556
VHarpagos
p1557
aF1601.4545454545455
aa(lp1558
VNanoha takamachi
p1559
aF1601.4545454545455
aa(lp1560
VDeath maul
p1561
aF1601.4731972854263
aa(lp1562
VRobocop
p1563
aF1601.4787772094471
aa(lp1564
VBlue destiny 2
p1565
aF1601.5807552326428
aa(lp1566
VShadow vegeta
p1567
aF1601.6329917329929
aa(lp1568
VAxl
p1569
aF1601.7358748982208
aa(lp1570
VMaster chief
p1571
aF1601.7892562335019
aa(lp1572
VNobunaga
p1573
aF1601.814631568492
aa(lp1574
VAnakaris
p1575
aF1601.9344924773754
aa(lp1576
VG rugal
p1577
aF1601.9656246967388
aa(lp1578
VP Chunli
p1579
aF1602.1194549406364
aa(lp1580
VTron bonne
p1581
aF1602.9487260692151
aa(lp1582
VBomber man
p1583
aF1602.9929112443633
aa(lp1584
VGoku
p1585
aF1605.414355741412
aa(lp1586
VHol Horse
p1587
aF1606.4648790815027
aa(lp1588
VOnslaught
p1589
aF1606.4741211926485
aa(lp1590
VGreat gohan
p1591
aF1606.5270198246433
aa(lp1592
VWalkyrie
p1593
aF1606.5989687358865
aa(lp1594
VGold warmachine
p1595
aF1606.6247108816547
aa(lp1596
VTiger
p1597
aF1606.7919199790308
aa(lp1598
VKurihan
p1599
aF1606.836277104822
aa(lp1600
VAngel Ryu
p1601
aF1606.8645300829676
aa(lp1602
VAlien Queen
p1603
aF1606.9746939809859
aa(lp1604
VOmega Tom Hanks
p1605
aF1607.0130828121173
aa(lp1606
VWing Zero
p1607
aF1607.0271236948304
aa(lp1608
VStrong guy
p1609
aF1607.1391322865459
aa(lp1610
VTest2
p1611
aF1607.1633492395947
aa(lp1612
VAku Amakusa
p1613
aF1607.1702890661156
aa(lp1614
VSonic
p1615
aF1607.1714412286117
aa(lp1616
VHotaru
p1617
aF1607.1866212191646
aa(lp1618
VWakko
p1619
aF1607.1943643373918
aa(lp1620
VAndromeda
p1621
aF1607.2237072450896
aa(lp1622
VThanoseid
p1623
aF1607.2871796858535
aa(lp1624
VTails
p1625
aF1607.2895924264044
aa(lp1626
VKanmi Chan
p1627
aF1607.297893904825
aa(lp1628
VNanaya Shiki
p1629
aF1607.3025551989574
aa(lp1630
VKoopa Troppa
p1631
aF1607.3025551989574
aa(lp1632
VDr. Doom
p1633
aF1607.3101344171598
aa(lp1634
VGogeta SSJ3
p1635
aF1607.3152435760244
aa(lp1636
VFordy
p1637
aF1607.317676549462
aa(lp1638
VAgony
p1639
aF1607.3203601666926
aa(lp1640
VSaori - Athena
p1641
aF1607.3295783141834
aa(lp1642
VPerfect Storm X
p1643
aF1607.3523027669955
aa(lp1644
VFelicia
p1645
aF1607.4262794698575
aa(lp1646
VJoseph the BB
p1647
aF1607.4445427272758
aa(lp1648
VBlue Destiny 2
p1649
aF1607.4538533385926
aa(lp1650
VDee Jay
p1651
aF1607.464217305816
aa(lp1652
VDoom Vega
p1653
aF1607.4719493761793
aa(lp1654
VYumeji Kurokouchi
p1655
aF1607.4734888155795
aa(lp1656
VMotoko-Aoyama
p1657
aF1607.4813044602024
aa(lp1658
VGreat s. man
p1659
aF1607.4813387814913
aa(lp1660
VRobo Rock
p1661
aF1607.4851731696383
aa(lp1662
VThe Joker
p1663
aF1607.485285226955
aa(lp1664
VToki
p1665
aF1607.4904278807849
aa(lp1666
VGohan SSJ2
p1667
aF1607.4925856453183
aa(lp1668
VGohan school
p1669
aF1607.4987332883477
aa(lp1670
VRouga(coh)
p1671
aF1607.5005641367147
aa(lp1672
VDark Psylocke
p1673
aF1607.5009182369913
aa(lp1674
VSSJ4 Gogeta
p1675
aF1607.5033360391465
aa(lp1676
VNmori yagami
p1677
aF1607.508387697603
aa(lp1678
VYellow-Pipo
p1679
aF1607.5206591332574
aa(lp1680
VHyoga De Cisne
p1681
aF1607.5646277338758
aa(lp1682
VAkiha
p1683
aF1607.5805573616303
aa(lp1684
VWinnie the Pooh
p1685
aF1607.6109152975048
aa(lp1686
VChosu
p1687
aF1607.6168902643287
aa(lp1688
VGoku SSJ GT
p1689
aF1607.6207191044005
aa(lp1690
VShadow Vegeta
p1691
aF1607.6223751368889
aa(lp1692
VYellow Devil
p1693
aF1607.6244534466707
aa(lp1694
VDet. garret laurel
p1695
aF1607.63009414816
aa(lp1696
VMusashi Akatsuki
p1697
aF1607.6339988411094
aa(lp1698
VSSJ3 Broli
p1699
aF1607.6400510843062
aa(lp1700
VMegaman.EXE
p1701
aF1607.645093904122
aa(lp1702
VMech Hisui
p1703
aF1607.645093904122
aa(lp1704
VBig Chicken
p1705
aF1607.645093904122
aa(lp1706
VRobo rock
p1707
aF1607.645093904122
aa(lp1708
VDrDoom
p1709
aF1607.645093904122
aa(lp1710
VBB Hood
p1711
aF1607.6471790584194
aa(lp1712
VNamek Gohan
p1713
aF1607.6482221121641
aa(lp1714
VSeravy
p1715
aF1607.6490073176449
aa(lp1716
VGohan ssj3
p1717
aF1607.6561069007835
aa(lp1718
VTrouble man
p1719
aF1607.6574067689103
aa(lp1720
VChibi naruto
p1721
aF1607.6574562654714
aa(lp1722
VKim kaphwan
p1723
aF1607.6574641879008
aa(lp1724
VGreat S man
p1725
aF1607.660468370754
aa(lp1726
VOrochi Iori
p1727
aF1607.6722176768337
aa(lp1728
VChill penguin
p1729
aF1607.6893519861046
aa(lp1730
VSilver horns
p1731
aF1607.6938243127713
aa(lp1732
VSean Matsuda
p1733
aF1607.7383784660187
aa(lp1734
VYoko Yuki
p1735
aF1607.7998880516923
aa(lp1736
VSlash
p1737
aF1607.8048172687236
aa(lp1738
VKagami Kyosuke
p1739
aF1607.8083199176585
aa(lp1740
VSaori-Athena
p1741
aF1607.8115943015384
aa(lp1742
VNeco-arc Chaos
p1743
aF1607.8119677462516
aa(lp1744
VCheap boss type
p1745
aF1607.8131805806026
aa(lp1746
VShadow Man
p1747
aF1607.8177020142168
aa(lp1748
VJon Talbain
p1749
aF1607.820004970191
aa(lp1750
VShuko
p1751
aF1607.820064313271
aa(lp1752
VUsapi
p1753
aF1607.8240115553476
aa(lp1754
VIron Lantern
p1755
aF1607.8405513187304
aa(lp1756
VArmored gohan
p1757
aF1607.8410705076967
aa(lp1758
VDizzy
p1759
aF1607.8436841209
aa(lp1760
VGod Yuri
p1761
aF1607.8468309888265
aa(lp1762
VSatsuki Yumiduka
p1763
aF1607.8491481633037
aa(lp1764
VRandy M Green
p1765
aF1607.8526403954918
aa(lp1766
VRobo Ky
p1767
aF1607.8562794854374
aa(lp1768
VCaptain America
p1769
aF1607.9713009820202
aa(lp1770
VUbu
p1771
aF1607.9771118225046
aa(lp1772
VBaby Commando
p1773
aF1607.9834635968284
aa(lp1774
VStrider Hien
p1775
aF1607.987160502953
aa(lp1776
VChomper
p1777
aF1607.9876850987741
aa(lp1778
VWakamoto
p1779
aF1607.9877645530162
aa(lp1780
VM-vegeta-ssj3
p1781
aF1607.9914412268756
aa(lp1782
VKung Lao
p1783
aF1607.9916184511983
aa(lp1784
VBlanka
p1785
aF1607.9917092167032
aa(lp1786
VLex Luthor
p1787
aF1607.9924801837462
aa(lp1788
VEsmeralda
p1789
aF1607.9925065398152
aa(lp1790
VGod ken
p1791
aF1607.9931262738594
aa(lp1792
VArmored Gohan
p1793
aF1607.9954846599976
aa(lp1794
VHagen
p1795
aF1607.9968720338861
aa(lp1796
VEiko Magami
p1797
aF1607.997066306934
aa(lp1798
VShiki Tohno
p1799
aF1607.997066306934
aa(lp1800
Vsilversam\u005csilversam.def
p1801
aF1608.0
aa(lp1802
VTest4
p1803
aF1608.0
aa(lp1804
VNEJI_COSPLAY\u005cNEJI_COSPLAY.def
p1805
aF1608.0
aa(lp1806
VRajaaShiki\u005cRajaaShiki.def
p1807
aF1608.0
aa(lp1808
VMarisa kirisame
p1809
aF1608.0
aa(lp1810
VWagahai
p1811
aF1608.0
aa(lp1812
VRajaaMech-Hisui\u005cRajaaMech-Hisui.def
p1813
aF1608.0
aa(lp1814
Vgokussj4GT
p1815
aF1608.0
aa(lp1816
VASH_RMH\u005cASH-ita.def
p1817
aF1608.0
aa(lp1818
VOpening
p1819
aF1608.0
aa(lp1820
Vtrunkssb1v59\u005ctrunkssb1v59.def
p1821
aF1608.0
aa(lp1822
Vmorfo
p1823
aF1608.0
aa(lp1824
VTEST
p1825
aF1608.0
aa(lp1826
Vperfect-cell
p1827
aF1608.0
aa(lp1828
Vshaq
p1829
aF1608.0
aa(lp1830
Vkarin\u005ckarin.def
p1831
aF1608.0
aa(lp1832
VClow\u005cShaoran.def
p1833
aF1608.0
aa(lp1834
Vkidgohan\u005ckidgohan.def
p1835
aF1608.0
aa(lp1836
Vgokuk
p1837
aF1608.0
aa(lp1838
VViuda Negra
p1839
aF1608.0000152004643
aa(lp1840
VHol 'butt king' funtimes
p1841
aF1608.0000740294436
aa(lp1842
VGohan Grande Normale
p1843
aF1608.0006380315638
aa(lp1844
VNormal freeza
p1845
aF1608.0040341047068
aa(lp1846
VMr. Bison
p1847
aF1608.0057226451527
aa(lp1848
VZero Hotaru
p1849
aF1608.0066598765784
aa(lp1850
VGill
p1851
aF1608.0067731337654
aa(lp1852
VMasta gambit
p1853
aF1608.0084295399627
aa(lp1854
VSnake eyes
p1855
aF1608.0089290384406
aa(lp1856
VKujo jotaro
p1857
aF1608.013196263711
aa(lp1858
VNeo Sephiroth
p1859
aF1608.021458910714
aa(lp1860
VJason Todd
p1861
aF1608.0278446262869
aa(lp1862
VMiyako yoshika
p1863
aF1608.033491951137
aa(lp1864
VNamek gohan
p1865
aF1608.033491951137
aa(lp1866
VDark ryu
p1867
aF1608.033491951137
aa(lp1868
VMai_K
p1869
aF1608.033491951137
aa(lp1870
VMai_k
p1871
aF1608.033491951137
aa(lp1872
VShin Ninja Turtle
p1873
aF1608.033491951137
aa(lp1874
VPatchouli_swr
p1875
aF1608.033491951137
aa(lp1876
VGhost rider
p1877
aF1608.033491951137
aa(lp1878
VSsj three broli
p1879
aF1608.033491951137
aa(lp1880
VGaits
p1881
aF1608.033491951137
aa(lp1882
VDark Chun Li
p1883
aF1608.039969664059
aa(lp1884
VStorm
p1885
aF1608.043656855846
aa(lp1886
VEvil Ryu
p1887
aF1608.0504682489911
aa(lp1888
VGato
p1889
aF1608.0767244193316
aa(lp1890
VGoku ssj2
p1891
aF1608.1486816000356
aa(lp1892
VNate summers
p1893
aF1608.1572120765748
aa(lp1894
VDragon claw
p1895
aF1608.1602935221324
aa(lp1896
VKyle dunamis
p1897
aF1608.1637997865712
aa(lp1898
VMecha potemkin
p1899
aF1608.1637997865712
aa(lp1900
VBlack polnareff
p1901
aF1608.1650705696463
aa(lp1902
VStrider Hiryu
p1903
aF1608.1662966710276
aa(lp1904
VKyo 71113
p1905
aF1608.1677604056188
aa(lp1906
VPrime Sentinels
p1907
aF1608.167768912424
aa(lp1908
VWar Machine
p1909
aF1608.1718728636151
aa(lp1910
VTron Bonne
p1911
aF1608.1721362279266
aa(lp1912
VJamian Di Corvus
p1913
aF1608.1758077373684
aa(lp1914
VKanna
p1915
aF1608.1762909024578
aa(lp1916
VPlastic man
p1917
aF1608.1794038588455
aa(lp1918
VBulleta
p1919
aF1608.1794913700842
aa(lp1920
VSasuke kun
p1921
aF1608.180264311712
aa(lp1922
VMars people
p1923
aF1608.1803603049013
aa(lp1924
VOnpu Segawa
p1925
aF1608.1837534684237
aa(lp1926
VCyborg Mai
p1927
aF1608.1849450297184
aa(lp1928
VMirai Trunks
p1929
aF1608.1849450297184
aa(lp1930
VM.bison
p1931
aF1608.187692662766
aa(lp1932
VMars People
p1933
aF1608.188410881843
aa(lp1934
VJoe higashi
p1935
aF1608.1887481263714
aa(lp1936
VYoh
p1937
aF1608.190729507077
aa(lp1938
VJoe Higashi
p1939
aF1608.197945134414
aa(lp1940
VUsapi-
p1941
aF1608.2000504421796
aa(lp1942
VKurokishi
p1943
aF1608.2046653889195
aa(lp1944
VShe-hulk
p1945
aF1608.2066143238867
aa(lp1946
VRadish SSJ4
p1947
aF1608.2078171319054
aa(lp1948
VSuper soldier
p1949
aF1608.2084053466624
aa(lp1950
VMai Shiranui
p1951
aF1608.213285209258
aa(lp1952
VSnake Eyes
p1953
aF1608.221164225119
aa(lp1954
VGogeta super saiyan 3
p1955
aF1608.2421198759823
aa(lp1956
VRayman
p1957
aF1608.2968762830228
aa(lp1958
VSyo hayate
p1959
aF1608.3326557479638
aa(lp1960
VA.b.a
p1961
aF1608.3376185330162
aa(lp1962
VBattle mahoro
p1963
aF1608.3456598542152
aa(lp1964
VEvil Ken
p1965
aF1608.3542365416724
aa(lp1966
VGogeta SSJ4
p1967
aF1608.3549339583874
aa(lp1968
VMecha Potemkin
p1969
aF1608.3554393077902
aa(lp1970
VArrange_shiori
p1971
aF1608.3605434806243
aa(lp1972
VNeyufeulle
p1973
aF1608.3703859013851
aa(lp1974
VCaptain caveman
p1975
aF1608.3791152746605
aa(lp1976
VChibi Ubuu
p1977
aF1608.3868124311546
aa(lp1978
VSakuya_swr
p1979
aF1608.4015679822148
aa(lp1980
VClayface
p1981
aF1608.4015679822148
aa(lp1982
VNoriaki Kakyoin
p1983
aF1608.4015679822148
aa(lp1984
VAracne de tarantula
p1985
aF1608.4015679822148
aa(lp1986
VDudley
p1987
aF1608.4015679822148
aa(lp1988
VLei-lei
p1989
aF1608.4282870150075
aa(lp1990
VYuriesbyfe
p1991
aF1608.4570151300281
aa(lp1992
VRiot
p1993
aF1608.5163933381932
aa(lp1994
VVanilla h
p1995
aF1608.5309345970422
aa(lp1996
VDonald
p1997
aF1608.5432528691117
aa(lp1998
VKazama sogetsu
p1999
aF1608.5470340304466
aa(lp2000
VKamiccolo
p2001
aF1608.5520087822124
aa(lp2002
VKouryu
p2003
aF1608.5674752555549
aa(lp2004
VFrog
p2005
aF1608.6180874344902
aa(lp2006
VOverlord
p2007
aF1608.6551663355062
aa(lp2008
VSSJ5 Goku
p2009
aF1608.6638959114166
aa(lp2010
VWinnie the pooh
p2011
aF1608.6763284743515
aa(lp2012
VJean grey
p2013
aF1608.6824258466027
aa(lp2014
VZero svc
p2015
aF1608.6835492905761
aa(lp2016
VAnnie Murakami
p2017
aF1608.7038299723322
aa(lp2018
VUltimat goku
p2019
aF1608.71337640571
aa(lp2020
VElla
p2021
aF1608.7167301808875
aa(lp2022
VVidel
p2023
aF1608.724745641577
aa(lp2024
VIwao
p2025
aF1608.7264464883328
aa(lp2026
VMech Zangief
p2027
aF1608.8318424333365
aa(lp2028
VAstaroth
p2029
aF1608.8532343990819
aa(lp2030
VCloud
p2031
aF1608.8562036054748
aa(lp2032
VCable
p2033
aF1608.856503627228
aa(lp2034
VOgre Akuma
p2035
aF1608.8623922606319
aa(lp2036
VTsugumi
p2037
aF1608.8904448381506
aa(lp2038
VSuper skrull
p2039
aF1608.8914589541944
aa(lp2040
VRegina
p2041
aF1608.9135611259298
aa(lp2042
VSupergirl
p2043
aF1609.0228521957756
aa(lp2044
VMagneto
p2045
aF1609.0274143308268
aa(lp2046
VLeona
p2047
aF1609.0287661657178
aa(lp2048
VRugal
p2049
aF1609.0330134858525
aa(lp2050
VNightcrawler
p2051
aF1609.0466951949038
aa(lp2052
VAoshi
p2053
aF1609.062404712403
aa(lp2054
VMyuu
p2055
aF1609.0887529817035
aa(lp2056
VGreen goblin
p2057
aF1609.200357053413
aa(lp2058
VRandy m. green
p2059
aF1609.2211981904288
aa(lp2060
VSpiderman
p2061
aF1609.237670832597
aa(lp2062
VJo jo
p2063
aF1609.246140107883
aa(lp2064
VCharizard
p2065
aF1609.246140107883
aa(lp2066
VHeihachi
p2067
aF1609.246140107883
aa(lp2068
VHisame shizumaru
p2069
aF1609.277982293683
aa(lp2070
VC-19
p2071
aF1609.3700499020267
aa(lp2072
VBlob
p2073
aF1609.3931523748308
aa(lp2074
VBaitang
p2075
aF1609.4210535034085
aa(lp2076
VSion
p2077
aF1609.42183112848
aa(lp2078
VSub-zero
p2079
aF1609.427952977853
aa(lp2080
VRaoh
p2081
aF1609.4545454545455
aa(lp2082
VMoleman\u005cMoleman.def
p2083
aF1609.4545454545455
aa(lp2084
VBison
p2085
aF1609.5456536966492
aa(lp2086
VSpenoza
p2087
aF1609.6044389520364
aa(lp2088
VJay garrick
p2089
aF1609.6562754268123
aa(lp2090
VNagato yuki
p2091
aF1609.8139665804042
aa(lp2092
VJudgement
p2093
aF1609.8961455483663
aa(lp2094
VSailor mercury
p2095
aF1610.0257216555458
aa(lp2096
VShaq
p2097
aF1610.0565141532136
aa(lp2098
VIron Man
p2099
aF1610.0938094582075
aa(lp2100
VAsh
p2101
aF1613.1490806632423
aa(lp2102
VDio
p2103
aF1613.5093241938664
aa(lp2104
VSakura
p2105
aF1613.677532129352
aa(lp2106
VRadel
p2107
aF1613.8957794523474
aa(lp2108
VKosmos
p2109
aF1614.036620869246
aa(lp2110
VSsj4 goten
p2111
aF1614.103584740906
aa(lp2112
VZangia
p2113
aF1614.2633191674893
aa(lp2114
VCaptain marvell
p2115
aF1614.5747097490325
aa(lp2116
VGoenitz
p2117
aF1614.592333980335
aa(lp2118
VJess
p2119
aF1614.611563420652
aa(lp2120
VGoten GT
p2121
aF1614.628766276264
aa(lp2122
VGotenks ssj
p2123
aF1614.6445636298959
aa(lp2124
VAvdol ver 2001/01/30 by camrat
p2125
aF1614.7610008026443
aa(lp2126
VRoomi
p2127
aF1614.8092199636685
aa(lp2128
VYellow devil
p2129
aF1614.827258903125
aa(lp2130
VHeihachi mishima
p2131
aF1614.9558349499737
aa(lp2132
VUltra SSJ5 Vegeta
p2133
aF1614.9799970531644
aa(lp2134
VEtrigan
p2135
aF1615.0102439312084
aa(lp2136
VSilversamurai
p2137
aF1615.0132298274787
aa(lp2138
VDio brando
p2139
aF1615.021303950523
aa(lp2140
VHarley quinn
p2141
aF1615.0962981153696
aa(lp2142
VVice
p2143
aF1615.106660571552
aa(lp2144
VThe Thing
p2145
aF1615.1081521649564
aa(lp2146
VGoku SSJ4 DB Final Bout
p2147
aF1615.1149150942247
aa(lp2148
VDoparmin
p2149
aF1615.135465521867
aa(lp2150
VGundam heavy arms
p2151
aF1615.137994270036
aa(lp2152
VEriol Hiiragizawa
p2153
aF1615.1403697880185
aa(lp2154
VGoku gt
p2155
aF1615.1621830916756
aa(lp2156
VVergil
p2157
aF1615.2585342915436
aa(lp2158
VKaren na hito
p2159
aF1615.2803819083058
aa(lp2160
VRimle
p2161
aF1615.2835425685375
aa(lp2162
VShin Kazuma
p2163
aF1615.2856386797143
aa(lp2164
VChibiko
p2165
aF1615.287271758943
aa(lp2166
VOmega Red
p2167
aF1615.2925453124994
aa(lp2168
VSolid snake
p2169
aF1615.2951483237277
aa(lp2170
VSailor venus
p2171
aF1615.2974598568733
aa(lp2172
V20 (dr. gero)
p2173
aF1615.3019598885926
aa(lp2174
VAku-amakusa
p2175
aF1615.3072181260911
aa(lp2176
VR Lilith
p2177
aF1615.3160712620017
aa(lp2178
VChiaotzu
p2179
aF1615.322293546618
aa(lp2180
VShadowman cfas
p2181
aF1615.323047393825
aa(lp2182
VPaul Phoenix
p2183
aF1615.3334815353394
aa(lp2184
VKoryu
p2185
aF1615.3447953751302
aa(lp2186
VMultiple man
p2187
aF1615.3763664345233
aa(lp2188
VShadow Dio
p2189
aF1615.3943639406318
aa(lp2190
VDeadpool
p2191
aF1615.4488850927523
aa(lp2192
VBatman Beyond
p2193
aF1615.4629232023
aa(lp2194
VKazama Kazuki
p2195
aF1615.4690875175484
aa(lp2196
VBlack Tiger
p2197
aF1615.480876855852
aa(lp2198
VLayla
p2199
aF1615.485089285601
aa(lp2200
VOozura vegeta
p2201
aF1615.5402154463507
aa(lp2202
VNeco
p2203
aF1615.5473434997152
aa(lp2204
VStrong Guy
p2205
aF1615.63426277605
aa(lp2206
VKuma
p2207
aF1615.6366430887008
aa(lp2208
VBlack widow
p2209
aF1615.6373582398483
aa(lp2210
VOgre akuma
p2211
aF1615.6402240602006
aa(lp2212
VSoujiro
p2213
aF1615.6441156588721
aa(lp2214
VSatsuki yumiduka
p2215
aF1615.645503032902
aa(lp2216
VTenma-sama
p2217
aF1615.6532502024288
aa(lp2218
VMiss Marvel
p2219
aF1615.6539056213062
aa(lp2220
VMajin Vegeta
p2221
aF1615.6682068017703
aa(lp2222
VMech-hisui
p2223
aF1615.6688185746207
aa(lp2224
VMilan Flare
p2225
aF1615.6688185746207
aa(lp2226
VCaptain america
p2227
aF1615.6801172677967
aa(lp2228
VLi Sheng Long
p2229
aF1615.6824364894499
aa(lp2230
VSodom
p2231
aF1615.6947309706666
aa(lp2232
VEvil ryu
p2233
aF1615.7770260295329
aa(lp2234
VIchigo
p2235
aF1615.8072551523132
aa(lp2236
VThe Flash
p2237
aF1615.8098916476974
aa(lp2238
VSub-Zero
p2239
aF1615.820064313271
aa(lp2240
VKazuki
p2241
aF1615.820064313271
aa(lp2242
VCaptain Marvel
p2243
aF1615.8203905377736
aa(lp2244
VCommissioner gordon
p2245
aF1615.8342530842267
aa(lp2246
VJohnny Cage
p2247
aF1615.8442118294988
aa(lp2248
VMaster Sakura
p2249
aF1615.8485469214186
aa(lp2250
VDespero
p2251
aF1615.8549016403686
aa(lp2252
VGodman
p2253
aF1615.9197695687014
aa(lp2254
VAndore Jr
p2255
aF1615.9442864341595
aa(lp2256
VProfessor x
p2257
aF1615.9451987414986
aa(lp2258
VMichaelangelo
p2259
aF1615.9619029170208
aa(lp2260
VTeam nicktoon
p2261
aF1615.9726125765478
aa(lp2262
VAnna
p2263
aF1615.98070206344
aa(lp2264
VViolent Dan
p2265
aF1615.9914863271924
aa(lp2266
VMaraiah
p2267
aF1615.997031739958
aa(lp2268
V*Chameleon
p2269
aI1616
aa(lp2270
VG-Rugal
p2271
aI1616
aa(lp2272
V*Prime Sentinels
p2273
aI1616
aa(lp2274
VMech gouki
p2275
aI1616
aa(lp2276
VAmi BF
p2277
aI1616
aa(lp2278
VNero Chaos
p2279
aI1616
aa(lp2280
V*Hal Jordan
p2281
aI1616
aa(lp2282
VShiori misaka
p2283
aI1616
aa(lp2284
VGohan SSJ3
p2285
aI1616
aa(lp2286
VRedLantern\u005cRedLantern.def
p2287
aI1616
aa(lp2288
VGohan zeta
p2289
aI1616
aa(lp2290
VIronpatriot
p2291
aI1616
aa(lp2292
V*Son Goku
p2293
aI1616
aa(lp2294
V*Krauser
p2295
aI1616
aa(lp2296
VAthena asamiya
p2297
aI1616
aa(lp2298
VClark steel
p2299
aI1616
aa(lp2300
VKszsk-shuko
p2301
aI1616
aa(lp2302
VWild ken ex
p2303
aI1616
aa(lp2304
VRyoko asakura
p2305
aI1616
aa(lp2306
V*Saito
p2307
aI1616
aa(lp2308
VHayato
p2309
aI1616
aa(lp2310
VFuture Trunks
p2311
aI1616
aa(lp2312
VLord ravenous
p2313
aI1616
aa(lp2314
VDemitri
p2315
aI1616
aa(lp2316
V*Android 16
p2317
aI1616
aa(lp2318
VGohan SSJ4
p2319
aI1616
aa(lp2320
VDee jay
p2321
aI1616
aa(lp2322
V*Miss Marvel
p2323
aI1616
aa(lp2324
VFaust
p2325
aI1616
aa(lp2326
VKazuya Mishima
p2327
aI1616
aa(lp2328
VDaffy duck
p2329
aI1616
aa(lp2330
VGogeta ssj2
p2331
aI1616
aa(lp2332
VChris
p2333
aI1616
aa(lp2334
VNagato Yuki
p2335
aI1616
aa(lp2336
VRan yakumo
p2337
aI1616
aa(lp2338
VReisen_swr
p2339
aI1616
aa(lp2340
VVegeta normal 3
p2341
aI1616
aa(lp2342
VIbuki
p2343
aI1616
aa(lp2344
VAdon
p2345
aI1616
aa(lp2346
VPyron
p2347
aI1616
aa(lp2348
VTrunks SSJ4
p2349
aI1616
aa(lp2350
VMakoto
p2351
aI1616
aa(lp2352
VOozura bebi
p2353
aI1616
aa(lp2354
VPowergirl
p2355
aI1616
aa(lp2356
VCirno
p2357
aI1616
aa(lp2358
VShizuha aki
p2359
aI1616
aa(lp2360
VNega Joe
p2361
aI1616
aa(lp2362
VPitt
p2363
aI1616
aa(lp2364
VLilin
p2365
aI1616
aa(lp2366
V*Heihachi
p2367
aI1616
aa(lp2368
VKonngara
p2369
aI1616
aa(lp2370
VFrieza
p2371
aI1616
aa(lp2372
VFlandre scarlet
p2373
aI1616
aa(lp2374
VNagae iku
p2375
aI1616
aa(lp2376
VCyborg Superman
p2377
aI1616
aa(lp2378
VVarnage
p2379
aI1616
aa(lp2380
VShiki VP
p2381
aI1616
aa(lp2382
VArrange_remilia
p2383
aI1616
aa(lp2384
VGajeel
p2385
aI1616
aa(lp2386
VSasuke Kun
p2387
aI1616
aa(lp2388
V*Moleman
p2389
aI1616
aa(lp2390
VLynn Baker
p2391
aI1616
aa(lp2392
VChibi ubuu
p2393
aI1616
aa(lp2394
VToramaru syou
p2395
aI1616
aa(lp2396
VRobo-Kyii
p2397
aI1616
aa(lp2398
VSean matsuda
p2399
aI1616
aa(lp2400
VMima
p2401
aI1616
aa(lp2402
V*Maraiah
p2403
aI1616
aa(lp2404
VItachi
p2405
aI1616
aa(lp2406
V*Felicia
p2407
aI1616
aa(lp2408
VGuile Machine
p2409
aI1616
aa(lp2410
VLei lei
p2411
aI1616
aa(lp2412
VJotaro Kujo
p2413
aI1616
aa(lp2414
VGod yuri
p2415
aI1616
aa(lp2416
Vcellhd\u005ccellhd.def
p2417
aI1616
aa(lp2418
VE. honda
p2419
aI1616
aa(lp2420
VAkuma
p2421
aI1616
aa(lp2422
VH-duolon
p2423
aI1616
aa(lp2424
VGreen Lantern JS
p2425
aI1616
aa(lp2426
VT.hawk
p2427
aI1616
aa(lp2428
VMedicine melancholy
p2429
aI1616
aa(lp2430
VCyborg_Mai
p2431
aI1616
aa(lp2432
VGoku ssj gt
p2433
aI1616
aa(lp2434
VNanoha xp
p2435
aI1616
aa(lp2436
VSaito
p2437
aI1616
aa(lp2438
VOozura Vegeta
p2439
aI1616
aa(lp2440
VNorimaru
p2441
aI1616
aa(lp2442
VAlex
p2443
aI1616
aa(lp2444
VFirestar
p2445
aI1616
aa(lp2446
VAchi cirno
p2447
aI1616
aa(lp2448
VVita
p2449
aI1616
aa(lp2450
VBlack Cat
p2451
aI1616
aa(lp2452
VBastion
p2453
aI1616
aa(lp2454
VTewi_inaba
p2455
aI1616
aa(lp2456
VJimmy Lee
p2457
aI1616
aa(lp2458
VUltimate Gohan
p2459
aI1616
aa(lp2460
VMega Weapon
p2461
aI1616
aa(lp2462
VLisa
p2463
aI1616
aa(lp2464
VKanako yasaka
p2465
aI1616
aa(lp2466
VMr. Fantastic
p2467
aI1616
aa(lp2468
VHotaru futaba
p2469
aI1616
aa(lp2470
VSsj goku
p2471
aI1616
aa(lp2472
VUnzan&ichirin;
p2473
aI1616
aa(lp2474
V*Warmachine
p2475
aI1616
aa(lp2476
VJason todd
p2477
aI1616
aa(lp2478
VShermie
p2479
aI1616
aa(lp2480
VKen and Gang
p2481
aI1616
aa(lp2482
VZombie
p2483
aI1616
aa(lp2484
VNormal Chibi Trunks
p2485
aI1616
aa(lp2486
VGarlic junior
p2487
aI1616
aa(lp2488
VGreat Sayaman
p2489
aI1616
aa(lp2490
VRyuuguu rena
p2491
aI1616
aa(lp2492
VEvil Dan
p2493
aI1616
aa(lp2494
VSayuri kurata
p2495
aI1616
aa(lp2496
VInsane Hiryu
p2497
aI1616
aa(lp2498
VKing
p2499
aI1616
aa(lp2500
VRyu Plus
p2501
aI1616
aa(lp2502
V*Sagat MB-02
p2503
aI1616
aa(lp2504
VGoku Nex
p2505
aI1616
aa(lp2506
V*Cyborg Superman
p2507
aI1616
aa(lp2508
VSuper Goku
p2509
aI1616
aa(lp2510
VHatate_himekaidou
p2511
aI1616
aa(lp2512
V*Donovan
p2513
aI1616
aa(lp2514
VKanorin
p2515
aI1616
aa(lp2516
VGohan Saiya Jin EX
p2517
aI1616
aa(lp2518
VAkane satomura
p2519
aI1616
aa(lp2520
VVulture
p2521
aI1616
aa(lp2522
V*Bullseye
p2523
aI1616
aa(lp2524
VMai
p2525
aI1616
aa(lp2526
VKisume
p2527
aI1616
aa(lp2528
VSakura Shingouji
p2529
aI1616
aa(lp2530
V*Kim
p2531
aI1616
aa(lp2532
VMugetu
p2533
aI1616
aa(lp2534
VNazrin
p2535
aI1616
aa(lp2536
VJoseph Joestar
p2537
aI1616
aa(lp2538
VYun
p2539
aI1616
aa(lp2540
VShadow dio
p2541
aI1616
aa(lp2542
VBra 2
p2543
aI1616
aa(lp2544
VKoola
p2545
aI1616
aa(lp2546
VShin scrub ken
p2547
aI1616
aa(lp2548
VKira daidoji
p2549
aI1616
aa(lp2550
VPrincess silver
p2551
aI1616
aa(lp2552
VMai K
p2553
aI1616
aa(lp2554
VVegeta SSJ4
p2555
aI1616
aa(lp2556
VYoutube poop robotnik
p2557
aI1616
aa(lp2558
VShin Bison
p2559
aI1616
aa(lp2560
VGinew 1
p2561
aI1616
aa(lp2562
VIkkaku
p2563
aI1616
aa(lp2564
VYuugi
p2565
aI1616
aa(lp2566
VHwa jai
p2567
aI1616
aa(lp2568
VGoku Sayajin
p2569
aI1616
aa(lp2570
VRimururu
p2571
aI1616
aa(lp2572
VK9999
p2573
aI1616
aa(lp2574
VMai shiranui
p2575
aI1616
aa(lp2576
VYuki in Midday
p2577
aI1616
aa(lp2578
V*Rajaamaki
p2579
aI1616
aa(lp2580
VSpider girl
p2581
aI1616
aa(lp2582
VYamame
p2583
aI1616
aa(lp2584
VAndroide 17
p2585
aI1616
aa(lp2586
V*Kagami Kyosuke
p2587
aI1616
aa(lp2588
VSora
p2589
aI1616
aa(lp2590
VYatogi Tetsu
p2591
aI1616
aa(lp2592
VGreen ranger
p2593
aI1616
aa(lp2594
VCaptain Caveman
p2595
aI1616
aa(lp2596
VAku-Amakusa
p2597
aI1616
aa(lp2598
V*Zangief Maskered
p2599
aI1616
aa(lp2600
VLast Adult Goku
p2601
aI1616
aa(lp2602
VBlack tiger
p2603
aI1616
aa(lp2604
VHory marlu
p2605
aI1616
aa(lp2606
VYukari_swr
p2607
aI1616
aa(lp2608
VDark phoenix
p2609
aI1616
aa(lp2610
VGoku ssj5
p2611
aI1616
aa(lp2612
VDocock
p2613
aI1616
aa(lp2614
VSuper Mario
p2615
aF1616.000660147774
aa(lp2616
VGotenks gt
p2617
aF1616.0039384133688
aa(lp2618
VCless Alvein
p2619
aF1616.0248232839872
aa(lp2620
VE-terry 71113
p2621
aF1616.0428467762513
aa(lp2622
VJuda
p2623
aF1616.043544790456
aa(lp2624
VDooby dummy
p2625
aF1616.0475282578363
aa(lp2626
VSaisyuu_dokusyo_bouei_system
p2627
aF1616.0612190835304
aa(lp2628
VArrange_misuzu
p2629
aF1616.0697003435835
aa(lp2630
VVanilla H
p2631
aF1616.1439013288018
aa(lp2632
VMech zangief
p2633
aF1616.1562433633776
aa(lp2634
VLion Magnus
p2635
aF1616.1767675440603
aa(lp2636
VMegaman
p2637
aF1616.1786143642685
aa(lp2638
VMexican typhoon
p2639
aF1616.1831254944834
aa(lp2640
VBiohazard
p2641
aF1616.2072613932576
aa(lp2642
VSon Gohan
p2643
aF1616.2091840014184
aa(lp2644
VTensinhan
p2645
aF1616.2113318375773
aa(lp2646
VJay Garrick
p2647
aF1616.2125720296133
aa(lp2648
VToron
p2649
aF1616.2305086063193
aa(lp2650
VNash Shadow
p2651
aF1616.3087970109561
aa(lp2652
VSegalow
p2653
aF1616.3215168527747
aa(lp2654
VSuper metroid
p2655
aF1616.3568988328939
aa(lp2656
VKazama kazuki
p2657
aF1616.3856625819237
aa(lp2658
VHobgoblin
p2659
aF1616.390026226552
aa(lp2660
VRaptor
p2661
aF1616.3966813091456
aa(lp2662
VMilan flare
p2663
aF1616.4441083655063
aa(lp2664
VAyu tsukimiya
p2665
aF1616.45786613066
aa(lp2666
VAndroid 16
p2667
aF1616.4723147374136
aa(lp2668
VBlossom
p2669
aF1616.4868038769966
aa(lp2670
VLeonardo
p2671
aF1616.48725525736
aa(lp2672
VTemari
p2673
aF1616.4891292777127
aa(lp2674
VRonald
p2675
aF1616.512163817694
aa(lp2676
VZangief Maskered
p2677
aF1616.522174504004
aa(lp2678
VArchangel
p2679
aF1616.5264100440133
aa(lp2680
VRenamon
p2681
aF1616.5372813667714
aa(lp2682
VPotemkin
p2683
aF1616.5657081733466
aa(lp2684
VIron lantern
p2685
aF1616.5765004560446
aa(lp2686
VElektra
p2687
aF1616.5876546742077
aa(lp2688
VHoly Ken
p2689
aF1616.589355192191
aa(lp2690
VBasara
p2691
aF1616.6876007458277
aa(lp2692
VZinc
p2693
aF1616.726125700625
aa(lp2694
VThor
p2695
aF1616.7271318013604
aa(lp2696
VIggy
p2697
aF1616.7723981428353
aa(lp2698
VSon gohan
p2699
aF1616.778936151146
aa(lp2700
VLucky 71113
p2701
aF1616.864391337036
aa(lp2702
VAlien queen
p2703
aF1616.8879626031064
aa(lp2704
VOmega red
p2705
aF1616.9547939748716
aa(lp2706
VBurta
p2707
aF1617.0143622873757
aa(lp2708
VKrusty
p2709
aF1617.016294392578
aa(lp2710
VR. lilith
p2711
aF1617.028104080744
aa(lp2712
VGohan ssj5
p2713
aF1617.0296863462027
aa(lp2714
VSad claps
p2715
aF1617.0624876619745
aa(lp2716
VKing godzilla
p2717
aF1617.1862215256092
aa(lp2718
VIkki
p2719
aF1617.2907945584134
aa(lp2720
VMystique
p2721
aF1617.4089420876808
aa(lp2722
VSSJ4 Goten
p2723
aF1617.4545454545455
aa(lp2724
VEmerald
p2725
aF1617.4545454545455
aa(lp2726
VHyper neo-kamek
p2727
aF1617.4545454545455
aa(lp2728
VNamazu
p2729
aF1617.4545454545455
aa(lp2730
VAnother kyo
p2731
aF1617.4545454545455
aa(lp2732
VTenten
p2733
aF1617.4545454545455
aa(lp2734
VSetsuna
p2735
aF1617.4545454545455
aa(lp2736
VOnpu segawa
p2737
aF1617.4545454545455
aa(lp2738
VBlack adam
p2739
aF1617.4545454545455
aa(lp2740
VShikieiki yamaxanadu
p2741
aF1617.4545454545455
aa(lp2742
VJin Saotome
p2743
aF1617.4545454545455
aa(lp2744
V*Jay Garrick
p2745
aF1617.4545454545455
aa(lp2746
VSagat
p2747
aF1617.4545454545455
aa(lp2748
VHelion
p2749
aF1617.4545454545455
aa(lp2750
VClark
p2751
aF1617.4545454545455
aa(lp2752
VHanyuu
p2753
aF1617.4545454545455
aa(lp2754
VSymbiote spider-man
p2755
aF1617.4545454545455
aa(lp2756
VEmma Frost
p2757
aF1617.4545454545455
aa(lp2758
VPerfect Cell
p2759
aF1617.4545454545455
aa(lp2760
VLavos spawn
p2761
aF1617.4545454545455
aa(lp2762
VMike tyson
p2763
aF1617.4545454545455
aa(lp2764
VKanae
p2765
aF1617.4545454545455
aa(lp2766
VChun-li
p2767
aF1617.4545454545455
aa(lp2768
VMissmarvel
p2769
aF1617.4545454545455
aa(lp2770
VGhetto warmachine
p2771
aF1617.4545454545455
aa(lp2772
VMega weapon
p2773
aF1617.4545454545455
aa(lp2774
VRock howard
p2775
aF1617.4545454545455
aa(lp2776
VMiko
p2777
aF1617.4545454545455
aa(lp2778
VKim
p2779
aF1617.5352739171096
aa(lp2780
VKyo
p2781
aF1617.6441136348467
aa(lp2782
VVenom scorpion
p2783
aF1617.7358748982208
aa(lp2784
VBra
p2785
aF1617.7851179871861
aa(lp2786
VDuke nukem
p2787
aF1618.3715185568462
aa(lp2788
VColossus
p2789
aF1620.4336899203665
aa(lp2790
VYuki
p2791
aF1621.2819257205417
aa(lp2792
VAbyss
p2793
aF1621.809222147188
aa(lp2794
VSentinel
p2795
aF1621.9554024492988
aa(lp2796
VVenom
p2797
aF1621.9738844971362
aa(lp2798
VJackal
p2799
aF1622.1203002510229
aa(lp2800
VOrochi
p2801
aF1622.1310481947644
aa(lp2802
VKohaku
p2803
aF1622.2145169916946
aa(lp2804
VDocinho
p2805
aF1622.2881923524826
aa(lp2806
VWarachia
p2807
aF1622.4824697956826
aa(lp2808
VCaptain marvel
p2809
aF1622.509022321051
aa(lp2810
VBlockhead
p2811
aF1622.5524566301224
aa(lp2812
VGalactus
p2813
aF1622.6800379917338
aa(lp2814
VCharlie
p2815
aF1622.767245105603
aa(lp2816
VCharlotte
p2817
aF1622.7679005794912
aa(lp2818
VCapella
p2819
aF1622.9210064032561
aa(lp2820
VT Kawk
p2821
aF1622.9579626293125
aa(lp2822
VYue
p2823
aF1622.990288288791
aa(lp2824
VOozaru
p2825
aF1623.000614447374
aa(lp2826
VLee
p2827
aF1623.0840351500449
aa(lp2828
VTetuwo
p2829
aF1623.1055029300223
aa(lp2830
VRyuuoutan
p2831
aF1623.1138056810942
aa(lp2832
VAnother Kyo
p2833
aF1623.1178348905794
aa(lp2834
VMinakata moriya
p2835
aF1623.1314547260579
aa(lp2836
VCyborg superman
p2837
aF1623.1485819118586
aa(lp2838
VThe flash
p2839
aF1623.1747110218657
aa(lp2840
VSquall
p2841
aF1623.25650467243
aa(lp2842
VKingpin
p2843
aF1623.2628185032688
aa(lp2844
VAndroide 18
p2845
aF1623.2810734809564
aa(lp2846
VKeel
p2847
aF1623.2820488036652
aa(lp2848
VPatchouli
p2849
aF1623.285974546811
aa(lp2850
VUltra ssj5 vegeta
p2851
aF1623.2868100774651
aa(lp2852
VYoutube Poop Robotnik
p2853
aF1623.293890864548
aa(lp2854
VKung fu fiunn
p2855
aF1623.3016828183802
aa(lp2856
VThe Nightmare
p2857
aF1623.305824197235
aa(lp2858
VNeodio
p2859
aF1623.3069930514132
aa(lp2860
VMimic
p2861
aF1623.3076911835722
aa(lp2862
VKenpachi
p2863
aF1623.3216034247723
aa(lp2864
VThe atom
p2865
aF1623.3994825898349
aa(lp2866
VAVDOL VER2001
p2867
aF1623.4457254344152
aa(lp2868
VCheap Boss Type
p2869
aF1623.448561085693
aa(lp2870
VLynn baker
p2871
aF1623.4569454643472
aa(lp2872
VLen and w. len
p2873
aF1623.4661929517272
aa(lp2874
VOssan
p2875
aF1623.4683342160113
aa(lp2876
VLi sheng long
p2877
aF1623.4830450122784
aa(lp2878
VGohan ssj4
p2879
aF1623.5240155571212
aa(lp2880
VGreen lantern
p2881
aF1623.599434807834
aa(lp2882
VGreen arrow
p2883
aF1623.6059559124785
aa(lp2884
VM Bison
p2885
aF1623.6062115261284
aa(lp2886
VThe blob
p2887
aF1623.620480963818
aa(lp2888
VSuper buu
p2889
aF1623.6232365274961
aa(lp2890
VRasetsumaru
p2891
aF1623.6234467350728
aa(lp2892
VHaggar
p2893
aF1623.628644616587
aa(lp2894
VVoid
p2895
aF1623.6307534842442
aa(lp2896
VThe Blob
p2897
aF1623.6317402822067
aa(lp2898
VHulk 2099
p2899
aF1623.6360784941721
aa(lp2900
VScream
p2901
aF1623.636830371224
aa(lp2902
VFerroman
p2903
aF1623.637393156955
aa(lp2904
VTin's fernandeath
p2905
aF1623.656723705168
aa(lp2906
VRox Howard Clones
p2907
aF1623.6597242895184
aa(lp2908
VBroken
p2909
aF1623.6652740664147
aa(lp2910
VHikaru
p2911
aF1623.6682612418617
aa(lp2912
VGuy
p2913
aF1623.7088232174895
aa(lp2914
VVertigo
p2915
aF1623.723583415617
aa(lp2916
VOrochi vega
p2917
aF1623.7840541102921
aa(lp2918
VGohan saiya-jin ex
p2919
aF1623.7864492464303
aa(lp2920
VDonatello
p2921
aF1623.7944953439553
aa(lp2922
VLast adult goku
p2923
aF1623.7986802980988
aa(lp2924
VNoriaki kakyoin
p2925
aF1623.7998355057762
aa(lp2926
VEvil soul
p2927
aF1623.803519129627
aa(lp2928
VIronman
p2929
aF1623.806857546747
aa(lp2930
VMephisto
p2931
aF1623.8118922713052
aa(lp2932
VTerry bogard
p2933
aF1623.824544775933
aa(lp2934
VKiller whale
p2935
aF1623.8250675261702
aa(lp2936
VNanaya shiki
p2937
aF1623.833237743271
aa(lp2938
VBerserk
p2939
aF1623.8338838542847
aa(lp2940
VBlack ranger
p2941
aF1623.8485322617796
aa(lp2942
VChiel
p2943
aF1623.8670192652091
aa(lp2944
VDora
p2945
aF1623.9807678249038
aa(lp2946
VJabu
p2947
aF1624.0149672773368
aa(lp2948
VSatoko
p2949
aF1624.033491951137
aa(lp2950
VMinis Mahn
p2951
aF1624.0717260486792
aa(lp2952
VJin kazama
p2953
aF1624.167479124068
aa(lp2954
VShin kazuma
p2955
aF1624.1796996193937
aa(lp2956
VMarvin
p2957
aF1624.2481905012626
aa(lp2958
VKung lao
p2959
aF1624.3118228599674
aa(lp2960
VBass
p2961
aF1624.3239815126387
aa(lp2962
VMorrigan
p2963
aF1624.3377541984032
aa(lp2964
VRoa
p2965
aF1624.3846893928767
aa(lp2966
VMarisa Kirisame
p2967
aF1624.4650860456322
aa(lp2968
VDiablo
p2969
aF1624.4735264876276
aa(lp2970
VDio di musca
p2971
aF1624.4874735923465
aa(lp2972
VBlack Widow
p2973
aF1624.5069567657456
aa(lp2974
VRed ranger
p2975
aF1624.5387074397663
aa(lp2976
VGreen Latern GG
p2977
aF1624.5680265782034
aa(lp2978
VCaptain commando
p2979
aF1624.578923767285
aa(lp2980
VHugo
p2981
aF1624.6019963285032
aa(lp2982
VOgre
p2983
aF1624.6383861534819
aa(lp2984
VOmega
p2985
aF1624.6848549807362
aa(lp2986
VIvy
p2987
aF1624.6865980175505
aa(lp2988
VDonovan
p2989
aF1624.7251102178366
aa(lp2990
VMaster hand
p2991
aF1624.8061435141956
aa(lp2992
VMs. fanservice
p2993
aF1624.8563581545866
aa(lp2994
VOrochi akuma
p2995
aF1624.8786770795525
aa(lp2996
VWell
p2997
aF1624.8786770795525
aa(lp2998
VSon Trunks
p2999
aF1624.87929829871
aa(lp3000
VSasquatch
p3001
aF1624.8841065874772
aa(lp3002
VRare akuma
p3003
aF1624.8997496188965
aa(lp3004
VStrider hiryu
p3005
aF1624.906172376416
aa(lp3006
VGoten gt nex
p3007
aF1625.0271636696707
aa(lp3008
VBlaze agent
p3009
aF1625.0529774723307
aa(lp3010
VRaphael
p3011
aF1625.0529774723307
aa(lp3012
VHisui
p3013
aF1625.0660918584426
aa(lp3014
VThanos
p3015
aF1625.0791815705463
aa(lp3016
VSonic machine
p3017
aF1625.1582185983507
aa(lp3018
VSissy
p3019
aF1625.237670832597
aa(lp3020
VShanghai
p3021
aF1625.237670832597
aa(lp3022
VJuan
p3023
aF1625.2692505150064
aa(lp3024
VJin saotome
p3025
aF1625.2703711950608
aa(lp3026
VBatman
p3027
aF1625.2959375749233
aa(lp3028
VShin gouki
p3029
aF1625.6480691532313
aa(lp3030
VBeast
p3031
aF1628.0789709140734
aa(lp3032
VThe joker
p3033
aF1628.329467904501
aa(lp3034
VSilver samurai
p3035
aF1628.4256522777173
aa(lp3036
VNeco-arc chaos
p3037
aF1628.517381457833
aa(lp3038
VWaha-
p3039
aF1628.8103841472223
aa(lp3040
VRamon 71113
p3041
aF1629.3943891352446
aa(lp3042
VDhalsim
p3043
aF1629.491111090043
aa(lp3044
VDaimon 71113
p3045
aF1629.8961423884607
aa(lp3046
VBilly lee
p3047
aF1629.9214010390137
aa(lp3048
VAnnie murakami
p3049
aF1629.9467818141193
aa(lp3050
VYoko yuki
p3051
aF1630.0011209483894
aa(lp3052
VShocker
p3053
aF1630.0832904608844
aa(lp3054
VLion magnus
p3055
aF1630.2331414001571
aa(lp3056
VWonder woman
p3057
aF1630.2354414736699
aa(lp3058
VSeth
p3059
aF1630.249047838317
aa(lp3060
VAmi bf
p3061
aF1630.2742548135145
aa(lp3062
VMoleman
p3063
aF1630.3838202683874
aa(lp3064
VSuper-8
p3065
aF1630.4228815269755
aa(lp3066
VChang
p3067
aF1630.4325035694787
aa(lp3068
VGodzilla
p3069
aF1630.441559402752
aa(lp3070
VShishio
p3071
aF1630.5307239415326
aa(lp3072
VRobin
p3073
aF1630.5361548982053
aa(lp3074
VNakoruru
p3075
aF1630.5811554436057
aa(lp3076
VJohnny cage
p3077
aF1630.6647994395466
aa(lp3078
VM. bison
p3079
aF1630.676270591613
aa(lp3080
VMexican Typhoon
p3081
aF1630.7350426891103
aa(lp3082
V009
p3083
aF1630.7385311698595
aa(lp3084
VJamian di corvus
p3085
aF1630.743088364318
aa(lp3086
VG Rugal
p3087
aF1630.744667642208
aa(lp3088
VIori 71113
p3089
aF1630.7759758623133
aa(lp3090
VThe dazzler
p3091
aF1630.789714716478
aa(lp3092
VVegeta ssj3
p3093
aF1630.8027185006683
aa(lp3094
VCrashman
p3095
aF1630.8151420369989
aa(lp3096
VNachi
p3097
aF1630.8965551306803
aa(lp3098
VBarney
p3099
aF1630.9198971694884
aa(lp3100
VKing Godzilla
p3101
aF1630.9218727710872
aa(lp3102
VNightwolf
p3103
aF1630.930204356183
aa(lp3104
VLex luthor
p3105
aF1630.9389006723582
aa(lp3106
VGreen lantern gg
p3107
aF1630.947351348304
aa(lp3108
VChameleon
p3109
aF1630.9589332926732
aa(lp3110
VStrider hien
p3111
aF1630.9615449468029
aa(lp3112
VPsychopath kyo
p3113
aF1631.010194680902
aa(lp3114
VSatsuki
p3115
aF1631.0253696012844
aa(lp3116
VJimmy lee
p3117
aF1631.0850765526902
aa(lp3118
VRyu hayabusa
p3119
aF1631.0885227428348
aa(lp3120
VMaster Hand
p3121
aF1631.1023955998996
aa(lp3122
VSaori - athena
p3123
aF1631.1165630641572
aa(lp3124
VNeco chaos
p3125
aF1631.1169360497788
aa(lp3126
VAoko
p3127
aF1631.1200138283032
aa(lp3128
VEriol hiiragizawa
p3129
aF1631.1546107275883
aa(lp3130
VChaos Hiryu
p3131
aF1631.2618175684197
aa(lp3132
VBaby bonnie hood
p3133
aF1631.2966566689136
aa(lp3134
VSpider-man 2099
p3135
aF1631.2987064521853
aa(lp3136
VTien
p3137
aF1631.4334490834758
aa(lp3138
VHomero
p3139
aF1631.4377052901925
aa(lp3140
VGohan  grande normale
p3141
aF1631.45371050257
aa(lp3142
VHato sabure
p3143
aF1631.4775625189875
aa(lp3144
VAlex mercer
p3145
aF1631.7872309371132
aa(lp3146
VShadir
p3147
aF1631.8094399539027
aa(lp3148
VJedah
p3149
aF1631.8397744806744
aa(lp3150
VGoten gt
p3151
aF1631.9585870887172
aa(lp3152
VMaster sakura
p3153
aF1631.9991381654297
aa(lp3154
VOmega tiger woods
p3155
aI1632
aa(lp3156
VBlaze Agent
p3157
aI1632
aa(lp3158
VKraken
p3159
aI1632
aa(lp3160
VSaiki
p3161
aI1632
aa(lp3162
VEliza
p3163
aI1632
aa(lp3164
VCell jr
p3165
aI1632
aa(lp3166
VMr. fantastic
p3167
aI1632
aa(lp3168
VTalon
p3169
aI1632
aa(lp3170
VInsane hiryu
p3171
aF1632.0971634635569
aa(lp3172
VParasite
p3173
aF1632.1336420613236
aa(lp3174
VChun-lee dark bolt
p3175
aF1632.1369221100729
aa(lp3176
VSenna vp
p3177
aF1632.1369221100729
aa(lp3178
VMaster ryu
p3179
aF1632.1422374306594
aa(lp3180
VCell junior
p3181
aF1632.1640780754874
aa(lp3182
VHulk
p3183
aF1632.2301187876783
aa(lp3184
VUltron
p3185
aF1632.2881403901736
aa(lp3186
VMillia
p3187
aF1632.2956391689045
aa(lp3188
VPyro
p3189
aF1632.2977379293714
aa(lp3190
VDeath black shot
p3191
aF1632.3077628683225
aa(lp3192
VHel'lauren
p3193
aF1632.345197267616
aa(lp3194
VHaruhi suzumiya
p3195
aF1632.476292553559
aa(lp3196
VMb-02
p3197
aF1632.4866063102484
aa(lp3198
VBishop
p3199
aF1632.4868948895698
aa(lp3200
VHibiki
p3201
aF1632.4937196902358
aa(lp3202
VAmi
p3203
aF1632.5097582755723
aa(lp3204
VRajaayuri
p3205
aF1632.5104655845264
aa(lp3206
VSoulgen
p3207
aF1632.6049237608918
aa(lp3208
VP. chunli
p3209
aF1632.6654204766905
aa(lp3210
VIceman
p3211
aF1632.8172270619493
aa(lp3212
VReptile
p3213
aF1632.8312304925469
aa(lp3214
VDrdoom
p3215
aF1632.8697120353343
aa(lp3216
VRogue
p3217
aF1633.1505811511213
aa(lp3218
VDeath Ogre
p3219
aF1633.4545454545455
aa(lp3220
VK'
p3221
aF1633.4545454545455
aa(lp3222
VVegeta
p3223
aF1636.5676745314859
aa(lp3224
VPoppy
p3225
aF1636.8900664671082
aa(lp3226
VPossessed heita
p3227
aF1636.9771593110324
aa(lp3228
VBurter
p3229
aF1637.2036949870376
aa(lp3230
VMegatron
p3231
aF1637.2867948604985
aa(lp3232
VMajin vegeta
p3233
aF1637.2940056817731
aa(lp3234
VRyo
p3235
aF1637.301029407954
aa(lp3236
VRaiden
p3237
aF1637.3538233902145
aa(lp3238
VRikuo
p3239
aF1637.4717762246614
aa(lp3240
VGiano
p3241
aF1637.512186893083
aa(lp3242
VBullseye
p3243
aF1637.5483229301249
aa(lp3244
VEvil dan
p3245
aF1637.5505436216638
aa(lp3246
VNeco-arc
p3247
aF1637.5583326653457
aa(lp3248
VOrchid
p3249
aF1637.599316693699
aa(lp3250
VCc iron clara
p3251
aF1637.7140096777514
aa(lp3252
VBattousai
p3253
aF1637.7799064892472
aa(lp3254
VCrilin sposato
p3255
aF1637.9180775807574
aa(lp3256
VGouken
p3257
aF1637.920813054969
aa(lp3258
VJudith
p3259
aF1638.037642072001
aa(lp3260
VChizuru kagura
p3261
aF1638.2587132322888
aa(lp3262
VKuando
p3263
aF1638.398134666653
aa(lp3264
VDink smallwood
p3265
aF1638.4135638693003
aa(lp3266
VSuper mario
p3267
aF1638.62069311757
aa(lp3268
VMorph
p3269
aF1638.954916020393
aa(lp3270
VYamcha by tomur
p3271
aF1639.1195172197092
aa(lp3272
VRed cyclone
p3273
aF1639.1282726674428
aa(lp3274
VOpera elmer
p3275
aF1639.2179866344413
aa(lp3276
VRajaamaki
p3277
aF1639.2419965585789
aa(lp3278
VSsj5 goku
p3279
aF1639.2785636364438
aa(lp3280
VThe thing
p3281
aF1639.3426185457267
aa(lp3282
VSaint Kyo
p3283
aF1639.358119685815
aa(lp3284
VSuper androide 17 hd
p3285
aF1639.3990453051492
aa(lp3286
VRyu plus
p3287
aF1639.4257923541513
aa(lp3288
VEvil homer
p3289
aF1639.4368123034333
aa(lp3290
VMongul
p3291
aF1639.4669137120443
aa(lp3292
VSailor jupiter
p3293
aF1639.5662254699168
aa(lp3294
VGonzales
p3295
aF1639.5767857792343
aa(lp3296
VMature
p3297
aF1639.5945726555208
aa(lp3298
VGoku nex
p3299
aF1639.615642469985
aa(lp3300
VYumemi
p3301
aF1639.6652740664147
aa(lp3302
VChaos hiryu
p3303
aF1639.6797241862853
aa(lp3304
VSaint kyo
p3305
aF1639.9681580209995
aa(lp3306
VFlonne
p3307
aF1639.9791571994872
aa(lp3308
VAngus
p3309
aF1640.0730852374172
aa(lp3310
VWarakia
p3311
aF1643.9536281869161
aa(lp3312
VDr.gero
p3313
aF1644.1061315887346
aa(lp3314
VNero
p3315
aF1644.352248592425
aa(lp3316
VNrvnqsr chaos
p3317
aF1644.835043465035
aa(lp3318
VSpiral
p3319
aF1644.8750749067824
aa(lp3320
VSakura Kinomoto
p3321
aF1645.015166131276
aa(lp3322
VShuma gorath
p3323
aF1645.0175110462205
aa(lp3324
VSonson
p3325
aF1645.310664976861
aa(lp3326
VPerfect storm x
p3327
aF1645.4331434253047
aa(lp3328
VDeath ogre
p3329
aF1645.526496428782
aa(lp3330
VDarkseid
p3331
aF1645.6244792793404
aa(lp3332
VBlodia
p3333
aF1645.6946480835709
aa(lp3334
VKamek
p3335
aF1645.6986815049313
aa(lp3336
VT. kawk
p3337
aF1645.7095803013135
aa(lp3338
VSon Goku
p3339
aF1645.920656674329
aa(lp3340
VRai
p3341
aF1646.048394794571
aa(lp3342
VGideon
p3343
aF1646.3470920461002
aa(lp3344
VHoly ken
p3345
aF1646.4642365065436
aa(lp3346
VEvil ken
p3347
aF1646.5085584240805
aa(lp3348
VNaruto kun
p3349
aF1646.5639948771952
aa(lp3350
VYamazaki 71113
p3351
aF1646.733225942972
aa(lp3352
VGogeta ssj4
p3353
aF1646.7356579774514
aa(lp3354
VArcueid
p3355
aF1647.0205352862056
aa(lp3356
VUltimate cap
p3357
aF1647.0989867459677
aa(lp3358
VMarrow
p3359
aF1647.2986992279411
aa(lp3360
VLilith aensland
p3361
aF1647.328202579258
aa(lp3362
VRock volnutt
p3363
aF1647.5272661090628
aa(lp3364
VKrauser
p3365
aF1647.6019983507922
aa(lp3366
VSakura kinomoto
p3367
aF1648.2281169995722
aa(lp3368
VCyclops
p3369
aF1649.054340466964
aa(lp3370
VMishio
p3371
aF1649.7670204717851
aa(lp3372
VWolverine
p3373
aF1650.9529861605313
aa(lp3374
VCrystal
p3375
aF1651.5314411227303
aa(lp3376
VNail
p3377
aF1651.8261799143077
aa(lp3378
VIchi
p3379
aF1651.8539990994368
aa(lp3380
VJ'onn j'onnz
p3381
aF1652.5189670717616
aa(lp3382
VRock
p3383
aF1653.2706880631374
aa(lp3384
VApocalypse
p3385
aF1653.7099584550137
aa(lp3386
VOrochimaru
p3387
aF1654.0903973227462
aa(lp3388
VRadish ssj4
p3389
aF1654.683703544849
aa(lp3390
VAlter amiba
p3391
aF1654.6873180306907
aa(lp3392
VSynn
p3393
aF1655.2385868280137
aa(lp3394
VJuggernaut
p3395
aF1655.4818539469816
aa(lp3396
VDr.doom
p3397
aF1657.3450535300924
aa(lp3398
VDiablo_skeleton
p3399
aF1658.6477602946445
aa(lp3400
VRemilia
p3401
aF1658.9956202393337
aa(lp3402
VSandman
p3403
aF1659.954069883668
aa(lp3404
VShiki tohno
p3405
aF1665.9940515745093
aa(lp3406
VWonderman
p3407
aF1666.0313283532628
aa(lp3408
VG-akiha
p3409
aF1668.579646869171
aa(lp3410
VRyu
p3411
aF1694.464713362718
aatp3412
Rp3413
.