ccollections
OrderedDict
p0
((lp1
(lp2
VVegeta ssj1
p3
aF1420.3499263641552
aa(lp4
VGinew
p5
aF1420.68671996631
aa(lp6
VWindows me
p7
aF1431.8761042666797
aa(lp8
VSuigintou
p9
aF1435.914291574646
aa(lp10
VGoku sb1
p11
aF1444.5710359995144
aa(lp12
VCatwoman
p13
aF1446.355364325791
aa(lp14
VYellow-pipo
p15
aF1449.8563563716962
aa(lp16
VEdward elrick
p17
aF1451.3113316625381
aa(lp18
VMarie
p19
aF1452.401445194827
aa(lp20
VRouge
p21
aF1452.6224847046592
aa(lp22
V95
p23
aF1453.8358564055081
aa(lp24
VCell
p25
aF1453.9702070003918
aa(lp26
VMajin buu
p27
aF1454.605018965397
aa(lp28
VBlob
p29
aF1454.8772070014438
aa(lp30
VPikachu
p31
aF1458.6880530182348
aa(lp32
VRecoome
p33
aF1461.9433298961912
aa(lp34
VVisbou
p35
aF1462.0177344739475
aa(lp36
VNyaonyao
p37
aF1462.1629951693667
aa(lp38
VTao jun
p39
aF1462.5592683751154
aa(lp40
VHebiitigo
p41
aF1462.9776945308724
aa(lp42
VMaximum frieza
p43
aF1463.31754880473
aa(lp44
VTetsuo
p45
aF1464.9882194963661
aa(lp46
VGokussj4d
p47
aF1466.0084202169844
aa(lp48
VVega
p49
aF1467.684549776879
aa(lp50
VDio brando
p51
aF1468.458056588821
aa(lp52
VKrillin
p53
aF1468.5331461631697
aa(lp54
VKagome
p55
aF1468.728573517675
aa(lp56
VNightmare
p57
aF1469.0968638294278
aa(lp58
VBlack manta
p59
aF1470.22288126995
aa(lp60
VHercule gt
p61
aF1470.8250777014107
aa(lp62
VDante
p63
aF1471.1372828721069
aa(lp64
VModoi-san
p65
aF1471.320577770089
aa(lp66
VDinozord
p67
aF1471.460189265308
aa(lp68
VBrainiac
p69
aF1474.052044148677
aa(lp70
VZaku
p71
aF1474.4837527050736
aa(lp72
VYakui san
p73
aF1476.3563176043738
aa(lp74
VX
p75
aF1478.4138689810352
aa(lp76
VVanilla ice
p77
aF1478.5605374353956
aa(lp78
VSub zero
p79
aF1478.815204318338
aa(lp80
VSsj4gohan
p81
aF1479.0653879512047
aa(lp82
VGogeta ssj
p83
aF1479.0832513668342
aa(lp84
VYamiyuki
p85
aF1479.3040857175693
aa(lp86
VKumao
p87
aF1479.3543874187926
aa(lp88
VYoshikage killa
p89
aF1479.6009579206661
aa(lp90
VCrono
p91
aF1479.7607605383707
aa(lp92
VSparta_heika
p93
aF1480.501159449861
aa(lp94
VZidane
p95
aF1480.8956954414284
aa(lp96
VBlaster
p97
aF1480.9272093667762
aa(lp98
VXanmi chan
p99
aF1481.125168524225
aa(lp100
VDrill asamin
p101
aF1482.55542101551
aa(lp102
VAmy
p103
aF1482.6914356089112
aa(lp104
VOmegamon
p105
aF1482.7857807933544
aa(lp106
VOgitafanada
p107
aF1482.9371869693477
aa(lp108
VMega piccolo
p109
aF1485.0719243531466
aa(lp110
VE-102r
p111
aF1485.669701620783
aa(lp112
VSinku
p113
aF1485.8102412519895
aa(lp114
VGambit
p115
aF1485.8569679188793
aa(lp116
VThink
p117
aF1485.8899913966625
aa(lp118
VMega gohan
p119
aF1488.298517491479
aa(lp120
VTrunks
p121
aF1488.4138856014263
aa(lp122
VBaldhead
p123
aF1488.7965272858817
aa(lp124
VBaiken
p125
aF1489.231917912695
aa(lp126
VSol
p127
aF1489.3802141909641
aa(lp128
VMarle
p129
aF1489.6676352251436
aa(lp130
VBabidi
p131
aF1490.4106398476504
aa(lp132
VScorpion
p133
aF1490.5097924992754
aa(lp134
VAsuta-san
p135
aF1491.0469149662042
aa(lp136
VKnuckles
p137
aF1491.3113852607826
aa(lp138
VMr.satan
p139
aF1491.4718759089915
aa(lp140
VKid gohan
p141
aF1491.6051191885456
aa(lp142
VNobunaga
p143
aF1491.9414247575833
aa(lp144
VKairi
p145
aF1492.1093261135438
aa(lp146
VHisui&kohaku;
p147
aF1492.3775569898146
aa(lp148
VMotokoaoyama
p149
aF1493.1548879728673
aa(lp150
VZemial
p151
aF1493.3715253669598
aa(lp152
VShangtsung
p153
aF1494.0181086070706
aa(lp154
VCartman
p155
aF1494.5615638527302
aa(lp156
VGorunks ssj4
p157
aF1494.6964085625855
aa(lp158
VBoo
p159
aF1494.7770763406315
aa(lp160
VKomepo
p161
aF1495.6287115872938
aa(lp162
V2ban-tan
p163
aF1496.8044233079584
aa(lp164
VAnother jissou seki
p165
aF1497.1757227285602
aa(lp166
VChaos
p167
aF1497.2678424657904
aa(lp168
VGoku normal hd
p169
aF1497.5256712687958
aa(lp170
VRhino
p171
aF1497.5948599615838
aa(lp172
VSponge bob
p173
aF1497.6014280925967
aa(lp174
VPolnareff
p175
aF1497.882164986208
aa(lp176
VHarpagos
p177
aF1499.897391017138
aa(lp178
VNobuhiko
p179
aF1500.15692587966
aa(lp180
VChipp
p181
aF1500.1775795604963
aa(lp182
V2k
p183
aF1500.549865721225
aa(lp184
VKanon
p185
aF1501.0880355006193
aa(lp186
VSajin
p187
aF1501.2019629056622
aa(lp188
VXp(pro)
p189
aF1501.2420221178677
aa(lp190
VSango
p191
aF1501.3558771559158
aa(lp192
VV.akiha
p193
aF1501.7253314526356
aa(lp194
VMisery
p195
aF1502.0486848955625
aa(lp196
VMagus
p197
aF1502.6278831088255
aa(lp198
VSimba
p199
aF1502.6960805268475
aa(lp200
VBebi vegeta
p201
aF1503.178043395556
aa(lp202
VBalrog
p203
aF1503.4322106824657
aa(lp204
VAoi-ko
p205
aF1504.2050570416336
aa(lp206
VWind
p207
aF1504.3760600260684
aa(lp208
VMunch
p209
aF1504.4020597329309
aa(lp210
VSuper vegeta
p211
aF1505.5091912461926
aa(lp212
VChibi ubuu
p213
aF1505.5562513122077
aa(lp214
VHyper buu
p215
aF1505.92462136317
aa(lp216
VI-no
p217
aF1505.9527199294575
aa(lp218
VZettaiaku
p219
aF1506.1018901687466
aa(lp220
VAbui
p221
aF1506.256527218536
aa(lp222
VThunder megazord
p223
aF1506.2596161739425
aa(lp224
VBrimstone
p225
aF1506.2969403758393
aa(lp226
VVegeta sb1
p227
aF1506.469131200774
aa(lp228
VGoku kid
p229
aF1506.5754253006662
aa(lp230
VNorimaro
p231
aF1506.8327586286493
aa(lp232
VThierry henry
p233
aF1506.9390145629857
aa(lp234
VEnya
p235
aF1507.6149845534883
aa(lp236
VAlucard
p237
aF1507.8941567944103
aa(lp238
VBishamon
p239
aF1508.0551356027738
aa(lp240
VB. magic girl
p241
aF1508.4865751712694
aa(lp242
VRobo-kyii
p243
aF1508.511653161557
aa(lp244
VTen-sing
p245
aF1508.5961525325044
aa(lp246
VGoku ssj gt
p247
aF1509.0717551238945
aa(lp248
VJissou seki
p249
aF1509.2011833146673
aa(lp250
VChloe
p251
aF1509.287620342113
aa(lp252
VRecoom
p253
aF1509.3007061606345
aa(lp254
VKabal
p255
aF1509.4004057612617
aa(lp256
VFreeza 100%
p257
aF1509.430661199867
aa(lp258
VGarlic junior
p259
aF1509.734826714255
aa(lp260
VShadir
p261
aF1509.8157392998219
aa(lp262
V98
p263
aF1509.9476001076846
aa(lp264
VInvisible woman
p265
aF1510.1927095268013
aa(lp266
VJohnny
p267
aF1511.6144172878612
aa(lp268
VTabasa
p269
aF1511.7656684119247
aa(lp270
VUryuu
p271
aF1511.881460679774
aa(lp272
VHads
p273
aF1512.2031287850882
aa(lp274
VJagi
p275
aF1512.4150614558987
aa(lp276
VJill
p277
aF1512.5684670260464
aa(lp278
VMiyazato erika
p279
aF1512.600317350739
aa(lp280
VMega vegeta
p281
aF1513.3815144112243
aa(lp282
VExocist(dnf)
p283
aF1514.433504439744
aa(lp284
VSakon
p285
aF1514.5390169967432
aa(lp286
VKhan
p287
aF1514.5629435791568
aa(lp288
VMariah
p289
aF1514.673008668976
aa(lp290
VBlue ranger
p291
aF1515.3031622620954
aa(lp292
VMio
p293
aF1515.5952387317889
aa(lp294
VTakakazu abe
p295
aF1516.0005983473573
aa(lp296
VRose
p297
aF1516.2877595786363
aa(lp298
VTakobue
p299
aF1516.3056920429115
aa(lp300
VSakura shingouji
p301
aF1516.5320427233153
aa(lp302
VKakashi
p303
aF1516.9068722940356
aa(lp304
VGarfield
p305
aF1517.1185835926115
aa(lp306
VAnother iori
p307
aF1517.3121159474
aa(lp308
VNoroko
p309
aF1517.3337678478347
aa(lp310
VBack beard
p311
aF1517.5531792358543
aa(lp312
V95 no danna
p313
aF1517.5742914514653
aa(lp314
VBatgirl
p315
aF1518.1798256902905
aa(lp316
VHokage
p317
aF1518.2392004108644
aa(lp318
VPhoenix
p319
aF1518.6633368117373
aa(lp320
VBrian griffin
p321
aF1518.810365678139
aa(lp322
VCaptain ginyu
p323
aF1519.142002693981
aa(lp324
VMedoi-san
p325
aF1519.1682387801857
aa(lp326
VSuperman
p327
aF1519.2402085452597
aa(lp328
VGold warmachine
p329
aF1519.3163051586525
aa(lp330
VGoku db
p331
aF1519.4058615097101
aa(lp332
VTetuwo
p333
aF1519.5818414468176
aa(lp334
VLink
p335
aF1520.1602130674194
aa(lp336
VMr buu
p337
aF1520.288447098767
aa(lp338
VMestre kame
p339
aF1520.4188708051684
aa(lp340
VOre
p341
aF1520.498637824704
aa(lp342
VTayuya
p343
aF1521.0843448576618
aa(lp344
VDragon guy
p345
aF1521.3342530882398
aa(lp346
V98se
p347
aF1521.6625546654955
aa(lp348
VHeika
p349
aF1521.7387047037337
aa(lp350
VTenshinham
p351
aF1522.1769154021245
aa(lp352
VDabura
p353
aF1522.1860417984349
aa(lp354
VShuh
p355
aF1522.201666213692
aa(lp356
VSimonkin2006
p357
aF1522.2882879538627
aa(lp358
VRinfa
p359
aF1522.4263793632606
aa(lp360
VShin ryu
p361
aF1522.4468779510678
aa(lp362
VNightwing
p363
aF1522.8117175767147
aa(lp364
VAmiba
p365
aF1522.9372141380115
aa(lp366
VRubber soul
p367
aF1523.4255207586284
aa(lp368
VPizza
p369
aF1523.9617945247935
aa(lp370
VIno
p371
aF1524.05121871264
aa(lp372
VGoku ssj5
p373
aF1524.2943888711047
aa(lp374
VWhite ranger
p375
aF1524.3007126929958
aa(lp376
VKszsk-shuko
p377
aF1524.319543042762
aa(lp378
VG-bit
p379
aF1524.3348579774465
aa(lp380
VDevo
p381
aF1524.3356860652682
aa(lp382
VChange dragon
p383
aF1524.548020193779
aa(lp384
VComplete cell
p385
aF1524.7338321429877
aa(lp386
VDosu
p387
aF1524.8328309284957
aa(lp388
VSyo hayate
p389
aF1524.9320939893464
aa(lp390
VHol 'butt king' funtimes
p391
aF1525.0651112640064
aa(lp392
VMaxima
p393
aF1525.1263801195355
aa(lp394
VGobotenn
p395
aF1525.1798388242757
aa(lp396
VKoola
p397
aF1525.4226031419137
aa(lp398
VSnoopy
p399
aF1525.6084735964212
aa(lp400
VAxl
p401
aF1525.8822019720606
aa(lp402
VFloren
p403
aF1525.900851471696
aa(lp404
VRock howard
p405
aF1526.2352779764983
aa(lp406
VKaguya kimimaro
p407
aF1526.27879600672
aa(lp408
VAthena
p409
aF1526.3901182296481
aa(lp410
VWinnie the pooh
p411
aF1526.4719657221976
aa(lp412
VBlack polnareff
p413
aF1526.681151726759
aa(lp414
VPolaris
p415
aF1527.096442220257
aa(lp416
VHol horse
p417
aF1527.353246684141
aa(lp418
VLucca
p419
aF1527.5096234720374
aa(lp420
VKid gohan ssj1
p421
aF1527.5832319728895
aa(lp422
VShikamaru
p423
aF1527.5889537783457
aa(lp424
VToki
p425
aF1528.1301749945662
aa(lp426
VTron bonne
p427
aF1528.168134329963
aa(lp428
VDark ryu
p429
aF1528.5762762513823
aa(lp430
VAngel ryu
p431
aF1528.676851062989
aa(lp432
VPachet
p433
aF1528.859857426959
aa(lp434
VA.b.a
p435
aF1528.923904547457
aa(lp436
VChill penguin
p437
aF1529.062800888709
aa(lp438
VKarin kanzuki
p439
aF1529.1604542878404
aa(lp440
VPiccolo daimaoh
p441
aF1529.2336206437699
aa(lp442
VNeyufeulle
p443
aF1529.4687590837239
aa(lp444
VKimberly
p445
aF1529.637323619116
aa(lp446
VGuy gardner
p447
aF1529.659389534137
aa(lp448
VInuzuka kiba
p449
aF1529.7409431626836
aa(lp450
VPlastic man
p451
aF1529.7994251036077
aa(lp452
VDodoria
p453
aF1529.9378613799718
aa(lp454
VRusty
p455
aF1529.9419296739434
aa(lp456
VUltimate-gohan
p457
aF1530.021385552672
aa(lp458
VGrover
p459
aF1530.0535897586835
aa(lp460
VVenom
p461
aF1530.1144715492992
aa(lp462
VNanaya
p463
aF1530.2360510198164
aa(lp464
VLi'l gohan
p465
aF1530.434834065401
aa(lp466
VTakuma.s_xiii
p467
aF1531.2367104389436
aa(lp468
VRanma saotome
p469
aF1531.4880925984698
aa(lp470
VWolvenom
p471
aF1531.508047069748
aa(lp472
VAlice
p473
aF1531.6241405681894
aa(lp474
VRayman
p475
aF1531.8547478091923
aa(lp476
VBanshee
p477
aF1531.8555072118547
aa(lp478
VRorschach
p479
aF1531.8692598947882
aa(lp480
VGuerrero divino del dragn
p481
aF1532.6305917753002
aa(lp482
VAndroid 18
p483
aF1532.677059572808
aa(lp484
VAstroboy
p485
aF1532.6858308768442
aa(lp486
VSasuke
p487
aF1532.7828731648215
aa(lp488
VRobo-ky
p489
aF1532.7992209924637
aa(lp490
VGrappler_hiyama
p491
aF1532.9194969947898
aa(lp492
VGoku kaiouken x4
p493
aF1533.1312348238457
aa(lp494
VWildcat
p495
aF1534.2967355531248
aa(lp496
VNenaikodareda
p497
aF1534.44078306315
aa(lp498
VHinata
p499
aF1534.619710385062
aa(lp500
VThe joker
p501
aF1534.6768862093193
aa(lp502
VYuki in midday
p503
aF1534.687477713815
aa(lp504
VSuperboy
p505
aF1535.328929036891
aa(lp506
VMegazord
p507
aF1535.3584504152007
aa(lp508
VGreat saiyaman
p509
aF1535.5193983045203
aa(lp510
VSuper boo
p511
aF1535.885190537904
aa(lp512
VTibigintou
p513
aF1536.026812499975
aa(lp514
VAnna
p515
aF1536.0565823693885
aa(lp516
VYoh
p517
aF1536.1176739272933
aa(lp518
VYashaoh
p519
aF1536.2339910030578
aa(lp520
VW len ar
p521
aF1536.9150362818068
aa(lp522
VFubuki sakuragasaki
p523
aF1536.9185261240923
aa(lp524
VGotenks ssj3
p525
aF1537.1797528315392
aa(lp526
VReimi jyahana
p527
aF1537.7103133145988
aa(lp528
VNaruto
p529
aF1537.9190540144893
aa(lp530
VHigyo-pam
p531
aF1537.9943500818445
aa(lp532
VPrincess peach
p533
aF1538.170521760667
aa(lp534
VKy
p535
aF1538.5223079641335
aa(lp536
VMayko
p537
aF1538.6907763849633
aa(lp538
VDaffy duck
p539
aF1539.1319634884321
aa(lp540
VTimmy turner
p541
aF1539.134864778183
aa(lp542
VHory marlu
p543
aF1539.6038548395084
aa(lp544
VGoten
p545
aF1539.6173780803883
aa(lp546
VHuman torch
p547
aF1539.6339006243848
aa(lp548
VRouga_zanma
p549
aF1540.0468011992518
aa(lp550
VMystia
p551
aF1540.948380822036
aa(lp552
VWhite len
p553
aF1541.632284786129
aa(lp554
VLion-o
p555
aF1541.787901299657
aa(lp556
VAgito_of_the_dark
p557
aF1542.1367735085307
aa(lp558
VNanase(+d)&mayu;
p559
aF1542.1422409867234
aa(lp560
VNemesis
p561
aF1542.888961474675
aa(lp562
VKuroko
p563
aF1542.9433142407831
aa(lp564
VBojack
p565
aF1542.9957296586933
aa(lp566
VMickey
p567
aF1543.0598634005473
aa(lp568
VSailor moon
p569
aF1543.1680752423229
aa(lp570
VHe-man
p571
aF1543.259773970981
aa(lp572
VMega goku
p573
aF1543.279451598885
aa(lp574
VMr burns
p575
aF1543.4812171562462
aa(lp576
VJoseph the b.b.
p577
aF1543.5429341322367
aa(lp578
VUzumaki naruto
p579
aF1543.57756924269
aa(lp580
VBig chicken
p581
aF1544.3723497923315
aa(lp582
VKen & gang
p583
aF1544.5814157120597
aa(lp584
VIkisan
p585
aF1544.6325078975922
aa(lp586
VSpider girl
p587
aF1544.9996145249738
aa(lp588
VOjisama-chaos
p589
aF1545.028019411298
aa(lp590
VTensinhan
p591
aF1545.1779904124999
aa(lp592
VYagumo
p593
aF1545.1863010582758
aa(lp594
VRobert
p595
aF1545.4249240897427
aa(lp596
VLord shaolin lee
p597
aF1545.4899168325014
aa(lp598
VPunisher
p599
aF1545.606022261453
aa(lp600
VMajin boo
p601
aF1545.7500821087365
aa(lp602
VTerry
p603
aF1545.815588887743
aa(lp604
VFox mccloud
p605
aF1545.853242763828
aa(lp606
VPoison
p607
aF1546.0429003026293
aa(lp608
VJustice
p609
aF1546.0712001714219
aa(lp610
VJotaro kujo
p611
aF1546.1800244066703
aa(lp612
VSuper sonic
p613
aF1546.5904807029435
aa(lp614
VHulk 2099
p615
aF1546.743021682203
aa(lp616
VThe nightmare
p617
aF1546.8193261743602
aa(lp618
VMay
p619
aF1546.8601308249324
aa(lp620
VS.p.o. ryu
p621
aF1547.3798735526454
aa(lp622
VGohan fight money
p623
aF1547.4631664711303
aa(lp624
VGod ken
p625
aF1547.7614777372992
aa(lp626
VPengintou
p627
aF1548.084200413325
aa(lp628
VSlayer
p629
aF1548.0913500599643
aa(lp630
VBra
p631
aF1548.1595438392587
aa(lp632
VShun
p633
aF1548.3967517884503
aa(lp634
VTapion
p635
aF1548.7279515738335
aa(lp636
VHideo&kyoko;
p637
aF1548.9630609964775
aa(lp638
VChouji
p639
aF1549.0017199152649
aa(lp640
VMai
p641
aF1549.315878920108
aa(lp642
VZero
p643
aF1549.879224112789
aa(lp644
VAlessi
p645
aF1549.960106003599
aa(lp646
VZarbom
p647
aF1550.0585082919706
aa(lp648
VChris sakurigan
p649
aF1550.2918763880482
aa(lp650
VHaku
p651
aF1550.3863209458552
aa(lp652
VElectro
p653
aF1550.4348547379348
aa(lp654
VDarkon
p655
aF1550.4636637422373
aa(lp656
VSanzou_kongoumaru
p657
aF1550.5819534805769
aa(lp658
VGoku ssj 3
p659
aF1550.6708490969584
aa(lp660
VGaara
p661
aF1550.8583064970749
aa(lp662
VSimonkin2005
p663
aF1550.9026209565807
aa(lp664
VPsychopath kyo
p665
aF1551.0061077179864
aa(lp666
VMeirin
p667
aF1551.1066038315323
aa(lp668
VMora
p669
aF1551.3828080535889
aa(lp670
VAndromeda
p671
aF1551.446996839465
aa(lp672
VSamurai jack
p673
aF1551.4577589818275
aa(lp674
VVegeta normal 2
p675
aF1551.7073188193872
aa(lp676
VLeela
p677
aF1551.7832619198427
aa(lp678
VPetshop
p679
aF1551.8935527297315
aa(lp680
VWar machine
p681
aF1551.9945758541637
aa(lp682
VKano
p683
aF1552.6017089288175
aa(lp684
VZatanna
p685
aF1552.8014942705524
aa(lp686
VZero svc
p687
aF1553.4008867714062
aa(lp688
VNayuki minase
p689
aF1553.7385995540642
aa(lp690
VGoku pce
p691
aF1553.7484488125879
aa(lp692
VMidler
p693
aF1553.8669683988749
aa(lp694
VFireman
p695
aF1553.9671934418798
aa(lp696
VGoku gt ssj3
p697
aF1554.0695029242572
aa(lp698
VMorgiana
p699
aF1554.4345275035964
aa(lp700
VBlanka
p701
aF1554.6553625938873
aa(lp702
VPsylocke
p703
aF1555.0051301674569
aa(lp704
VPan
p705
aF1555.0418518183221
aa(lp706
VGogeta ssj4
p707
aF1555.073392364719
aa(lp708
VKeine
p709
aF1555.220893591515
aa(lp710
VCell genesis
p711
aF1555.2344809566669
aa(lp712
VRuby heart
p713
aF1555.3504287636633
aa(lp714
VHuninki
p715
aF1555.3534961624493
aa(lp716
VAkane satomura
p717
aF1555.4270635605174
aa(lp718
VRaditz
p719
aF1555.5776963681603
aa(lp720
VGoku sayajin
p721
aF1555.6874292713135
aa(lp722
VOjisama
p723
aF1556.0863956654161
aa(lp724
VHobgoblin
p725
aF1556.6291239377838
aa(lp726
VAtusi
p727
aF1556.7024995591855
aa(lp728
VDevil_daigo
p729
aF1556.8586891417403
aa(lp730
VMega and.18
p731
aF1557.4305410156012
aa(lp732
VLipsyncher
p733
aF1557.5271063416546
aa(lp734
VKaori&shiori;
p735
aF1557.695545238375
aa(lp736
VMyon
p737
aF1558.031756706074
aa(lp738
VJuri
p739
aF1558.1863529805507
aa(lp740
VK' xiii
p741
aF1558.3540544129314
aa(lp742
VKikuri
p743
aF1558.382134310527
aa(lp744
VSsj gohan
p745
aF1558.5062448331296
aa(lp746
VWarmachine
p747
aF1558.7603962232804
aa(lp748
VKosmos
p749
aF1559.1210600704173
aa(lp750
VEmma frost
p751
aF1559.257209158298
aa(lp752
VAquaman
p753
aF1559.4789349980556
aa(lp754
VKenshiro
p755
aF1560.063970269336
aa(lp756
VChibi goku
p757
aF1560.2404831164522
aa(lp758
VEddie
p759
aF1560.3490142448493
aa(lp760
VMarco
p761
aF1560.6499317327646
aa(lp762
VViuda negra
p763
aF1560.6921403430556
aa(lp764
VKino
p765
aF1560.7565341823133
aa(lp766
VOmega red
p767
aF1560.7711928535412
aa(lp768
VTung fu rue
p769
aF1560.94922129761
aa(lp770
VRed tornado
p771
aF1560.9632024335776
aa(lp772
VSatori
p773
aF1561.0875986562826
aa(lp774
VRen_idagawa
p775
aF1561.323568886924
aa(lp776
VPiccolo sb1
p777
aF1561.4877821605924
aa(lp778
VShen
p779
aF1561.5566319869238
aa(lp780
VHeihachi mishima
p781
aF1561.5810570441095
aa(lp782
VJuda
p783
aF1561.6130502529197
aa(lp784
VPicapiedra
p785
aF1561.725996873532
aa(lp786
VSaya
p787
aF1561.779583457945
aa(lp788
VGundam heavy arms
p789
aF1561.852739955597
aa(lp790
VJin
p791
aF1561.920643201999
aa(lp792
VDr gero-and20
p793
aF1562.1688029256231
aa(lp794
VKenshirou
p795
aF1562.207092133613
aa(lp796
VVegetto ex
p797
aF1562.2735948642726
aa(lp798
VSongoku-snk/sf
p799
aF1562.4749780304535
aa(lp800
VVegeta ssj4
p801
aF1562.5549615964858
aa(lp802
VGohan ssj2
p803
aF1562.6548963241166
aa(lp804
VLunasa prismriver
p805
aF1562.6800686051306
aa(lp806
VMr. bison
p807
aF1563.085073692447
aa(lp808
VIchijo akari
p809
aF1563.0925003795169
aa(lp810
VNeji
p811
aF1563.12148082942
aa(lp812
VGreat gohan
p813
aF1563.214011341022
aa(lp814
VAmingo
p815
aF1563.4071114168007
aa(lp816
VKagami kyosuke
p817
aF1563.4854553024973
aa(lp818
VManbou
p819
aF1563.6906816754865
aa(lp820
VTyouunn-shiryu
p821
aF1564.0050998377853
aa(lp822
VPeter
p823
aF1564.1735145501982
aa(lp824
VAndroid 17
p825
aF1564.2196023488093
aa(lp826
VSkeletor
p827
aF1564.2920792027514
aa(lp828
VAsahina mikuru
p829
aF1564.4694156165463
aa(lp830
VBeavis
p831
aF1564.579321436993
aa(lp832
VPredator
p833
aF1564.5957485858496
aa(lp834
VYamcha
p835
aF1564.6105048231848
aa(lp836
VEiji kisaragi
p837
aF1564.7719453550308
aa(lp838
VBurai_yamamoto
p839
aF1564.8517184332823
aa(lp840
VZabuza
p841
aF1565.254727555404
aa(lp842
VNightmare yamazaki
p843
aF1565.375604559366
aa(lp844
VSylphie
p845
aF1565.5759642208807
aa(lp846
VMega lilde
p847
aF1565.5862698443207
aa(lp848
VSupergirl
p849
aF1565.5876260446537
aa(lp850
VRyu hayabusa
p851
aF1565.735173806775
aa(lp852
VMoorhunn
p853
aF1565.7398409187401
aa(lp854
VMetallo
p855
aF1566.1910778328174
aa(lp856
VDeath maul
p857
aF1566.329773851259
aa(lp858
VWriggle
p859
aF1566.361644150492
aa(lp860
VBlack.t
p861
aF1566.4560949412935
aa(lp862
VHaruno sakura
p863
aF1566.4645371380602
aa(lp864
VDark ash
p865
aF1566.5767160916455
aa(lp866
VSailor neptune
p867
aF1566.618274912431
aa(lp868
VGray fly
p869
aF1566.8565130677962
aa(lp870
VT.hawk
p871
aF1567.0723528654642
aa(lp872
VShin scrub ken
p873
aF1567.3565748322599
aa(lp874
VDark psylocke
p875
aF1567.361614556054
aa(lp876
VSilver horns
p877
aF1567.6781450653496
aa(lp878
VSsj goku
p879
aF1567.7341214292956
aa(lp880
VTemari
p881
aF1567.7741102450036
aa(lp882
VTewi_inaba
p883
aF1568.2136645874052
aa(lp884
VDaigo
p885
aF1568.256128462455
aa(lp886
VMurasa
p887
aF1568.4589262462214
aa(lp888
VYuri di aaaaaaa
p889
aF1568.5523998594933
aa(lp890
VP-gohan ssj2
p891
aF1568.5681659692857
aa(lp892
VVegeta ultra ssj
p893
aF1568.7508063999487
aa(lp894
VHeita zinnai
p895
aF1569.1753994084086
aa(lp896
VMamizou
p897
aF1569.309075095115
aa(lp898
VSpawn
p899
aF1569.3917296914665
aa(lp900
VKarnov
p901
aF1569.5868946108797
aa(lp902
VAsh
p903
aF1569.7861178975156
aa(lp904
VInspector gadget
p905
aF1569.9397096414891
aa(lp906
VGreen ranger
p907
aF1570.0188762310916
aa(lp908
VAeris ;or if you prefer, use aerith
p909
aF1570.1827945596474
aa(lp910
VSaba
p911
aF1570.283685927658
aa(lp912
VHenri
p913
aF1570.347722022474
aa(lp914
VAntman
p915
aF1570.370739150823
aa(lp916
VSkull-man
p917
aF1570.4717137819257
aa(lp918
VSinestro
p919
aF1570.5168980379594
aa(lp920
VSsjgoku
p921
aF1570.5444631639314
aa(lp922
VLelouch
p923
aF1570.7650035096003
aa(lp924
VKyo 71113
p925
aF1570.8133597267642
aa(lp926
VMegaman.exe
p927
aF1571.2871815882527
aa(lp928
VDudley
p929
aF1571.3942830853584
aa(lp930
VUesugi kensin
p931
aF1571.3942894397142
aa(lp932
VAraki runa
p933
aF1571.3990917575377
aa(lp934
VNue houjuu
p935
aF1571.5137073275291
aa(lp936
VAnji
p937
aF1571.562330488359
aa(lp938
VPhobos
p939
aF1571.5726804121039
aa(lp940
VM.bison
p941
aF1571.6413717136272
aa(lp942
VItachi
p943
aF1571.7381757014298
aa(lp944
V009
p945
aF1571.9698882187054
aa(lp946
VTiger
p947
aF1572.3348720546853
aa(lp948
VKang
p949
aF1572.3685978800727
aa(lp950
VYuri sakazaki
p951
aF1572.4136010649238
aa(lp952
VKyouko
p953
aF1572.414973654515
aa(lp954
VNate summers
p955
aF1572.4833390877193
aa(lp956
VHirasawa_yui
p957
aF1572.5995267035178
aa(lp958
VJiroubou
p959
aF1572.642943705639
aa(lp960
V20 (dr. gero)
p961
aF1572.849095081882
aa(lp962
VArthur
p963
aF1572.874775223885
aa(lp964
VChichi
p965
aF1572.8932447296802
aa(lp966
VSinki
p967
aF1573.0063090546048
aa(lp968
VChibi trunks
p969
aF1573.0501719486294
aa(lp970
VFoxy
p971
aF1573.4022772843327
aa(lp972
VQueen beryl
p973
aF1573.4726661629036
aa(lp974
VElecman
p975
aF1573.5293999770756
aa(lp976
VBlaziken
p977
aF1573.8361934901602
aa(lp978
VArchetype:earth
p979
aF1573.9270241977697
aa(lp980
VLord raptor
p981
aF1573.9406714400614
aa(lp982
VBomber man
p983
aF1574.3780366236406
aa(lp984
VZangya
p985
aF1574.5249791186393
aa(lp986
VChise
p987
aF1574.55396766698
aa(lp988
VGuile
p989
aF1574.7428245033468
aa(lp990
VSpenoza
p991
aF1574.9186184441319
aa(lp992
VLesty
p993
aF1575.4320278527975
aa(lp994
VSilver samurai
p995
aF1575.4441548200434
aa(lp996
VReisen
p997
aF1575.5206778687404
aa(lp998
VTeam nicktoon
p999
aF1575.5659602924495
aa(lp1000
VElena
p1001
aF1575.684474280166
aa(lp1002
VSophitia
p1003
aF1575.7952050802285
aa(lp1004
VTrunks sb1
p1005
aF1576.4197490430913
aa(lp1006
VD-rugal
p1007
aF1576.4644199066333
aa(lp1008
VKen
p1009
aF1576.6713991255253
aa(lp1010
VBootleg ryu
p1011
aF1576.6917302901918
aa(lp1012
VBilly_xiii
p1013
aF1576.9169863549027
aa(lp1014
VMonky d luffy
p1015
aF1576.9768117321694
aa(lp1016
VTara-gyouza
p1017
aF1577.4289132416118
aa(lp1018
VHavok
p1019
aF1577.4900332119412
aa(lp1020
VKing
p1021
aF1577.6030913568634
aa(lp1022
VBlockhead
p1023
aF1577.7782101755686
aa(lp1024
VPrincess Peach
p1025
aF1577.8167441332198
aa(lp1026
VUkitake
p1027
aF1577.8880239097368
aa(lp1028
VDodgers
p1029
aF1577.9207511242892
aa(lp1030
VAlice margatroid
p1031
aF1577.9885212084469
aa(lp1032
VMr Satan
p1033
aF1578.0220021916712
aa(lp1034
VSaibaman
p1035
aF1578.257553640412
aa(lp1036
VKaio shin
p1037
aF1578.4853276926617
aa(lp1038
VTrunks ssj4
p1039
aF1578.5453512347747
aa(lp1040
VMekazawa
p1041
aF1578.6034356199555
aa(lp1042
VHanny
p1043
aF1578.6438774069702
aa(lp1044
VKaede
p1045
aF1578.6544095040888
aa(lp1046
VGuldo
p1047
aF1578.7298282708248
aa(lp1048
VKyo kusanagi
p1049
aF1578.8775980064925
aa(lp1050
VGurocure
p1051
aF1578.9435253761544
aa(lp1052
VNormal chibi trunks
p1053
aF1578.9758402410687
aa(lp1054
VShe-hulk
p1055
aF1579.0225222455927
aa(lp1056
VMomizi
p1057
aF1579.1537201152123
aa(lp1058
VStarfire
p1059
aF1579.214814984883
aa(lp1060
VTrevor spacer
p1061
aF1579.237952045501
aa(lp1062
VGato
p1063
aF1579.2710722554243
aa(lp1064
VShadowcat
p1065
aF1579.5293550074666
aa(lp1066
VIbuki
p1067
aF1579.573781831172
aa(lp1068
VSon trunks
p1069
aF1579.6552379837738
aa(lp1070
VMako
p1071
aF1579.7242961812888
aa(lp1072
VAvdol ver 2001/01/30 by camrat
p1073
aF1579.736720490955
aa(lp1074
VKogasa
p1075
aF1579.777381648418
aa(lp1076
VLizardman
p1077
aF1579.976505517938
aa(lp1078
VRuili
p1079
aF1580.3509722841277
aa(lp1080
VYatogi tetsu
p1081
aF1580.5128649275898
aa(lp1082
VLetty whiterock
p1083
aF1580.6672192370602
aa(lp1084
VElastigirl
p1085
aF1581.362326132936
aa(lp1086
VSalty goku
p1087
aF1581.4914347736074
aa(lp1088
VTails
p1089
aF1581.8796214257668
aa(lp1090
VMorfo
p1091
aF1582.4572802014145
aa(lp1092
VKyon
p1093
aF1582.4816762597054
aa(lp1094
VCrashman
p1095
aF1582.5455642776801
aa(lp1096
VShadow vegeta
p1097
aF1582.8503473285728
aa(lp1098
VNitori
p1099
aF1582.8710528848208
aa(lp1100
VJudgement
p1101
aF1582.916839417512
aa(lp1102
VElongated man
p1103
aF1582.9446414751487
aa(lp1104
VBenimaru_xiii
p1105
aF1583.2476184417644
aa(lp1106
VMokou
p1107
aF1583.3601750293835
aa(lp1108
VSion_tatari
p1109
aF1583.4661754553997
aa(lp1110
VDee jay
p1111
aF1583.555528097886
aa(lp1112
VYuki
p1113
aF1583.6027894051504
aa(lp1114
VPotemkin
p1115
aF1583.709901265752
aa(lp1116
VPsycho weapon
p1117
aF1583.7843007839701
aa(lp1118
VAirman
p1119
aF1583.866134831605
aa(lp1120
VGreat sayaman
p1121
aF1583.8778374489057
aa(lp1122
VSpiderman 2099
p1123
aF1584.0045369316351
aa(lp1124
VChrisg sakurigan
p1125
aF1584.1600431913998
aa(lp1126
VVegettossj3
p1127
aF1584.399462900968
aa(lp1128
VEmerl
p1129
aF1584.40410421999
aa(lp1130
VScarlet witch
p1131
aF1584.4287620856123
aa(lp1132
VFreeza 1st form
p1133
aF1584.5295876732716
aa(lp1134
VSpelunker
p1135
aF1584.5765004560446
aa(lp1136
VGohan gt
p1137
aF1584.5816487902853
aa(lp1138
VTokiko
p1139
aF1584.612357197938
aa(lp1140
VNormal sword trunks
p1141
aF1584.698735427917
aa(lp1142
VGhetto Warmachine
p1143
aF1584.7355750044662
aa(lp1144
VDocOck
p1145
aF1584.7467893092917
aa(lp1146
VTakakazu Abe
p1147
aF1584.7483049961086
aa(lp1148
VSuper Buu
p1149
aF1584.7537051982956
aa(lp1150
VSpopovich
p1151
aF1584.7556274349154
aa(lp1152
VNick fury
p1153
aF1584.7900336802613
aa(lp1154
VBardock
p1155
aF1584.9503990755404
aa(lp1156
VTest a.i.
p1157
aF1584.9975658481803
aa(lp1158
VHal jordan
p1159
aF1585.0487588393385
aa(lp1160
VEiji Kisaragi
p1161
aF1585.0813585727308
aa(lp1162
VBoulma
p1163
aF1585.1034691245397
aa(lp1164
VTurles
p1165
aF1585.2542605408976
aa(lp1166
VKid Gohan
p1167
aF1585.2936763096725
aa(lp1168
VGreen goblin
p1169
aF1585.2939129935507
aa(lp1170
VFio
p1171
aF1585.3530252833991
aa(lp1172
VNoriaki kakyoin
p1173
aF1585.419858698903
aa(lp1174
VMetal Man
p1175
aF1585.4425149153049
aa(lp1176
VSephiroth
p1177
aF1585.6344163097958
aa(lp1178
VChris
p1179
aF1585.6665935352194
aa(lp1180
VKiller Whale
p1181
aF1585.9422198648128
aa(lp1182
VBebi vegeta form 1
p1183
aF1586.0236775840528
aa(lp1184
VGill
p1185
aF1586.2318379669405
aa(lp1186
VKunagi_tenrou
p1187
aF1586.5264916485485
aa(lp1188
VPicurin
p1189
aF1586.6822543601938
aa(lp1190
VLupin the 3rd
p1191
aF1586.7306675151556
aa(lp1192
VCharizard
p1193
aF1586.7331778750981
aa(lp1194
VReimu
p1195
aF1586.9344951274304
aa(lp1196
VNamek gohan
p1197
aF1586.9801282860005
aa(lp1198
VPegasus di fuoco
p1199
aF1587.097804215798
aa(lp1200
VIori yagami
p1201
aF1587.161676298968
aa(lp1202
VZantetsu
p1203
aF1587.3954602598567
aa(lp1204
VLi sheng long
p1205
aF1587.528046738488
aa(lp1206
VKingpin
p1207
aF1587.530843697665
aa(lp1208
VPitt
p1209
aF1587.5636042731448
aa(lp1210
VLeonardo
p1211
aF1587.983796521163
aa(lp1212
VPepe
p1213
aF1588.1255938125464
aa(lp1214
VBlack ranger
p1215
aF1588.4240176950184
aa(lp1216
VThanoseid
p1217
aF1588.5019389090876
aa(lp1218
VKanmi chan
p1219
aF1588.5777404096016
aa(lp1220
VShino
p1221
aF1588.7688094186185
aa(lp1222
VBattlemage_[dnf]
p1223
aF1589.0387975953765
aa(lp1224
VSuwako moriya
p1225
aF1589.425493010329
aa(lp1226
VFirebrand
p1227
aF1589.809920710631
aa(lp1228
VNeco chaos
p1229
aF1589.9299534299357
aa(lp1230
VDoparmin
p1231
aF1590.03550733573
aa(lp1232
VSanae
p1233
aF1590.0962650493111
aa(lp1234
VStorm
p1235
aF1590.6128927267746
aa(lp1236
VHagen
p1237
aF1590.8412638233444
aa(lp1238
VVicViper
p1239
aF1591.3025551989574
aa(lp1240
VHwa jai
p1241
aF1591.3801956113016
aa(lp1242
VSpider-man 2099
p1243
aF1591.5350073856926
aa(lp1244
VSora
p1245
aF1591.599183160033
aa(lp1246
VBlack Polnareff
p1247
aF1591.6362646123475
aa(lp1248
VYakui San
p1249
aF1591.8250675261702
aa(lp1250
VOjisama-Chaos
p1251
aF1591.8250675261702
aa(lp1252
VUzumaki Naruto
p1253
aF1591.837289183114
aa(lp1254
VGundam Heavy Arms
p1255
aF1591.8428175711974
aa(lp1256
VSentry
p1257
aF1591.8989099204236
aa(lp1258
VRock Howard
p1259
aF1592.0444915518758
aa(lp1260
VYellow devil;<-- replace with name to display
p1261
aF1592.1883151356164
aa(lp1262
VMech Gouki
p1263
aF1592.193415553329
aa(lp1264
VDr Gero and 20
p1265
aF1592.2116549273721
aa(lp1266
VParsee
p1267
aF1592.223375837551
aa(lp1268
VBlack Adam
p1269
aF1592.348262935135
aa(lp1270
VNormal trunks
p1271
aF1592.352468354433
aa(lp1272
VChibi gohan nex
p1273
aF1592.353959383624
aa(lp1274
VHomer
p1275
aF1592.3559537257406
aa(lp1276
Vpizza\u005cpizza.def
p1277
aF1592.3639215058279
aa(lp1278
VBrian Griffin
p1279
aF1592.3686997293614
aa(lp1280
VSonGoku SNK SF
p1281
aF1592.3743723570142
aa(lp1282
VHydra
p1283
aF1592.3761633096146
aa(lp1284
VSuper Vegeta
p1285
aF1592.4015679822148
aa(lp1286
VMr Bison
p1287
aF1592.4015679822148
aa(lp1288
VJin Kazama
p1289
aF1592.4015679822148
aa(lp1290
V*Nanaya
p1291
aF1592.4015679822148
aa(lp1292
VXP Pro
p1293
aF1592.4015679822148
aa(lp1294
VLady Deathstrike
p1295
aF1592.4015679822148
aa(lp1296
VFat Albert
p1297
aF1592.4015679822148
aa(lp1298
VHercule GT
p1299
aF1592.4015679822148
aa(lp1300
VKarin Kanzuki
p1301
aF1592.4015679822148
aa(lp1302
VYuri Di AAAAAA
p1303
aF1592.525831667741
aa(lp1304
VMr Karate
p1305
aF1592.5351559211306
aa(lp1306
VSSJ Goku
p1307
aF1592.5357917683389
aa(lp1308
VGreen lantern js
p1309
aF1592.5461809357437
aa(lp1310
VPiccolo Daimaoh
p1311
aF1592.5554360529813
aa(lp1312
VAndy_xiii
p1313
aF1592.6436617663162
aa(lp1314
VMultiple Man
p1315
aF1592.767947436995
aa(lp1316
VCaptain marvell
p1317
aF1592.8013744477732
aa(lp1318
VErza
p1319
aF1592.8215717294977
aa(lp1320
VMike Tyson
p1321
aF1592.8823396721475
aa(lp1322
V20 Dr. Gero
p1323
aF1592.9325843771649
aa(lp1324
VGotenks
p1325
aF1592.9550664925443
aa(lp1326
VShin mr. karate
p1327
aF1593.0466884785446
aa(lp1328
VKoopa Troopa
p1329
aF1593.0758967172103
aa(lp1330
VVidel
p1331
aF1593.2016884401999
aa(lp1332
VTest4
p1333
aF1593.2811871717258
aa(lp1334
V(sman)
p1335
aF1593.346266489261
aa(lp1336
VSyo Hayate
p1337
aF1593.4210535034085
aa(lp1338
VJanemba
p1339
aF1593.4352735931388
aa(lp1340
VFei-long
p1341
aF1593.4610700758326
aa(lp1342
VGold Warmachine
p1343
aF1593.6060131927659
aa(lp1344
VGotenks ssj
p1345
aF1593.747383926699
aa(lp1346
VMars people
p1347
aF1593.931979506496
aa(lp1348
VToramaru syou
p1349
aF1594.1209397130829
aa(lp1350
VSuper #13
p1351
aF1594.1262861684972
aa(lp1352
VPrince vegeta
p1353
aF1594.29600163976
aa(lp1354
VNeodio
p1355
aF1594.338281251425
aa(lp1356
VButt-head
p1357
aF1594.3549869842852
aa(lp1358
VVegeta
p1359
aF1594.6356711779517
aa(lp1360
VMaster chief
p1361
aF1595.17915328447
aa(lp1362
VBizarro
p1363
aF1595.5552527288905
aa(lp1364
VChaka
p1365
aF1595.8114012004355
aa(lp1366
VBulleta
p1367
aF1595.8469423793945
aa(lp1368
VMeta-knight
p1369
aF1596.0362261957384
aa(lp1370
VLee
p1371
aF1596.2145381498663
aa(lp1372
VDonatello
p1373
aF1596.3619249235928
aa(lp1374
VHawkman
p1375
aF1596.4306191611233
aa(lp1376
VTenshi
p1377
aF1597.015928009681
aa(lp1378
VFlash
p1379
aF1597.0890634695368
aa(lp1380
VTifa lockhart
p1381
aF1597.2743510977523
aa(lp1382
VMr. increible
p1383
aF1597.3328739569224
aa(lp1384
VPopeye
p1385
aF1597.4832083422432
aa(lp1386
VYuugi
p1387
aF1597.504109402887
aa(lp1388
VOrione
p1389
aF1597.9949457642442
aa(lp1390
VFrog
p1391
aF1598.0084987992363
aa(lp1392
VGreat s. man
p1393
aF1598.528441424776
aa(lp1394
VZangia
p1395
aF1598.770879379252
aa(lp1396
VFirestar
p1397
aF1598.7943494510903
aa(lp1398
VSailor mars
p1399
aF1598.8475233408014
aa(lp1400
VAnother kyo
p1401
aF1598.8649094156085
aa(lp1402
VLilin
p1403
aF1599.2597371998017
aa(lp1404
VQuicksilver
p1405
aF1599.2947673543656
aa(lp1406
VZeroko
p1407
aF1599.3849026694522
aa(lp1408
VOozaru
p1409
aF1599.5728106423871
aa(lp1410
VYumi
p1411
aF1599.584862763985
aa(lp1412
VRaoh
p1413
aF1599.6013905932098
aa(lp1414
VSailor Jupiter
p1415
aF1599.656858441605
aa(lp1416
VCell jr
p1417
aF1599.7250617002308
aa(lp1418
VBaitang
p1419
aF1599.824897764907
aa(lp1420
VSexy arina
p1421
aF1599.8322989755206
aa(lp1422
VYoutube poop robotnik
p1423
aF1599.9220907812721
aa(lp1424
VCell (2 forma)
p1425
aF1599.9383304836902
aa(lp1426
VGod Ken
p1427
aI1600
aa(lp1428
VVegeta Ultra SSJ
p1429
aI1600
aa(lp1430
V*Marco
p1431
aI1600
aa(lp1432
V*Orione
p1433
aI1600
aa(lp1434
VBender
p1435
aI1600
aa(lp1436
VGotenks SSJ
p1437
aI1600
aa(lp1438
V*Bane
p1439
aI1600
aa(lp1440
VLord Ravenous
p1441
aI1600
aa(lp1442
VVegetto EX
p1443
aI1600
aa(lp1444
VCatwalk
p1445
aI1600
aa(lp1446
V*The Joker
p1447
aI1600
aa(lp1448
VGogeta SSJ2
p1449
aI1600
aa(lp1450
V*Beast
p1451
aI1600
aa(lp1452
VJones
p1453
aI1600
aa(lp1454
VChun Lee Dark Bolt
p1455
aI1600
aa(lp1456
VHigh Dio
p1457
aI1600
aa(lp1458
VA.B.A.
p1459
aI1600
aa(lp1460
VTao Jun
p1461
aI1600
aa(lp1462
VKaren Na Hito
p1463
aI1600
aa(lp1464
Vgill\u005cgill.def
p1465
aI1600
aa(lp1466
VRuby Heart
p1467
aI1600
aa(lp1468
VTrunks SB1
p1469
aI1600
aa(lp1470
VNeo-arc Chaos
p1471
aI1600
aa(lp1472
VDunbai san
p1473
aI1600
aa(lp1474
VDeathOgre + GhettoWar
p1475
aI1600
aa(lp1476
V*Spiral
p1477
aI1600
aa(lp1478
VGoku Vegeta
p1479
aI1600
aa(lp1480
VKazuya
p1481
aI1600
aa(lp1482
VNate Summers
p1483
aI1600
aa(lp1484
VDio Di Musca
p1485
aI1600
aa(lp1486
VGoku DB
p1487
aI1600
aa(lp1488
V*Superman
p1489
aI1600
aa(lp1490
VVic Viper
p1491
aI1600
aa(lp1492
VRorscach
p1493
aI1600
aa(lp1494
VGreen Lantern GG
p1495
aI1600
aa(lp1496
VSolid Snake
p1497
aI1600
aa(lp1498
VCream
p1499
aI1600
aa(lp1500
VSuper Skrull
p1501
aI1600
aa(lp1502
VSSJ3 Goku
p1503
aI1600
aa(lp1504
VWaha
p1505
aI1600
aa(lp1506
VTung Fu Rue
p1507
aI1600
aa(lp1508
VMinikata Moriya
p1509
aI1600
aa(lp1510
V*Geese
p1511
aI1600
aa(lp1512
VMega Piccolo
p1513
aI1600
aa(lp1514
V*Pegasus Di Fuoco
p1515
aI1600
aa(lp1516
VAraki Runa
p1517
aI1600
aa(lp1518
VThierry Henry
p1519
aI1600
aa(lp1520
VDeath Maul
p1521
aI1600
aa(lp1522
VSadclaps x2
p1523
aI1600
aa(lp1524
VChizuru Kagura
p1525
aI1600
aa(lp1526
VShuma Gorath
p1527
aI1600
aa(lp1528
V*Hydra
p1529
aI1600
aa(lp1530
VChill Penguin
p1531
aI1600
aa(lp1532
V98SE
p1533
aI1600
aa(lp1534
VChibi Goku
p1535
aI1600
aa(lp1536
VGoku SB1
p1537
aI1600
aa(lp1538
VSpider Girl
p1539
aI1600
aa(lp1540
VGogeta SSJ
p1541
aI1600
aa(lp1542
VLord Raptor
p1543
aI1600
aa(lp1544
VDark Ryu
p1545
aI1600
aa(lp1546
VBulma
p1547
aI1600
aa(lp1548
VSSJGoku
p1549
aI1600
aa(lp1550
VReimi Jyahana
p1551
aI1600
aa(lp1552
VMega Vegeta
p1553
aI1600
aa(lp1554
VGreat S Man
p1555
aI1600
aa(lp1556
Vgohanex\u005cgohanex.def
p1557
aI1600
aa(lp1558
V*Piccolo Daimaoh
p1559
aI1600
aa(lp1560
VMega Lilde
p1561
aI1600
aa(lp1562
VVegeta Normal 3
p1563
aI1600
aa(lp1564
VYoshikage Killa
p1565
aI1600
aa(lp1566
VMega Gohan
p1567
aI1600
aa(lp1568
VLord Shaolin Lee
p1569
aI1600
aa(lp1570
VPiccolo SB1
p1571
aI1600
aa(lp1572
VShin Gouki
p1573
aI1600
aa(lp1574
V*Super Vegeta
p1575
aI1600
aa(lp1576
VHuman Torch
p1577
aI1600
aa(lp1578
VRamon and Daimon 71113
p1579
aI1600
aa(lp1580
VComplete Cell
p1581
aI1600
aa(lp1582
V*Yuki
p1583
aI1600
aa(lp1584
VChaotzu
p1585
aI1600
aa(lp1586
VHonda Asuka
p1587
aI1600
aa(lp1588
VGreat Saiyaman
p1589
aI1600
aa(lp1590
VShang Tsung
p1591
aI1600
aa(lp1592
VOpera Elmer
p1593
aI1600
aa(lp1594
VMestre Kame
p1595
aI1600
aa(lp1596
VGoku GT SSJ3
p1597
aI1600
aa(lp1598
VS-kyo + Holy Ken
p1599
aI1600
aa(lp1600
VE-102R
p1601
aI1600
aa(lp1602
VHisui&Kohaku;
p1603
aI1600
aa(lp1604
VGohan Zeta
p1605
aI1600
aa(lp1606
VInuzuma Kiba
p1607
aI1600
aa(lp1608
VVenon
p1609
aI1600
aa(lp1610
VAnother Jissou Seki
p1611
aI1600
aa(lp1612
VYayoi
p1613
aI1600
aa(lp1614
V*Predator
p1615
aI1600
aa(lp1616
VVegeta Normal 2
p1617
aI1600
aa(lp1618
VGohan School
p1619
aI1600
aa(lp1620
V*Vanilla Ice
p1621
aI1600
aa(lp1622
VGoku SSJ2
p1623
aI1600
aa(lp1624
VTrevor Spacer
p1625
aI1600
aa(lp1626
VFreeza 1st Form
p1627
aI1600
aa(lp1628
VKara Na Hito
p1629
aI1600
aa(lp1630
VBart
p1631
aI1600
aa(lp1632
VCell Genesis
p1633
aI1600
aa(lp1634
VCaptan Ginew
p1635
aI1600
aa(lp1636
VResume before 12:55am
p1637
aI1600
aa(lp1638
V*Cammy
p1639
aI1600
aa(lp1640
V*Punisher
p1641
aI1600
aa(lp1642
VSailor Venus
p1643
aI1600
aa(lp1644
VSpelunker Sensei
p1645
aI1600
aa(lp1646
VGray Fly 1
p1647
aI1600
aa(lp1648
VSuper Boo
p1649
aI1600
aa(lp1650
VSailor Moon
p1651
aI1600
aa(lp1652
V95 No Danna
p1653
aI1600
aa(lp1654
VBra 1
p1655
aI1600
aa(lp1656
V*Emma Frost
p1657
aI1600
aa(lp1658
VInvisible Woman
p1659
aI1600
aa(lp1660
VVegeth SSJ2
p1661
aI1600
aa(lp1662
V*Mr. Fantastic
p1663
aI1600
aa(lp1664
VVanilla Ice
p1665
aI1600
aa(lp1666
V*Airman
p1667
aI1600
aa(lp1668
VMega And 18
p1669
aI1600
aa(lp1670
VGotenks SSJ3
p1671
aI1600
aa(lp1672
VLion-O
p1673
aI1600
aa(lp1674
VHel Lauren
p1675
aI1600
aa(lp1676
V2Ban-tan
p1677
aI1600
aa(lp1678
VGoku SSJ 3
p1679
aI1600
aa(lp1680
VButthead
p1681
aI1600
aa(lp1682
V*Human Torch
p1683
aI1600
aa(lp1684
VRubber Soul
p1685
aI1600
aa(lp1686
VSailor Mercury
p1687
aI1600
aa(lp1688
VShadowman CFAS
p1689
aI1600
aa(lp1690
VMega Goku
p1691
aI1600
aa(lp1692
VGinew 2
p1693
aI1600
aa(lp1694
VCell Junior
p1695
aI1600
aa(lp1696
VBack Beard
p1697
aI1600
aa(lp1698
VTest6
p1699
aF1600.0004254889934
aa(lp1700
VVegetto
p1701
aF1600.0042407686467
aa(lp1702
VTest5
p1703
aF1600.0184787522094
aa(lp1704
VPetShop
p1705
aF1600.0369792869265
aa(lp1706
VAlter Amiba
p1707
aF1600.0456157939523
aa(lp1708
VTest12
p1709
aF1600.1706483600378
aa(lp1710
VSamurai Jack
p1711
aF1600.1765316247595
aa(lp1712
VNiggah
p1713
aF1600.1841742594847
aa(lp1714
VVegetaHD2
p1715
aF1600.1841742594847
aa(lp1716
Vwingzero\u005cwingzero.def
p1717
aF1600.1841742594847
aa(lp1718
VBartman\u005c._bartman.def
p1719
aF1600.1841742594847
aa(lp1720
VSsj6vegeta
p1721
aF1600.1841742594847
aa(lp1722
Vsouseiseki\u005csouseiseki.def
p1723
aF1600.1841742594847
aa(lp1724
VTheJoker
p1725
aF1600.1841742594847
aa(lp1726
Vcpu
p1727
aF1600.1841742594847
aa(lp1728
VTraining
p1729
aF1600.1841742594847
aa(lp1730
VPChunli\u005cpchunli.def
p1731
aF1600.1841742594847
aa(lp1732
VSSJ6 Vegeta
p1733
aF1600.1841742594847
aa(lp1734
VKiller Whale 2
p1735
aF1600.1841742594847
aa(lp1736
VCyberbots_Reptos
p1737
aF1600.1841742594847
aa(lp1738
Vvegetahd2\u005cVegetaHD2.def
p1739
aF1600.1841742594847
aa(lp1740
VSuperskrull\u005cSuperskrull.def
p1741
aF1600.1841742594847
aa(lp1742
Ve
p1743
aF1600.1841742594847
aa(lp1744
Vnagato
p1745
aF1600.1841742594847
aa(lp1746
VDeathOgre\u005cDeathOgre.def
p1747
aF1600.1841742594847
aa(lp1748
V!so_mexican
p1749
aF1600.1841742594847
aa(lp1750
Vginew\u005cGinew_Final.def
p1751
aF1600.1841742594847
aa(lp1752
Vmm_rox\u005cmm_rox.def
p1753
aF1600.1841742594847
aa(lp1754
Vgobo\u005cgobo.def
p1755
aF1600.1841742594847
aa(lp1756
VChibi Gohan Nex
p1757
aF1600.2016250922943
aa(lp1758
Vu
p1759
aF1600.217645233854
aa(lp1760
VNate
p1761
aF1600.217645233854
aa(lp1762
VUtsuho reiuji
p1763
aF1600.2808247654775
aa(lp1764
VButtercup
p1765
aF1600.306625932184
aa(lp1766
VEmpty
p1767
aF1600.3516054057814
aa(lp1768
VTest8
p1769
aF1600.359968822029
aa(lp1770
VJamian
p1771
aF1600.359968822029
aa(lp1772
VGreen Devil
p1773
aF1600.3641099462138
aa(lp1774
VGoten GT nex
p1775
aF1600.3777311587412
aa(lp1776
VP Chunli
p1777
aF1600.396057734326
aa(lp1778
VWagahai
p1779
aF1600.4015679822148
aa(lp1780
VGohan SSJ2
p1781
aF1600.4065551773742
aa(lp1782
VDeath13
p1783
aF1600.4880070893103
aa(lp1784
VDesperado+
p1785
aF1600.503845554121
aa(lp1786
VHol Horse
p1787
aF1600.5674798752502
aa(lp1788
VGlacius
p1789
aF1600.6600490105072
aa(lp1790
VTron Bonne
p1791
aF1600.7246279244762
aa(lp1792
VVulture
p1793
aF1600.8193519457523
aa(lp1794
VWar Machine
p1795
aF1600.9073643568506
aa(lp1796
VYang
p1797
aF1601.0115373329195
aa(lp1798
VLord ravenous
p1799
aF1601.1205012986723
aa(lp1800
VJason Todd
p1801
aF1601.2129172630891
aa(lp1802
VSasuke Kun
p1803
aF1601.3094279572747
aa(lp1804
VKujo jotaro
p1805
aF1601.3865062647428
aa(lp1806
VSad Claps
p1807
aF1601.4511766952555
aa(lp1808
VBaby Commando
p1809
aF1601.4545454545455
aa(lp1810
VGreen Arrow
p1811
aF1601.4545454545455
aa(lp1812
VYusuke
p1813
aF1601.4545454545455
aa(lp1814
VSakura Shingouji
p1815
aF1601.4545454545455
aa(lp1816
VDragon Guy
p1817
aF1601.5656440710568
aa(lp1818
VChiaotzu
p1819
aF1601.6128922776704
aa(lp1820
VTenten
p1821
aF1601.7499212403388
aa(lp1822
VSpider-carnage
p1823
aF1601.8662362081645
aa(lp1824
VVenom Scorpion
p1825
aF1601.9322634686798
aa(lp1826
VSsj4 goten
p1827
aF1602.012736623257
aa(lp1828
VEri_hasumi
p1829
aF1602.2036346640773
aa(lp1830
VSailor mercury
p1831
aF1602.5301328495275
aa(lp1832
VVictor
p1833
aF1602.757454155313
aa(lp1834
VBeast
p1835
aF1602.8813003015814
aa(lp1836
VProtoman
p1837
aF1602.9605241341885
aa(lp1838
VTest2
p1839
aF1602.9904117096232
aa(lp1840
VMaster Sakura
p1841
aF1602.993602222219
aa(lp1842
VShin Kazuma
p1843
aF1603.0123935387805
aa(lp1844
VNanaya shiki
p1845
aF1603.0996804897852
aa(lp1846
VGoku gt
p1847
aF1603.1228158986917
aa(lp1848
VObsidian
p1849
aF1603.335962689154
aa(lp1850
VLuigi
p1851
aF1603.3637832364366
aa(lp1852
VGohan school
p1853
aF1603.4680954999376
aa(lp1854
VCrilin sposato
p1855
aF1603.5697800328815
aa(lp1856
VMakoto
p1857
aF1603.6708699176938
aa(lp1858
VDespero
p1859
aF1603.9930851560148
aa(lp1860
VJon talbain
p1861
aF1604.0360621847458
aa(lp1862
VUltraman
p1863
aF1604.1578493045372
aa(lp1864
VBaby commando
p1865
aF1604.197317888607
aa(lp1866
VLou
p1867
aF1604.768590259817
aa(lp1868
VWing zero
p1869
aF1604.7744674783494
aa(lp1870
VWario
p1871
aF1604.7929753625067
aa(lp1872
VKisume
p1873
aF1604.9423311965975
aa(lp1874
VYuriesbyfe
p1875
aF1605.2575276169346
aa(lp1876
VRobert garcia
p1877
aF1605.330670078583
aa(lp1878
VBloodrayne
p1879
aF1605.4219300870125
aa(lp1880
VNamor
p1881
aF1605.5269006581282
aa(lp1882
VElisabeth blanctorche xiii
p1883
aF1605.5747578294604
aa(lp1884
VShin bison
p1885
aF1605.6888336145103
aa(lp1886
VMinakata moriya
p1887
aF1605.9481256844772
aa(lp1888
VJeice
p1889
aF1606.0088247931365
aa(lp1890
VHatate_himekaidou
p1891
aF1606.086353271896
aa(lp1892
VMr. x
p1893
aF1606.116055674868
aa(lp1894
VMordecai
p1895
aF1606.269685405595
aa(lp1896
VPrincess silver
p1897
aF1606.6088781723647
aa(lp1898
VFelicia
p1899
aF1606.665019491822
aa(lp1900
VTest1
p1901
aF1606.688346575264
aa(lp1902
VUnknown
p1903
aF1606.7049512614628
aa(lp1904
VGogeta SSJ4
p1905
aF1606.9352873698786
aa(lp1906
VNeco-arc chaos
p1907
aF1606.9765981163127
aa(lp1908
VGoku GT
p1909
aF1607.110288700279
aa(lp1910
VKurama
p1911
aF1607.1791094011153
aa(lp1912
VClark steel
p1913
aF1607.2104264178247
aa(lp1914
VCyborg_mai
p1915
aF1607.3615802000259
aa(lp1916
VAngel Ryu
p1917
aF1607.4532270674206
aa(lp1918
VBartman
p1919
aF1607.4614551689324
aa(lp1920
VPrime sentinels
p1921
aF1607.4865099788829
aa(lp1922
VSalty and Zeroko
p1923
aF1607.6080517815749
aa(lp1924
VM-Vegeta SSJ3
p1925
aF1607.6407689140294
aa(lp1926
VDoom Vega
p1927
aF1607.645093904122
aa(lp1928
VJoe Higashi
p1929
aF1607.645093904122
aa(lp1930
VGuile Machine
p1931
aF1607.6490073176449
aa(lp1932
VOmega Tom Hanks
p1933
aF1607.6490073176449
aa(lp1934
VYatogi Tetsu
p1935
aF1607.6566965529134
aa(lp1936
VRaphael
p1937
aF1607.7295370355262
aa(lp1938
VGoku kid_ssj
p1939
aF1607.7550147910513
aa(lp1940
VTest7
p1941
aF1607.820064313271
aa(lp1942
VShuko
p1943
aF1607.820064313271
aa(lp1944
VGoku
p1945
aF1607.821321859865
aa(lp1946
VSlash
p1947
aF1607.8250675261702
aa(lp1948
VGiygas
p1949
aF1607.8290790657013
aa(lp1950
VChosu
p1951
aF1607.8330298350645
aa(lp1952
VBastion
p1953
aF1607.8330298350645
aa(lp1954
VVegeta SSJ4
p1955
aF1607.8330298350645
aa(lp1956
VNega Joe
p1957
aF1607.8485322617796
aa(lp1958
VAndroide 18
p1959
aF1607.9693288978197
aa(lp1960
VVegeta SSJ3
p1961
aF1607.9922020206343
aa(lp1962
VAnnie Murakami
p1963
aF1607.9965126642105
aa(lp1964
Vsilversam\u005csilversam.def
p1965
aF1608.0
aa(lp1966
VBroli ssj4
p1967
aF1608.0
aa(lp1968
VBroli ssj5
p1969
aF1608.0
aa(lp1970
Vkgohanv594
p1971
aF1608.0
aa(lp1972
VNEJI_COSPLAY\u005cNEJI_COSPLAY.def
p1973
aF1608.0
aa(lp1974
VRajaaShiki\u005cRajaaShiki.def
p1975
aF1608.0
aa(lp1976
VRajaaMech-Hisui\u005cRajaaMech-Hisui.def
p1977
aF1608.0
aa(lp1978
VTEST
p1979
aF1608.0
aa(lp1980
Vgokussj4GT
p1981
aF1608.0
aa(lp1982
VTest
p1983
aF1608.0
aa(lp1984
VASH_RMH\u005cASH-ita.def
p1985
aF1608.0
aa(lp1986
VOpening
p1987
aF1608.0
aa(lp1988
Vtrunkssb1v59\u005ctrunkssb1v59.def
p1989
aF1608.0
aa(lp1990
Vmorfo
p1991
aF1608.0
aa(lp1992
Vperfect-cell
p1993
aF1608.0
aa(lp1994
Vshaq
p1995
aF1608.0
aa(lp1996
Vkarin\u005ckarin.def
p1997
aF1608.0
aa(lp1998
VKiller Whale 1
p1999
aF1608.0
aa(lp2000
VGoro
p2001
aF1608.0
aa(lp2002
VClow\u005cShaoran.def
p2003
aF1608.0
aa(lp2004
Vkidgohan\u005ckidgohan.def
p2005
aF1608.0
aa(lp2006
Vgokuk
p2007
aF1608.0
aa(lp2008
VYellow-Pipo
p2009
aF1608.000851479545
aa(lp2010
VMai_K
p2011
aF1608.0194469535602
aa(lp2012
VArmored Gohan
p2013
aF1608.023792313902
aa(lp2014
VMajin Buu
p2015
aF1608.027950194659
aa(lp2016
VShadow Man
p2017
aF1608.033491951137
aa(lp2018
VShadow Vegeta
p2019
aF1608.033491951137
aa(lp2020
VShin Ninja Turtle
p2021
aF1608.033491951137
aa(lp2022
VNormal Chibi Trunks
p2023
aF1608.033491951137
aa(lp2024
VEvil Dan
p2025
aF1608.033491951137
aa(lp2026
VMecha Potemkin
p2027
aF1608.033491951137
aa(lp2028
VRandy M Green
p2029
aF1608.033491951137
aa(lp2030
VLast Adult Goku
p2031
aF1608.033491951137
aa(lp2032
VAnother Iori
p2033
aF1608.040369121709
aa(lp2034
VGohan Grande Normale
p2035
aF1608.180595743736
aa(lp2036
VGohan SSJ4
p2037
aF1608.1841742594847
aa(lp2038
VPerfect Storm X
p2039
aF1608.1849450297184
aa(lp2040
VGogeta SSJ3
p2041
aF1608.2084053466624
aa(lp2042
VAbyss
p2043
aF1608.2317880805479
aa(lp2044
VGoku ssj4
p2045
aF1608.3486905904479
aa(lp2046
VDr Gero
p2047
aF1608.390630601002
aa(lp2048
VMirai Trunks
p2049
aF1608.4015679822148
aa(lp2050
VGiro
p2051
aF1608.4197712285177
aa(lp2052
VMoraga
p2053
aF1608.5072860066703
aa(lp2054
VIron Man
p2055
aF1608.555263745771
aa(lp2056
VGoten GT
p2057
aF1608.7475246668062
aa(lp2058
VEmma Frost
p2059
aF1608.7475246668062
aa(lp2060
VMega Weapon
p2061
aF1608.7629818516916
aa(lp2062
VKyle dunamis
p2063
aF1608.8068492903546
aa(lp2064
VMarvel spider-man
p2065
aF1608.810274993489
aa(lp2066
VCaptain America
p2067
aF1608.8258852441047
aa(lp2068
VAnother Kyo
p2069
aF1609.2092793202783
aa(lp2070
VArrange_kano
p2071
aF1609.224180554835
aa(lp2072
VDark Psylocke
p2073
aF1609.246140107883
aa(lp2074
VBlaze Agent
p2075
aF1609.4210535034085
aa(lp2076
VEvil Ryu
p2077
aF1609.4210535034085
aa(lp2078
VSub-Zero
p2079
aF1609.4545454545455
aa(lp2080
VKazuki
p2081
aF1609.4545454545455
aa(lp2082
VNeo-sephiroth
p2083
aF1609.5399104722349
aa(lp2084
VCless Alvein
p2085
aF1609.6387197140302
aa(lp2086
VCaptain Marvel
p2087
aF1609.6387197140302
aa(lp2088
VKiba
p2089
aF1609.8588261045102
aa(lp2090
VAlien Queen
p2091
aF1609.9241693022902
aa(lp2092
VHina
p2093
aF1609.9442733043675
aa(lp2094
VMiyako yoshika
p2095
aF1610.08883474319
aa(lp2096
VVegeth ssj2
p2097
aF1610.1085541900557
aa(lp2098
VT Kawk
p2099
aF1610.1259073992323
aa(lp2100
VIchigo
p2101
aF1610.1717940597446
aa(lp2102
VKaren na hito
p2103
aF1610.2249203914896
aa(lp2104
VStrong guy
p2105
aF1610.3999011017506
aa(lp2106
VJason todd
p2107
aF1610.6946672954903
aa(lp2108
VMinis mahn
p2109
aF1610.7892540586436
aa(lp2110
VBlack mask
p2111
aF1610.8068302732054
aa(lp2112
VZangief
p2113
aF1611.0319943869483
aa(lp2114
VThe Flash
p2115
aF1611.348352566876
aa(lp2116
VRobo rock
p2117
aF1611.849433396704
aa(lp2118
VAthena asamiya
p2119
aF1612.0049253322545
aa(lp2120
VVita
p2121
aF1612.031867663601
aa(lp2122
VByakuya
p2123
aF1612.09731773508
aa(lp2124
VGogeta ssj2
p2125
aF1612.126409425606
aa(lp2126
VKoopa troopa
p2127
aF1612.445296597689
aa(lp2128
VJess
p2129
aF1612.6993802683166
aa(lp2130
VRimururu
p2131
aF1612.7795547480594
aa(lp2132
VFat albert
p2133
aF1613.0233080381188
aa(lp2134
VRumia
p2135
aF1613.115537895159
aa(lp2136
VGajeel
p2137
aF1613.141471747849
aa(lp2138
VSabretooth
p2139
aF1613.3850416873092
aa(lp2140
VLady deathstrike
p2141
aF1613.5482359270877
aa(lp2142
VNatsu
p2143
aF1613.5737108048793
aa(lp2144
VSeth
p2145
aF1613.9424581416981
aa(lp2146
VArcher
p2147
aF1613.9655259821984
aa(lp2148
VM-vegeta-ssj3
p2149
aF1613.9976211479607
aa(lp2150
VBattle mahoro
p2151
aF1614.0036274637207
aa(lp2152
VYuyuko & youmu
p2153
aF1614.0204721032753
aa(lp2154
VGohan ssj5
p2155
aF1614.1437753503267
aa(lp2156
VHarley quinn
p2157
aF1614.281481497033
aa(lp2158
VEvil ranger
p2159
aF1614.4367579528043
aa(lp2160
VAstaroth
p2161
aF1614.451588094247
aa(lp2162
VRimle
p2163
aF1614.5930866625997
aa(lp2164
VTest3
p2165
aF1614.8103734768551
aa(lp2166
VRoomi
p2167
aF1614.947172491705
aa(lp2168
VMarisa Kirisame
p2169
aF1614.9833843405324
aa(lp2170
VLobo
p2171
aF1615.0110656946256
aa(lp2172
VMajin vegeta ssj6
p2173
aF1615.3102943104984
aa(lp2174
VRin natsume
p2175
aF1615.3485996217548
aa(lp2176
VRyuho
p2177
aF1615.3823034913466
aa(lp2178
VHotaru futaba
p2179
aF1615.4565778416497
aa(lp2180
VViolent Dan
p2181
aF1615.497583814654
aa(lp2182
VVenom scorpion
p2183
aF1615.5643354650522
aa(lp2184
VYellow devil
p2185
aF1615.6217261928257
aa(lp2186
VTyouun Shiryu
p2187
aF1615.640317318588
aa(lp2188
VGreen Latern GG
p2189
aF1615.6802431450558
aa(lp2190
VLeona
p2191
aF1615.742977508846
aa(lp2192
VChaos Hiryu
p2193
aF1615.7645335827085
aa(lp2194
VBlue destiny 2
p2195
aF1615.7817259538147
aa(lp2196
VLi Sheng Long
p2197
aF1615.8084471469501
aa(lp2198
VChibiko
p2199
aF1615.8116825674495
aa(lp2200
VMoleman\u005cMoleman.def
p2201
aF1615.8158257405153
aa(lp2202
VOmega tom hanks
p2203
aF1615.8198713681663
aa(lp2204
VGoku SSJ4 DB Final Bout
p2205
aF1615.8485469214186
aa(lp2206
VMajin Vegeta
p2207
aF1615.8485469214186
aa(lp2208
VBurta
p2209
aF1615.8891757375786
aa(lp2210
VPiccolo
p2211
aF1615.9489890811876
aa(lp2212
VBlack Tiger
p2213
aF1615.995911775027
aa(lp2214
V*Chameleon
p2215
aI1616
aa(lp2216
VG-Rugal
p2217
aI1616
aa(lp2218
VJamian Di Corvus
p2219
aI1616
aa(lp2220
V*Krauser
p2221
aI1616
aa(lp2222
V*Prime Sentinels
p2223
aI1616
aa(lp2224
VSuper Goku
p2225
aI1616
aa(lp2226
VSatsuki Yumiduka
p2227
aI1616
aa(lp2228
VNero Chaos
p2229
aI1616
aa(lp2230
V*Hal Jordan
p2231
aI1616
aa(lp2232
VSSJ3 Broli
p2233
aI1616
aa(lp2234
VNeco-arc Chaos
p2235
aI1616
aa(lp2236
VRedLantern\u005cRedLantern.def
p2237
aI1616
aa(lp2238
VBB Hood
p2239
aI1616
aa(lp2240
VNeo Sephiroth
p2241
aI1616
aa(lp2242
VAracne De Tarantula
p2243
aI1616
aa(lp2244
V*Son Goku
p2245
aI1616
aa(lp2246
VMai Shiranui
p2247
aI1616
aa(lp2248
VEiko Magami
p2249
aI1616
aa(lp2250
VStrider Hiryu
p2251
aI1616
aa(lp2252
VMegaman.EXE
p2253
aI1616
aa(lp2254
V*Saito
p2255
aI1616
aa(lp2256
VGuerrero Divino
p2257
aI1616
aa(lp2258
VGoku Sayajin
p2259
aI1616
aa(lp2260
VFuture Trunks
p2261
aI1616
aa(lp2262
VKurokishi
p2263
aI1616
aa(lp2264
V*Android 16
p2265
aI1616
aa(lp2266
VGohan SSJ3
p2267
aI1616
aa(lp2268
V*Miss Marvel
p2269
aI1616
aa(lp2270
VNanaya Shiki
p2271
aI1616
aa(lp2272
VBlue Destiny 2
p2273
aI1616
aa(lp2274
VKazuya Mishima
p2275
aI1616
aa(lp2276
VGoku SSJ GT
p2277
aI1616
aa(lp2278
VAku Amakusa
p2279
aI1616
aa(lp2280
VOgre Akuma
p2281
aI1616
aa(lp2282
VYumeji Kurokouchi
p2283
aI1616
aa(lp2284
VNagato Yuki
p2285
aI1616
aa(lp2286
VOrochi Iori
p2287
aI1616
aa(lp2288
VKanmi Chan
p2289
aI1616
aa(lp2290
VTara-Gyouza
p2291
aI1616
aa(lp2292
VOnpu Segawa
p2293
aI1616
aa(lp2294
VYoko Yuki
p2295
aI1616
aa(lp2296
VDee Jay
p2297
aI1616
aa(lp2298
VMusashi Akatsuki
p2299
aI1616
aa(lp2300
VTrunks SSJ4
p2301
aI1616
aa(lp2302
VLex Luthor
p2303
aI1616
aa(lp2304
VYellow Devil
p2305
aI1616
aa(lp2306
VStrider Hien
p2307
aI1616
aa(lp2308
V*Heihachi
p2309
aI1616
aa(lp2310
VGohan GT
p2311
aI1616
aa(lp2312
VCyborg Superman
p2313
aI1616
aa(lp2314
VYuki in Midday
p2315
aI1616
aa(lp2316
VMotoko-Aoyama
p2317
aI1616
aa(lp2318
VShiki VP
p2319
aI1616
aa(lp2320
VMr. Bison
p2321
aI1616
aa(lp2322
V*Moleman
p2323
aI1616
aa(lp2324
VLynn Baker
p2325
aI1616
aa(lp2326
VRobo-Kyii
p2327
aI1616
aa(lp2328
VP-Gohan SSJ2
p2329
aI1616
aa(lp2330
VSSJ5 Goku
p2331
aI1616
aa(lp2332
VGreat S man
p2333
aI1616
aa(lp2334
VShiki Tohno
p2335
aI1616
aa(lp2336
VNostalgic ballz
p2337
aI1616
aa(lp2338
VIron Lantern
p2339
aI1616
aa(lp2340
V*Felicia
p2341
aI1616
aa(lp2342
VPrime Sentinels
p2343
aI1616
aa(lp2344
VJimmy Lee
p2345
aI1616
aa(lp2346
VJotaro Kujo
p2347
aI1616
aa(lp2348
VUsapi
p2349
aI1616
aa(lp2350
V*Sagat MB-02
p2351
aI1616
aa(lp2352
VNoriaki Kakyoin
p2353
aI1616
aa(lp2354
VJoseph the BB
p2355
aI1616
aa(lp2356
Vcellhd\u005ccellhd.def
p2357
aI1616
aa(lp2358
VCyborg Mai
p2359
aI1616
aa(lp2360
VSaori - Athena
p2361
aI1616
aa(lp2362
VGreen Lantern JS
p2363
aI1616
aa(lp2364
VViuda Negra
p2365
aI1616
aa(lp2366
VRadish SSJ4
p2367
aI1616
aa(lp2368
VD-Rugal
p2369
aI1616
aa(lp2370
VCyborg_Mai
p2371
aI1616
aa(lp2372
VOozura Vegeta
p2373
aI1616
aa(lp2374
VSaori-Athena
p2375
aI1616
aa(lp2376
VSymbiote onslaught
p2377
aI1616
aa(lp2378
VThe Joker
p2379
aI1616
aa(lp2380
VBlack Cat
p2381
aI1616
aa(lp2382
VBig Chicken
p2383
aI1616
aa(lp2384
VShin Ryu
p2385
aI1616
aa(lp2386
VUltimate Gohan
p2387
aI1616
aa(lp2388
VLisa
p2389
aI1616
aa(lp2390
VMr. Fantastic
p2391
aI1616
aa(lp2392
VRobo Rock
p2393
aI1616
aa(lp2394
VKung Lao
p2395
aI1616
aa(lp2396
V*Warmachine
p2397
aI1616
aa(lp2398
VKen and Gang
p2399
aI1616
aa(lp2400
VGod Yuri
p2401
aI1616
aa(lp2402
VShin Bison
p2403
aI1616
aa(lp2404
VGreat Sayaman
p2405
aI1616
aa(lp2406
VInsane Hiryu
p2407
aI1616
aa(lp2408
VUppercut x2
p2409
aI1616
aa(lp2410
VBomber Man
p2411
aI1616
aa(lp2412
VRyu Plus
p2413
aI1616
aa(lp2414
VGoku Nex
p2415
aI1616
aa(lp2416
VEvil Ken and Ryu
p2417
aI1616
aa(lp2418
V*Cyborg Superman
p2419
aI1616
aa(lp2420
VAmi BF
p2421
aI1616
aa(lp2422
VRobo Ky
p2423
aI1616
aa(lp2424
V*Donovan
p2425
aI1616
aa(lp2426
VSSJ Gohan
p2427
aI1616
aa(lp2428
VGohan Saiya Jin EX
p2429
aI1616
aa(lp2430
VMSakura + PstormX
p2431
aI1616
aa(lp2432
VSadClaps + AltAmiba
p2433
aI1616
aa(lp2434
V*Bullseye
p2435
aI1616
aa(lp2436
V*Kim
p2437
aI1616
aa(lp2438
VMech Hisui
p2439
aI1616
aa(lp2440
VJoseph Joestar
p2441
aI1616
aa(lp2442
VZero Hotaru
p2443
aI1616
aa(lp2444
VCell Frieza
p2445
aI1616
aa(lp2446
VBra 2
p2447
aI1616
aa(lp2448
VJon Talbain
p2449
aI1616
aa(lp2450
VGray Fly 2
p2451
aI1616
aa(lp2452
VDrDoom
p2453
aI1616
aa(lp2454
VMai K
p2455
aI1616
aa(lp2456
VWild Ken Ex
p2457
aI1616
aa(lp2458
VKagami Kyosuke
p2459
aI1616
aa(lp2460
VChibi Ubuu
p2461
aI1616
aa(lp2462
VGinew 1
p2463
aI1616
aa(lp2464
VNorimaru
p2465
aI1616
aa(lp2466
VI-No
p2467
aI1616
aa(lp2468
VHyoga De Cisne
p2469
aI1616
aa(lp2470
VNamek Gohan
p2471
aI1616
aa(lp2472
VDark Chun Li
p2473
aI1616
aa(lp2474
VKoopa Troppa
p2475
aI1616
aa(lp2476
V*Maraiah
p2477
aI1616
aa(lp2478
V*Rajaamaki
p2479
aI1616
aa(lp2480
VNrvnqsr Chaos
p2481
aI1616
aa(lp2482
VManamana
p2483
aI1616
aa(lp2484
V*Kagami Kyosuke
p2485
aI1616
aa(lp2486
VWhite Len
p2487
aI1616
aa(lp2488
VSnake Eyes
p2489
aI1616
aa(lp2490
VCaptain Caveman
p2491
aI1616
aa(lp2492
VAku-Amakusa
p2493
aI1616
aa(lp2494
V*Zangief Maskered
p2495
aI1616
aa(lp2496
VDr. Doom
p2497
aI1616
aa(lp2498
VResume on or after 12:55am
p2499
aI1616
aa(lp2500
VSean Matsuda
p2501
aI1616
aa(lp2502
VSSJ4 Gogeta
p2503
aI1616
aa(lp2504
VWakamoto
p2505
aI1616
aa(lp2506
VMars People
p2507
aI1616
aa(lp2508
VWinnie the Pooh
p2509
aI1616
aa(lp2510
VWing Zero
p2511
aF1616.163474938625
aa(lp2512
VSuper Mario
p2513
aF1616.1760257302128
aa(lp2514
VCheap Boss Type
p2515
aF1616.3324597906906
aa(lp2516
VSuper soldier
p2517
aF1616.3464317085416
aa(lp2518
VRock Volnutt
p2519
aF1616.4086658989334
aa(lp2520
VFat boo
p2521
aF1616.6168787629442
aa(lp2522
VSerika
p2523
aF1616.6544142909274
aa(lp2524
VYuyuko saigyouji
p2525
aF1616.9882608261273
aa(lp2526
VJay Garrick
p2527
aF1617.0335305187705
aa(lp2528
VThe Thing
p2529
aF1617.062201150154
aa(lp2530
VSolid snake
p2531
aF1617.1635743568697
aa(lp2532
VSagat
p2533
aF1617.165315995285
aa(lp2534
VNagato yuki
p2535
aF1617.1711053251454
aa(lp2536
VAmi bf
p2537
aF1617.2570422965325
aa(lp2538
VHiedano akyu
p2539
aF1617.2581302643619
aa(lp2540
VShermie
p2541
aF1617.3193523260559
aa(lp2542
VBatman Beyond
p2543
aF1617.4545454545455
aa(lp2544
VOmega Red
p2545
aF1617.4545454545455
aa(lp2546
VEriol Hiiragizawa
p2547
aF1617.4545454545455
aa(lp2548
VJohnny Cage
p2549
aF1617.4545454545455
aa(lp2550
V*Jay Garrick
p2551
aF1617.4545454545455
aa(lp2552
VVanilla H
p2553
aF1617.4545454545455
aa(lp2554
VPaul Phoenix
p2555
aF1617.4545454545455
aa(lp2556
VKujo Jotaro
p2557
aF1617.4545454545455
aa(lp2558
VM Bison
p2559
aF1617.4545454545455
aa(lp2560
VLion Magnus
p2561
aF1617.4545454545455
aa(lp2562
VMiss Marvel
p2563
aF1617.4545454545455
aa(lp2564
VStrong Guy
p2565
aF1617.4545454545455
aa(lp2566
VR Lilith
p2567
aF1617.4545454545455
aa(lp2568
VZangief Maskered
p2569
aF1617.4545454545455
aa(lp2570
VYoutube Poop Robotnik
p2571
aF1617.4545454545455
aa(lp2572
VHeihachi
p2573
aF1617.4545454545455
aa(lp2574
VOrochi
p2575
aF1617.8559285466938
aa(lp2576
VShocker
p2577
aF1618.2146585087517
aa(lp2578
VOrochi iori
p2579
aF1618.3191574062005
aa(lp2580
VTaki
p2581
aF1618.4051370228128
aa(lp2582
VScarecrow
p2583
aF1618.5860192644216
aa(lp2584
VIk borodin
p2585
aF1618.8810365262984
aa(lp2586
VFuture trunks
p2587
aF1619.0044240274271
aa(lp2588
VVegeta ssj5
p2589
aF1619.237176829664
aa(lp2590
VMr satan
p2591
aF1619.27869892785
aa(lp2592
VIwao
p2593
aF1619.3311446791627
aa(lp2594
V'gou no ken' kenshirou
p2595
aF1619.3526827262804
aa(lp2596
VMimic
p2597
aF1619.5813499621015
aa(lp2598
VDhalsim
p2599
aF1619.7222801916128
aa(lp2600
VBasara
p2601
aF1619.7710178468292
aa(lp2602
VArthas
p2603
aF1619.9102124298806
aa(lp2604
VZombie
p2605
aF1620.0534210961232
aa(lp2606
VSangoku
p2607
aF1620.6720481279854
aa(lp2608
VHanyuu
p2609
aF1620.69532912648
aa(lp2610
VMr.karate
p2611
aF1620.7169119477771
aa(lp2612
VRegina
p2613
aF1620.9182833315294
aa(lp2614
VHayato
p2615
aF1620.9236733541059
aa(lp2616
VKensou
p2617
aF1621.069763557299
aa(lp2618
VWaha-
p2619
aF1621.1121216932813
aa(lp2620
VChomper
p2621
aF1621.2196054161793
aa(lp2622
VBass
p2623
aF1621.2396324122467
aa(lp2624
VCv wakamoto
p2625
aF1621.24601400951
aa(lp2626
VHisame shizumaru
p2627
aF1621.4985969809238
aa(lp2628
VSeravy
p2629
aF1621.7435867759848
aa(lp2630
VNinja megazord
p2631
aF1621.7796745984915
aa(lp2632
VSean matsuda
p2633
aF1621.8227718938983
aa(lp2634
VAchi cirno
p2635
aF1621.9792369047395
aa(lp2636
VSon Gohan
p2637
aF1622.2949262890018
aa(lp2638
VMiko
p2639
aF1622.3043540209449
aa(lp2640
VPaul phoenix
p2641
aF1622.3363527127763
aa(lp2642
VGoku ssj2
p2643
aF1622.6334538608148
aa(lp2644
VLilith
p2645
aF1622.69755581445
aa(lp2646
VVegeta normal 3
p2647
aF1622.7976300799608
aa(lp2648
VKenshin
p2649
aF1622.8178013439601
aa(lp2650
VIsaiah bradley
p2651
aF1622.9425898739132
aa(lp2652
VDora
p2653
aF1623.0229343599312
aa(lp2654
VUltra SSJ5 Vegeta
p2655
aF1623.1041849692574
aa(lp2656
VPerfect Cell
p2657
aF1623.2914497623742
aa(lp2658
VMilan Flare
p2659
aF1623.2951558089576
aa(lp2660
VGengetu
p2661
aF1623.3977957486625
aa(lp2662
VSsj3 goku
p2663
aF1623.4659944935047
aa(lp2664
VVice
p2665
aF1623.5504489199168
aa(lp2666
VGohan zeta
p2667
aF1623.6386107997153
aa(lp2668
VAVDOL VER2001
p2669
aF1623.65972027427
aa(lp2670
VShikieiki yamaxanadu
p2671
aF1623.8480297586696
aa(lp2672
VEvil Ken
p2673
aF1623.8485322617796
aa(lp2674
VAndore Jr
p2675
aF1623.8485322617796
aa(lp2676
VAndroide 17
p2677
aF1623.9402160345935
aa(lp2678
VSuika ibuki
p2679
aF1623.980348958816
aa(lp2680
VHoly Ken
p2681
aF1624.033491951137
aa(lp2682
VWakko
p2683
aF1624.0666018911154
aa(lp2684
VThe Blob
p2685
aF1624.1882185927086
aa(lp2686
VHijiri byakuren
p2687
aF1624.2469689258144
aa(lp2688
VNmori yagami
p2689
aF1624.3198727674999
aa(lp2690
VArrange_remilia
p2691
aF1624.3739082917348
aa(lp2692
VRox Howard Clones
p2693
aF1624.4149550031002
aa(lp2694
VSon gohan
p2695
aF1624.42556320258
aa(lp2696
VJay garrick
p2697
aF1624.6394015247129
aa(lp2698
VMaster Hand
p2699
aF1624.674297665153
aa(lp2700
VMech Zangief
p2701
aF1624.7294493489935
aa(lp2702
VBlack Widow
p2703
aF1624.7721715453201
aa(lp2704
VG Rugal
p2705
aF1624.8786770795525
aa(lp2706
VKing Godzilla
p2707
aF1624.8786770795525
aa(lp2708
VMinis Mahn
p2709
aF1625.237670832597
aa(lp2710
VShiori misaka
p2711
aF1625.2533908973674
aa(lp2712
VMexican Typhoon
p2713
aF1625.4545454545455
aa(lp2714
VDeath Ogre
p2715
aF1625.4545454545455
aa(lp2716
VAkuma
p2717
aF1625.6006790087645
aa(lp2718
VDoomsday
p2719
aF1625.9097796114208
aa(lp2720
VChaos blanka
p2721
aF1625.9171925600028
aa(lp2722
VIggy
p2723
aF1625.9974291842982
aa(lp2724
VZangyura
p2725
aF1626.1038537170762
aa(lp2726
VKaede_hioh
p2727
aF1626.2621662502268
aa(lp2728
VGohan saiya-jin ex
p2729
aF1626.2818362137523
aa(lp2730
VNeco
p2731
aF1626.3445931102829
aa(lp2732
VCactuar
p2733
aF1626.699476383405
aa(lp2734
VAmi
p2735
aF1626.839920767323
aa(lp2736
VBlossom
p2737
aF1626.9381766396393
aa(lp2738
VMichaelangelo
p2739
aF1627.1084868804
aa(lp2740
VVivi_ornitier
p2741
aF1627.419655681709
aa(lp2742
VJack frost
p2743
aF1627.4365316854257
aa(lp2744
VNanoha takamachi
p2745
aF1627.4823273478794
aa(lp2746
VJoe higashi
p2747
aF1627.5408798595674
aa(lp2748
VMedicine melancholy
p2749
aF1627.5663296358966
aa(lp2750
VKung lao
p2751
aF1627.6477992391613
aa(lp2752
VSub-zero
p2753
aF1627.8866009107167
aa(lp2754
VColossus
p2755
aF1627.9093284371102
aa(lp2756
VMinoriko aki
p2757
aF1627.9383921436495
aa(lp2758
VJuan
p2759
aF1628.0119889421444
aa(lp2760
VKira daidoji
p2761
aF1628.1790235359838
aa(lp2762
VChun-li
p2763
aF1628.218085225913
aa(lp2764
VEagle
p2765
aF1628.3523937594043
aa(lp2766
VEiko magami
p2767
aF1628.532328538057
aa(lp2768
VBatman beyond
p2769
aF1628.668962625441
aa(lp2770
VCell junior
p2771
aF1628.892385574537
aa(lp2772
VVegeth@
p2773
aF1629.1610503691895
aa(lp2774
VSakuya_swr
p2775
aF1629.4208240901976
aa(lp2776
VRan yakumo
p2777
aF1629.5686684536647
aa(lp2778
VDare devil
p2779
aF1629.6579530562794
aa(lp2780
VHaohmaru
p2781
aF1629.77069224685
aa(lp2782
VKyo
p2783
aF1629.7834781796787
aa(lp2784
VYumeji kurokouchi
p2785
aF1629.8129665494992
aa(lp2786
VNightcrawler
p2787
aF1629.8428779519209
aa(lp2788
VDio
p2789
aF1629.861592131723
aa(lp2790
VInsane hiryu
p2791
aF1630.2926600730855
aa(lp2792
VKanako yasaka
p2793
aF1630.4641367874367
aa(lp2794
VSon Trunks
p2795
aF1630.7474166579796
aa(lp2796
VBiohazard
p2797
aF1630.7686502598258
aa(lp2798
VShadow Dio
p2799
aF1630.7714218198307
aa(lp2800
VC-19
p2801
aF1630.8209718209441
aa(lp2802
VGodzilla
p2803
aF1631.1855975282194
aa(lp2804
VGoten gt
p2805
aF1631.5270485183376
aa(lp2806
VNagae iku
p2807
aF1631.6010444080766
aa(lp2808
VYoumu konpaku
p2809
aF1631.6060574416626
aa(lp2810
VKuma
p2811
aF1631.6357773413913
aa(lp2812
VBlack adam
p2813
aF1631.7739577623277
aa(lp2814
VJo jo
p2815
aF1631.9521459173425
aa(lp2816
VSSJ4 Goten
p2817
aI1632
aa(lp2818
VKazama Kazuki
p2819
aI1632
aa(lp2820
VZero hotaru
p2821
aI1632
aa(lp2822
VPegAAAAAAsus x2
p2823
aI1632
aa(lp2824
VThe Nightmare
p2825
aI1632
aa(lp2826
VJyakku no keshin dio
p2827
aI1632
aa(lp2828
VYuri di AAAA
p2829
aI1632
aa(lp2830
VJin Saotome
p2831
aI1632
aa(lp2832
VNash Shadow
p2833
aI1632
aa(lp2834
VEliza
p2835
aF1632.1363521571745
aa(lp2836
VFlandre scarlet
p2837
aF1632.2774964835803
aa(lp2838
VE. honda
p2839
aF1632.3059361012392
aa(lp2840
VTrouble man
p2841
aF1632.4579861032796
aa(lp2842
VGalactus
p2843
aF1632.4771090973377
aa(lp2844
VGoku ssj3
p2845
aF1632.5947600348804
aa(lp2846
VMirai trunks
p2847
aF1632.7115409257046
aa(lp2848
VDio di musca
p2849
aF1632.9978837952451
aa(lp2850
VMukai
p2851
aF1633.0055528179494
aa(lp2852
VRyoko asakura
p2853
aF1633.032908107923
aa(lp2854
VDocock
p2855
aF1633.1854596896355
aa(lp2856
VOmega
p2857
aF1633.188377616604
aa(lp2858
VLion(coh)
p2859
aF1633.2674337676583
aa(lp2860
VYuka takeuchi
p2861
aF1633.3241372980906
aa(lp2862
VCirno
p2863
aF1633.401051090762
aa(lp2864
VMegaman
p2865
aF1633.4756107626106
aa(lp2866
VZangief sf4
p2867
aF1633.7583875793327
aa(lp2868
VGod yuri
p2869
aF1633.7828409659728
aa(lp2870
VShizuha aki
p2871
aF1634.102048574418
aa(lp2872
VMajin vegeta
p2873
aF1634.3348950317484
aa(lp2874
VDark phoenix
p2875
aF1634.3417659408005
aa(lp2876
VPowergirl
p2877
aF1634.8960323247816
aa(lp2878
VKohaku
p2879
aF1635.2662245754948
aa(lp2880
VAndore jr
p2881
aF1635.283206774598
aa(lp2882
VRadel
p2883
aF1635.290434783381
aa(lp2884
VLen and w. len
p2885
aF1635.3517447528686
aa(lp2886
VDiablo
p2887
aF1635.4023941941798
aa(lp2888
VYukari_swr
p2889
aF1635.5277851793026
aa(lp2890
VPerfect cell
p2891
aF1635.5424923949329
aa(lp2892
VShaoran lee
p2893
aF1635.7739378836466
aa(lp2894
VSyaoran
p2895
aF1635.8220517907132
aa(lp2896
VArrange_ayu
p2897
aF1635.8349302557217
aa(lp2898
VMillia
p2899
aF1635.9214342390205
aa(lp2900
VKim kaphwan
p2901
aF1636.0742041417798
aa(lp2902
VSuika
p2903
aF1636.1132520260105
aa(lp2904
VChibi naruto
p2905
aF1636.1642901637972
aa(lp2906
VKrusty
p2907
aF1636.2436804028032
aa(lp2908
VIkki
p2909
aF1636.2750892363965
aa(lp2910
VCharlotte
p2911
aF1636.619554090054
aa(lp2912
VKazuya mishima
p2913
aF1636.6476687536485
aa(lp2914
VParasite
p2915
aF1636.708732768758
aa(lp2916
VRed ranger
p2917
aF1637.0673361129925
aa(lp2918
VRyuuoutan
p2919
aF1637.2811719701658
aa(lp2920
VRobocop
p2921
aF1637.3861011327945
aa(lp2922
VYamcha by tomur
p2923
aF1637.4278275779113
aa(lp2924
VElektra
p2925
aF1637.4793855866517
aa(lp2926
VGeese
p2927
aF1637.6166727415575
aa(lp2928
VMima
p2929
aF1637.675011396696
aa(lp2930
VMasta gambit
p2931
aF1637.7997203296172
aa(lp2932
VBridget
p2933
aF1637.9022766898454
aa(lp2934
VIron lantern
p2935
aF1637.9666041859005
aa(lp2936
VRhadamantis
p2937
aF1638.0110707188082
aa(lp2938
VEmerald
p2939
aF1638.3934928696362
aa(lp2940
VKanorin
p2941
aF1638.727273094254
aa(lp2942
VMilan flare
p2943
aF1638.7475594490093
aa(lp2944
VKishima kouma
p2945
aF1639.4750972898298
aa(lp2946
VWalkyrie
p2947
aF1639.590795433358
aa(lp2948
VWild ken ex
p2949
aF1639.6856614462415
aa(lp2950
VServbot
p2951
aF1639.7933148681607
aa(lp2952
VReisen_swr
p2953
aF1639.8753704225996
aa(lp2954
VGoku transformer
p2955
aF1640.1150697553255
aa(lp2956
VDizzy
p2957
aF1640.3414303800391
aa(lp2958
VRin rin
p2959
aF1640.3578115890973
aa(lp2960
VTsugumi
p2961
aF1640.730431046418
aa(lp2962
VKrizalid
p2963
aF1640.780673263175
aa(lp2964
VDoraemon
p2965
aF1640.905059011817
aa(lp2966
VOpera elmer
p2967
aF1641.179463344909
aa(lp2968
VStrider hien
p2969
aF1641.261806384975
aa(lp2970
VOozura vegeta
p2971
aF1641.5960281718865
aa(lp2972
VYun
p2973
aF1641.6700058367799
aa(lp2974
VAura
p2975
aF1641.7435848968134
aa(lp2976
VSon goku
p2977
aF1641.9687352983537
aa(lp2978
VShadow lady
p2979
aF1642.0557460152004
aa(lp2980
VKenpachi
p2981
aF1642.1433955655982
aa(lp2982
VJin kazama
p2983
aF1642.1482764880425
aa(lp2984
VYamame
p2985
aF1642.360571889457
aa(lp2986
VKuando
p2987
aF1642.8213865300684
aa(lp2988
VGoten gt nex
p2989
aF1642.8438556082526
aa(lp2990
VSakura
p2991
aF1643.12541700132
aa(lp2992
VPatchouli_swr
p2993
aF1643.4544629511038
aa(lp2994
VDeath adder
p2995
aF1643.5648375387682
aa(lp2996
VMoleman
p2997
aF1643.944895507461
aa(lp2998
VMaster ryu
p2999
aF1643.963024298351
aa(lp3000
VMystique
p3001
aF1644.1103539537012
aa(lp3002
VArrange_misuzu
p3003
aF1644.1624241155919
aa(lp3004
VAdon
p3005
aF1644.2354124634714
aa(lp3006
VDan
p3007
aF1644.3076498025152
aa(lp3008
VPyron
p3009
aF1644.4189368032173
aa(lp3010
VRalf
p3011
aF1644.6425867522605
aa(lp3012
VDet. garret laurel
p3013
aF1644.8636343189949
aa(lp3014
VSailor uranus
p3015
aF1644.8815406890335
aa(lp3016
VUltimat goku
p3017
aF1644.9425081420554
aa(lp3018
VNamazu
p3019
aF1645.1640946469536
aa(lp3020
VMagneto
p3021
aF1645.4742032618522
aa(lp3022
VDocinho
p3023
aF1645.6641299455032
aa(lp3024
VLei-lei
p3025
aF1645.668184048726
aa(lp3026
VSnake eyes
p3027
aF1645.9282306316013
aa(lp3028
VYukari yakumo
p3029
aF1646.0498181967266
aa(lp3030
VShanghai
p3031
aF1646.1346361979802
aa(lp3032
VCaptain marvel
p3033
aF1646.281836744211
aa(lp3034
VSon Goku
p3035
aF1646.6598618542114
aa(lp3036
VCpu nobunaga
p3037
aF1646.6898225708198
aa(lp3038
VH-duolon
p3039
aF1647.0745328007145
aa(lp3040
VMr. fantastic
p3041
aF1647.0939004389888
aa(lp3042
VRenamon
p3043
aF1647.2406396117976
aa(lp3044
VCommissioner gordon
p3045
aF1647.6060791435152
aa(lp3046
VAoshi
p3047
aF1647.833074289179
aa(lp3048
VSatoko
p3049
aF1647.9731573670617
aa(lp3050
VSaisyuu_dokusyo_bouei_system
p3051
aF1648.321257964584
aa(lp3052
VNormal freeza
p3053
aF1648.3689783102386
aa(lp3054
VKing godzilla
p3055
aF1648.3705633689758
aa(lp3056
VMaraiah
p3057
aF1648.5333898591482
aa(lp3058
VMultiple man
p3059
aF1648.822682768033
aa(lp3060
VTien
p3061
aF1649.044827238041
aa(lp3062
VUnzan&ichirin;
p3063
aF1649.3915723247737
aa(lp3064
VTenma-sama
p3065
aF1649.5905823812168
aa(lp3066
VOrochi akuma
p3067
aF1650.1467463768229
aa(lp3068
VSayuri kurata
p3069
aF1650.236689459999
aa(lp3070
VMegatron
p3071
aF1650.3701170242682
aa(lp3072
VHelion
p3073
aF1650.4904166459876
aa(lp3074
VArchangel
p3075
aF1650.734968655164
aa(lp3076
VAkiha
p3077
aF1650.9964302115511
aa(lp3078
VElla
p3079
aF1651.1588458038764
aa(lp3080
VDuke nukem
p3081
aF1651.2135358760006
aa(lp3082
VHellboy
p3083
aF1651.2231536910551
aa(lp3084
VJamian di corvus
p3085
aF1651.2297169395172
aa(lp3086
VRoll
p3087
aF1651.3985425358683
aa(lp3088
VArrange_shiori
p3089
aF1651.7192774714204
aa(lp3090
VYurika kirishima
p3091
aF1651.7389266913733
aa(lp3092
VGohan ssj3
p3093
aF1651.7671521212176
aa(lp3094
VBlodia
p3095
aF1651.9367433402626
aa(lp3096
VSuper buu
p3097
aF1652.442032153481
aa(lp3098
VRed cyclone
p3099
aF1652.5313923614447
aa(lp3100
VVegeta ssj3
p3101
aF1652.5816925259148
aa(lp3102
VSaint Kyo
p3103
aF1652.6199965403089
aa(lp3104
VVanessa
p3105
aF1653.0303380878481
aa(lp3106
VMugetu
p3107
aF1653.3429699358499
aa(lp3108
VLast adult goku
p3109
aF1653.3835573712543
aa(lp3110
VMarisa kirisame
p3111
aF1653.3945776499295
aa(lp3112
VYoko yuki
p3113
aF1653.665570897594
aa(lp3114
VSonic
p3115
aF1653.6690378147507
aa(lp3116
VHikaru
p3117
aF1653.842327356078
aa(lp3118
VVarnage
p3119
aF1653.9390467835053
aa(lp3120
VKamiccolo
p3121
aF1653.9750631955458
aa(lp3122
VKim
p3123
aF1653.9762593230807
aa(lp3124
VSaito
p3125
aF1654.128457508502
aa(lp3126
VArrange_mishio
p3127
aF1654.4474939529787
aa(lp3128
VSakura Kinomoto
p3129
aF1654.517611932728
aa(lp3130
VMyuu
p3131
aF1655.2683680629198
aa(lp3132
VTeam reimisen
p3133
aF1655.8791554363224
aa(lp3134
VBroly
p3135
aF1655.9341986553227
aa(lp3136
VTizoc
p3137
aF1655.9362708115282
aa(lp3138
VLynn baker
p3139
aF1656.135993669004
aa(lp3140
VRouga(coh)
p3141
aF1656.4019867706554
aa(lp3142
VJ'onn j'onnz
p3143
aF1656.9639745213472
aa(lp3144
VUsapi-
p3145
aF1657.1469474471685
aa(lp3146
VNazrin
p3147
aF1657.2767335323126
aa(lp3148
VThe atom
p3149
aF1657.437902306673
aa(lp3150
VNachi
p3151
aF1657.4681613469934
aa(lp3152
VTessa
p3153
aF1657.525949361262
aa(lp3154
VSatsuki yumiduka
p3155
aF1657.5564777297682
aa(lp3156
VIvy
p3157
aF1657.6711926813675
aa(lp3158
VJabu
p3159
aF1657.7908474276464
aa(lp3160
VBenimaru
p3161
aF1657.8317351876672
aa(lp3162
VCapella
p3163
aF1657.9224627296353
aa(lp3164
VMissmarvel
p3165
aF1658.0924126788714
aa(lp3166
VBlack widow
p3167
aF1658.2611482940608
aa(lp3168
VRikuo
p3169
aF1658.277613414786
aa(lp3170
VMorrigan
p3171
aF1658.6960372566944
aa(lp3172
VAlex
p3173
aF1658.7571403763286
aa(lp3174
VKeel
p3175
aF1659.1329390932995
aa(lp3176
VProfessor x
p3177
aF1659.156058947102
aa(lp3178
VHugo
p3179
aF1659.2848187392185
aa(lp3180
VArrange_unknown
p3181
aF1659.4487867443436
aa(lp3182
VUppercut
p3183
aF1659.7369020803844
aa(lp3184
VSenna vp
p3185
aF1660.040743158603
aa(lp3186
VChang
p3187
aF1660.1348249185378
aa(lp3188
VSonic machine
p3189
aF1660.2071119303882
aa(lp3190
VCheap boss type
p3191
aF1660.5756956103978
aa(lp3192
VMecha potemkin
p3193
aF1660.6056528035665
aa(lp3194
VGonzales
p3195
aF1660.852289584077
aa(lp3196
VMusashi akatsuki
p3197
aF1661.193486238571
aa(lp3198
VIronman
p3199
aF1661.4092729192996
aa(lp3200
VGotenks gt
p3201
aF1661.4484953478623
aa(lp3202
VRyo
p3203
aF1661.5550399740519
aa(lp3204
VOrochimaru
p3205
aF1662.1946772613503
aa(lp3206
VBoo ssj
p3207
aF1662.3232332088407
aa(lp3208
VRyuuguu rena
p3209
aF1662.4543104589484
aa(lp3210
VTen
p3211
aF1662.4945087403055
aa(lp3212
VAyu tsukimiya
p3213
aF1662.8487917347406
aa(lp3214
VEvil homer
p3215
aF1662.9634374448233
aa(lp3216
VYuuka kazami
p3217
aF1663.2247178603543
aa(lp3218
VAku-amakusa
p3219
aF1663.6956828895288
aa(lp3220
VUltra ssj5 vegeta
p3221
aF1663.7358208238838
aa(lp3222
VCammy
p3223
aF1663.848931058742
aa(lp3224
VRare Akuma
p3225
aF1663.8585741212787
aa(lp3226
VGodman
p3227
aF1664.0129948972742
aa(lp3228
VTin's fernandeath
p3229
aF1664.0271465355202
aa(lp3230
VMech-hisui
p3231
aF1664.2672161128792
aa(lp3232
VDeadpool
p3233
aF1664.3737516226704
aa(lp3234
VSilver surfer
p3235
aF1664.461852364356
aa(lp3236
VP. chunli
p3237
aF1664.546090950369
aa(lp3238
VMech gouki
p3239
aF1664.6798718125613
aa(lp3240
VGouken
p3241
aF1665.1050478875663
aa(lp3242
VSetsuna
p3243
aF1665.1522730292772
aa(lp3244
VToron
p3245
aF1665.3574148141624
aa(lp3246
VLei lei
p3247
aF1665.6504038830992
aa(lp3248
VYumemi
p3249
aF1665.7742478393843
aa(lp3250
VGogeta super saiyan 3
p3251
aF1665.960984444677
aa(lp3252
VHotaru
p3253
aF1666.4984406441638
aa(lp3254
VBison
p3255
aF1666.5506232896826
aa(lp3256
VCaptain commando
p3257
aF1666.6725506186274
aa(lp3258
VFranko
p3259
aF1666.7112723416578
aa(lp3260
VSteel
p3261
aF1666.9524271039272
aa(lp3262
VRiot
p3263
aF1666.987511508759
aa(lp3264
VGreen lantern gg
p3265
aF1667.34571281096
aa(lp3266
VOoze-o
p3267
aF1667.485418305018
aa(lp3268
VChun-lee dark bolt
p3269
aF1667.7329295944444
aa(lp3270
VUbu
p3271
aF1667.920847850618
aa(lp3272
VMarvin
p3273
aF1668.1806436612274
aa(lp3274
VFerroman
p3275
aF1668.2732935341187
aa(lp3276
VZappa
p3277
aF1668.2904936006132
aa(lp3278
VGreen arrow
p3279
aF1668.4679314016278
aa(lp3280
VLord zedd
p3281
aF1668.506725237904
aa(lp3282
VJudith
p3283
aF1668.548407053202
aa(lp3284
VGiano
p3285
aF1668.665635135173
aa(lp3286
VKonngara
p3287
aF1668.759784328266
aa(lp3288
VThanos
p3289
aF1668.9396436263467
aa(lp3290
VVanilla h
p3291
aF1668.9444421453352
aa(lp3292
VDeath black shot
p3293
aF1669.067255641604
aa(lp3294
VK'
p3295
aF1669.1094927075228
aa(lp3296
VNightwolf
p3297
aF1669.1936959365294
aa(lp3298
VBatman
p3299
aF1669.3652909134544
aa(lp3300
VJedah
p3301
aF1669.5121123429356
aa(lp3302
VGaits
p3303
aF1670.226520857096
aa(lp3304
VWarachia
p3305
aF1670.8325238649084
aa(lp3306
VKrauser
p3307
aF1671.811724078633
aa(lp3308
VGoku ssj4 db final bout
p3309
aF1671.8851607665797
aa(lp3310
VHaruhi suzumiya
p3311
aF1671.9891745373577
aa(lp3312
VRobin
p3313
aF1672.0288841177917
aa(lp3314
VHyoga de cisne
p3315
aF1672.0967427721253
aa(lp3316
VEsmeralda
p3317
aF1672.4151565395127
aa(lp3318
VRaptor
p3319
aF1673.0254225019278
aa(lp3320
VAoko
p3321
aF1673.244283334688
aa(lp3322
VMai shiranui
p3323
aF1673.268935622781
aa(lp3324
VSoujiro
p3325
aF1673.5581410079558
aa(lp3326
VHaggar
p3327
aF1673.5868871039904
aa(lp3328
VSoulgen
p3329
aF1674.3502753416872
aa(lp3330
VCc iron clara
p3331
aF1674.637621706186
aa(lp3332
VZinc
p3333
aF1674.6776489127617
aa(lp3334
VReptos
p3335
aF1675.5542388754109
aa(lp3336
VJackal
p3337
aF1675.7002117107913
aa(lp3338
VRasetsumaru
p3339
aF1675.9483639532305
aa(lp3340
VUltimate cap
p3341
aF1676.0554407618847
aa(lp3342
VFaust
p3343
aF1676.1748187948558
aa(lp3344
VFrieza
p3345
aF1676.7492505067069
aa(lp3346
VRaiden
p3347
aF1676.8820829669173
aa(lp3348
VSsj three broli
p3349
aF1677.3652566118294
aa(lp3350
VSuper-8
p3351
aF1677.3932380294116
aa(lp3352
VEtrigan
p3353
aF1678.156861208263
aa(lp3354
VBaby bonnie hood
p3355
aF1678.1776393964662
aa(lp3356
VSissy
p3357
aF1678.3461464333652
aa(lp3358
VAnnie murakami
p3359
aF1678.370954947756
aa(lp3360
VShaq
p3361
aF1678.474778184386
aa(lp3362
VAracne de tarantula
p3363
aF1678.522434560425
aa(lp3364
VVertigo
p3365
aF1678.8443356331993
aa(lp3366
VClayface
p3367
aF1678.8956619808334
aa(lp3368
VBin laden
p3369
aF1680.2246067499393
aa(lp3370
VShiki vp
p3371
aF1680.4603496183533
aa(lp3372
VCyborg superman
p3373
aF1680.532478044103
aa(lp3374
VBane
p3375
aF1680.7237260787374
aa(lp3376
VRogue
p3377
aF1680.9871416861392
aa(lp3378
VAndroid 16
p3379
aF1681.1001784720527
aa(lp3380
VKung fu fiunn
p3381
aF1681.3221032003166
aa(lp3382
VCarnage
p3383
aF1681.3930795792915
aa(lp3384
VR. lilith
p3385
aF1681.4529864593892
aa(lp3386
VJean grey
p3387
aF1681.7853993467272
aa(lp3388
VRugal
p3389
aF1682.298023272062
aa(lp3390
VSatsuki
p3391
aF1682.4528152426278
aa(lp3392
VNega joe
p3393
aF1682.6839161721484
aa(lp3394
VMike tyson
p3395
aF1682.92082447433
aa(lp3396
VChameleon
p3397
aF1683.2762138399867
aa(lp3398
VIceman
p3399
aF1683.31526101281
aa(lp3400
VSaiki
p3401
aF1683.3162050214685
aa(lp3402
VVergil
p3403
aF1683.3916048938586
aa(lp3404
VIkkaku
p3405
aF1683.7636553852687
aa(lp3406
VBilly lee
p3407
aF1683.9202127881429
aa(lp3408
VBurter
p3409
aF1684.016552127174
aa(lp3410
VBattousai
p3411
aF1684.0657524328662
aa(lp3412
VRajaayuri
p3413
aF1684.405126125727
aa(lp3414
VOnpu segawa
p3415
aF1684.4453445996314
aa(lp3416
VSuper goku
p3417
aF1684.6920217097613
aa(lp3418
VRoa
p3419
aF1684.7545470702232
aa(lp3420
VShiki tohno
p3421
aF1684.985777533031
aa(lp3422
VMai_k
p3423
aF1685.2237289775917
aa(lp3424
VAlex mercer
p3425
aF1685.2604761594007
aa(lp3426
VEvil soul
p3427
aF1685.2806092337687
aa(lp3428
VHibiki
p3429
aF1685.3187740206163
aa(lp3430
VRandy m. green
p3431
aF1685.516460928742
aa(lp3432
VFordy
p3433
aF1685.606305393968
aa(lp3434
VBlackheart
p3435
aF1686.5559524204778
aa(lp3436
VIronpatriot
p3437
aF1686.6310751389542
aa(lp3438
VVoid
p3439
aF1686.7196154571877
aa(lp3440
VNanoha xp
p3441
aF1686.8555434675677
aa(lp3442
VKazama sogetsu
p3443
aF1686.9286858117189
aa(lp3444
VCharlie
p3445
aF1687.1743949814636
aa(lp3446
VKurihan
p3447
aF1687.373784965476
aa(lp3448
VScream
p3449
aF1687.3806569933565
aa(lp3450
VCloud
p3451
aF1687.7324795844968
aa(lp3452
VClark
p3453
aF1687.8258189089545
aa(lp3454
VKanae
p3455
aF1688.2532961124948
aa(lp3456
VThor
p3457
aF1688.5210116268138
aa(lp3458
VAlien queen
p3459
aF1688.6415067693329
aa(lp3460
VGreen lantern
p3461
aF1688.8005689776667
aa(lp3462
VOgre
p3463
aF1688.8502005300777
aa(lp3464
VCaptain caveman
p3465
aF1688.8930667046948
aa(lp3466
VPoppy
p3467
aF1689.2182375999764
aa(lp3468
VSasquatch
p3469
aF1689.402113665541
aa(lp3470
VOmega tiger woods
p3471
aF1689.5690398189465
aa(lp3472
VMech zangief
p3473
aF1689.713510814815
aa(lp3474
VShadowman cfas
p3475
aF1689.8554225827975
aa(lp3476
VLucky 71113
p3477
aF1689.9013663593407
aa(lp3478
VRyu plus
p3479
aF1690.4523597148127
aa(lp3480
VSpiderman
p3481
aF1690.9943640271401
aa(lp3482
VBishop
p3483
aF1691.3359844901188
aa(lp3484
VNail
p3485
aF1691.3530011748774
aa(lp3486
VViolent dan
p3487
aF1692.4771881743284
aa(lp3488
VSad claps
p3489
aF1692.8815127376251
aa(lp3490
VArmored gohan
p3491
aF1692.9037399110994
aa(lp3492
VSodom
p3493
aF1693.704386685589
aa(lp3494
VIchi
p3495
aF1693.7215857399974
aa(lp3496
VBerserk
p3497
aF1694.1626367625636
aa(lp3498
VLilith aensland
p3499
aF1694.1747791320688
aa(lp3500
VOozura bebi
p3501
aF1694.4082459450271
aa(lp3502
VGhost rider
p3503
aF1694.4418748066207
aa(lp3504
VMephisto
p3505
aF1694.5028563282806
aa(lp3506
VSquall
p3507
aF1695.5859086230869
aa(lp3508
VRare akuma
p3509
aF1696.5579380456415
aa(lp3510
VSailor jupiter
p3511
aF1696.6846429791194
aa(lp3512
VWonder woman
p3513
aF1697.4379998427432
aa(lp3514
VCrystal
p3515
aF1697.6461525903924
aa(lp3516
VShin kazuma
p3517
aF1697.7094567286445
aa(lp3518
VYamazaki 71113
p3519
aF1697.7615924707525
aa(lp3520
VMorph
p3521
aF1698.0284840188783
aa(lp3522
VKraken
p3523
aF1698.1481539752785
aa(lp3524
VStrider hiryu
p3525
aF1698.1774297289937
aa(lp3526
VEriol hiiragizawa
p3527
aF1698.2547562730092
aa(lp3528
VAgony
p3529
aF1698.3053166625698
aa(lp3530
VWolverine
p3531
aF1698.609130515943
aa(lp3532
VRajaamaki
p3533
aF1699.1984382072778
aa(lp3534
VDink smallwood
p3535
aF1699.7699719767281
aa(lp3536
VWonderman
p3537
aF1699.9946423185875
aa(lp3538
VPyro
p3539
aF1700.0856977370665
aa(lp3540
VJin saotome
p3541
aF1700.1165422870058
aa(lp3542
VShin gouki
p3543
aF1701.1982378152757
aa(lp3544
VBlack tiger
p3545
aF1701.2369303472783
aa(lp3546
VSion
p3547
aF1701.3167004974634
aa(lp3548
VTalon
p3549
aF1701.318015224273
aa(lp3550
VK9999
p3551
aF1701.5000200865131
aa(lp3552
VSailor venus
p3553
aF1701.7071954399973
aa(lp3554
VGoenitz
p3555
aF1702.3391200666854
aa(lp3556
VCaptain america
p3557
aF1702.551741585396
aa(lp3558
VM. bison
p3559
aF1703.1410754343185
aa(lp3560
VThe thing
p3561
aF1703.740876628992
aa(lp3562
VReptile
p3563
aF1703.7742371399277
aa(lp3564
VNakoruru
p3565
aF1703.7866162404985
aa(lp3566
VGuy
p3567
aF1703.8294538135428
aa(lp3568
VSuper metroid
p3569
aF1704.051101517816
aa(lp3570
VDonald
p3571
aF1704.2214195479298
aa(lp3572
VCable
p3573
aF1704.6724809839936
aa(lp3574
VDr.gero
p3575
aF1705.0411688092422
aa(lp3576
VDooby dummy
p3577
aF1705.0763543509738
aa(lp3578
VMongul
p3579
aF1705.23053179353
aa(lp3580
VMexican typhoon
p3581
aF1705.305381263339
aa(lp3582
VDemitri
p3583
aF1705.8072125082654
aa(lp3584
VHato sabure
p3585
aF1706.3438887601574
aa(lp3586
VKouryu
p3587
aF1706.957817764946
aa(lp3588
VIori 71113
p3589
aF1706.9975285378453
aa(lp3590
VBlaze agent
p3591
aF1707.3930643793467
aa(lp3592
VApocalypse
p3593
aF1707.7657867246098
aa(lp3594
VLayla
p3595
aF1707.8429304795327
aa(lp3596
VRock
p3597
aF1707.9063530979624
aa(lp3598
VShadow dio
p3599
aF1707.9580133278835
aa(lp3600
VDiablo_skeleton
p3601
aF1708.8921471036485
aa(lp3602
VJimmy lee
p3603
aF1709.2097944865732
aa(lp3604
VCyclops
p3605
aF1709.250487117852
aa(lp3606
VUltron
p3607
aF1709.944817581583
aa(lp3608
VE-terry 71113
p3609
aF1709.9524840108156
aa(lp3610
VEvil ryu
p3611
aF1710.400604202783
aa(lp3612
VArcueid
p3613
aF1710.7978328551512
aa(lp3614
VLavos spawn
p3615
aF1711.3463180218441
aa(lp3616
VChizuru kagura
p3617
aF1711.5329357303012
aa(lp3618
VOrochi vega
p3619
aF1711.8940607415016
aa(lp3620
VOssan
p3621
aF1711.9665289183076
aa(lp3622
VMb-02
p3623
aF1711.9828342738554
aa(lp3624
VWarakia
p3625
aF1713.4755253438802
aa(lp3626
VSentinel
p3627
aF1713.509171719303
aa(lp3628
VMature
p3629
aF1714.0399590251989
aa(lp3630
VDr.doom
p3631
aF1714.3948070985014
aa(lp3632
VYue
p3633
aF1714.5567371871903
aa(lp3634
VThe flash
p3635
aF1714.5719494968487
aa(lp3636
VSynn
p3637
aF1714.606784648507
aa(lp3638
VSuper skrull
p3639
aF1714.9065993294694
aa(lp3640
VTerry bogard
p3641
aF1714.9945296913615
aa(lp3642
VAnakaris
p3643
aF1715.6832756934439
aa(lp3644
VOgre akuma
p3645
aF1715.8520811505846
aa(lp3646
VHulk
p3647
aF1716.5029382951352
aa(lp3648
VDeath ogre
p3649
aF1716.5871021169185
aa(lp3650
VKamek
p3651
aF1718.5011673845709
aa(lp3652
VHomero
p3653
aF1718.6976599321115
aa(lp3654
VOrchid
p3655
aF1719.3095214609857
aa(lp3656
VHisui
p3657
aF1720.041495894531
aa(lp3658
VRamon 71113
p3659
aF1720.1117688570778
aa(lp3660
VSegalow
p3661
aF1720.3111828005688
aa(lp3662
VSuper androide 17 hd
p3663
aF1720.3894480748297
aa(lp3664
VJohnny cage
p3665
aF1720.734544401023
aa(lp3666
VEvil dan
p3667
aF1721.331691245328
aa(lp3668
VNrvnqsr chaos
p3669
aF1721.6833288248156
aa(lp3670
VHel'lauren
p3671
aF1721.9399943448518
aa(lp3672
VSymbiote spider-man
p3673
aF1722.2937852844702
aa(lp3674
VBroken
p3675
aF1722.7788386193529
aa(lp3676
VGideon
p3677
aF1722.7987021280278
aa(lp3678
VFlonne
p3679
aF1722.8714445949422
aa(lp3680
VAngus
p3681
aF1723.1276876444476
aa(lp3682
VKazama kazuki
p3683
aF1723.16164964022
aa(lp3684
VDragon claw
p3685
aF1723.2683467084848
aa(lp3686
VDonovan
p3687
aF1724.583108601264
aa(lp3688
VKanna
p3689
aF1725.221397082422
aa(lp3690
VSpiral
p3691
aF1726.6109671406894
aa(lp3692
VZeeky h. bomb
p3693
aF1727.197055554074
aa(lp3694
VRai
p3695
aF1727.5060997530823
aa(lp3696
VNeco-arc
p3697
aF1727.5261337930613
aa(lp3698
VMarrow
p3699
aF1728.5045859994505
aa(lp3700
VSasuke kun
p3701
aF1728.5710578774986
aa(lp3702
VMs. fanservice
p3703
aF1728.8331160188116
aa(lp3704
VMaster hand
p3705
aF1729.0194189962572
aa(lp3706
VChiel
p3707
aF1729.1959054515064
aa(lp3708
VNaruto kun
p3709
aF1729.3849041914982
aa(lp3710
VDrdoom
p3711
aF1729.5238259446758
aa(lp3712
VLex luthor
p3713
aF1729.5892820709757
aa(lp3714
VT. kawk
p3715
aF1730.9161295918748
aa(lp3716
VSuper mario
p3717
aF1732.060388415572
aa(lp3718
VGoku nex
p3719
aF1732.175324370312
aa(lp3720
VShishio
p3721
aF1732.330890731061
aa(lp3722
VSonson
p3723
aF1732.4561968313972
aa(lp3724
VJuggernaut
p3725
aF1732.622732936583
aa(lp3726
VOverlord
p3727
aF1732.7234679913681
aa(lp3728
VHyper neo-kamek
p3729
aF1733.3057405997488
aa(lp3730
VSaori - athena
p3731
aF1734.4960847649786
aa(lp3732
VKoryu
p3733
aF1735.857057911908
aa(lp3734
VMisty
p3735
aF1736.5970289633665
aa(lp3736
VCless alvein
p3737
aF1736.7442832619895
aa(lp3738
VG-akiha
p3739
aF1737.3213190334532
aa(lp3740
VGohan ssj4
p3741
aF1737.7135849727283
aa(lp3742
VWell
p3743
aF1738.0968027892345
aa(lp3744
VBullseye
p3745
aF1738.3223046060477
aa(lp3746
VThe blob
p3747
aF1738.778433497224
aa(lp3748
VNero
p3749
aF1739.004108052028
aa(lp3750
VDarkseid
p3751
aF1740.1548041510002
aa(lp3752
VRonald
p3753
aF1741.3208176240287
aa(lp3754
VBarney
p3755
aF1742.4585283266329
aa(lp3756
VMaster sakura
p3757
aF1742.809544947636
aa(lp3758
VPerfect storm x
p3759
aF1743.7122417052474
aa(lp3760
VLion magnus
p3761
aF1743.9223695937812
aa(lp3762
VMega weapon
p3763
aF1744.29363646974
aa(lp3764
VThe dazzler
p3765
aF1744.8746926808521
aa(lp3766
VSaint kyo
p3767
aF1746.6227082307635
aa(lp3768
VRock volnutt
p3769
aF1747.103560130587
aa(lp3770
VGohan  grande normale
p3771
aF1748.4211118540009
aa(lp3772
VGhetto warmachine
p3773
aF1748.5974774470335
aa(lp3774
VChaos hiryu
p3775
aF1748.6766686345386
aa(lp3776
VOnslaught
p3777
aF1749.0146755787982
aa(lp3778
VRadish ssj4
p3779
aF1751.1810451791664
aa(lp3780
VSsj5 goku
p3781
aF1752.2827572959668
aa(lp3782
VSilversamurai
p3783
aF1752.7983339836771
aa(lp3784
VDaimon 71113
p3785
aF1755.7879913156205
aa(lp3786
VPatchouli
p3787
aF1757.070444901228
aa(lp3788
VG rugal
p3789
aF1758.8137837300662
aa(lp3790
VRemilia
p3791
aF1759.838610221837
aa(lp3792
VMishio
p3793
aF1759.9400751870319
aa(lp3794
VHoly ken
p3795
aF1764.1989384761332
aa(lp3796
VKiller whale
p3797
aF1766.4634115655035
aa(lp3798
VShuma gorath
p3799
aF1772.597584856538
aa(lp3800
VPossessed heita
p3801
aF1780.5339066905703
aa(lp3802
VSandman
p3803
aF1781.614024102034
aa(lp3804
VAlter amiba
p3805
aF1784.0909719129054
aa(lp3806
VSakura kinomoto
p3807
aF1784.2049046558911
aa(lp3808
VRyu
p3809
aF1788.4882931493853
aa(lp3810
VEvil ken
p3811
aF1818.1054288282621
aatp3812
Rp3813
.