(lp0
(VDinozord
p1
VRaditz
p2
tp3
a(VNanoha takamachi
p4
VTiger
p5
VNanoha takamachi
p6
tp7
a(VEvil ryu
p8
VHobgoblin
p9
VEvil ryu
p10
tp11
a(VVegeta ssj1
p12
VMaster hand
p13
VMaster hand
p14
tp15
a(VRyu hayabusa
p16
VAlex mercer
p17
VAlex mercer
p18
tp19
a(VKira daidoji
p20
VBizarro
p21
VKira daidoji
p22
tp23
a(VTen
p24
VTron bonne
p25
VTen
p26
tp27
a(VAraki runa
p28
VKyo
p29
VKyo
p30
tp31
a(VP. chunli
p32
VSponge bob
p33
VP. chunli
p34
tp35
a(VGray fly
p36
VTabasa
p37
VGray fly
p38
tp39
a(VGogeta ssj4
p40
VRen_idagawa
p41
VGogeta ssj4
p42
tp43
a(VCartman
p44
VDrill asamin
p45
VCartman
p46
tp47
a(VGeese
p48
VAmy
p49
VGeese
p50
tp51
a(VJuggernaut
p52
VChun-lee dark bolt
p53
VChun-lee dark bolt
p54
tp55
a(VAlice
p56
VSagat
p57
VSagat
p58
tp59
a(VJamian di corvus
p60
VSuwako moriya
p61
VJamian di corvus
p62
tp63
a(VH-duolon
p64
VMech-hisui
p65
VH-duolon
p66
tp67
a(VShin bison
p68
VNightwolf
p69
VNightwolf
p70
tp71
a(VHyper buu
p72
VSuper soldier
p73
VSuper soldier
p74
tp75
a(VMiko
p76
VAeris ;or if you prefer, use aerith
p77
VMiko
p78
tp79
a(VLen and w. len
p80
VT.hawk
p81
VLen and w. len
p82
tp83
a(VRock howard
p84
VWindows me
p85
VRock howard
p86
tp87
a(VGoku ssj5
p88
VBrimstone
p89
VGoku ssj5
p90
tp91
a(VSasquatch
p92
VGonzales
p93
VGonzales
p94
tp95
a(VDio di musca
p96
VManbou
p97
VDio di musca
p98
tp99
a(VDeath black shot
p100
VKen
p101
VDeath black shot
p102
tp103
a(VBaitang
p104
VAsh
p105
VBaitang
p106
tp107
a(VT.hawk
p108
VChris
p109
VChris
p110
tp111
a(VPsylocke
p112
VPsychopath kyo
p113
VPsychopath kyo
p114
tp115
a(VKyo
p116
VBurter
p117
VBurter
p118
tp119
a(VMaster sakura
p120
V98se
p121
VMaster sakura
p122
tp123
a(VSuperman
p124
VBass
p125
VBass
p126
tp127
a(VMech zangief
p128
VSuper androide 17 hd
p129
VSuper androide 17 hd
p130
tp131
a(VAchi cirno
p132
VKurama
p133
VAchi cirno
p134
tp135
a(VStorm
p136
VDarkseid
p137
VDarkseid
p138
tp139
a(VGoten gt nex
p140
VNanase(+d)&mayu;
p141
VGoten gt nex
p142
tp143
a(VBlue ranger
p144
VRobin
p145
VRobin
p146
tp147
a(VRaoh
p148
VTeam nicktoon
p149
VTeam nicktoon
p150
tp151
a(VAthena asamiya
p152
VSissy
p153
VSissy
p154
tp155
a(VCaptain ginyu
p156
VP. chunli
p157
VP. chunli
p158
tp159
a(VDiablo
p160
VBaiken
p161
VDiablo
p162
tp163
a(V2ban-tan
p164
VGreen ranger
p165
VGreen ranger
p166
tp167
a(VHel'lauren
p168
VButt-head
p169
VHel'lauren
p170
tp171
a(VChise
p172
VGato
p173
VGato
p174
tp175
a(VHomero
p176
VRiot
p177
VHomero
p178
tp179
a(VCartman
p180
VMoleman
p181
VMoleman
p182
tp183
a(VGideon
p184
VOrochi
p185
VGideon
p186
tp187
a(VRouga_zanma
p188
VAthena
p189
VAthena
p190
tp191
a(VRyu
p192
VEvil ken
p193
VEvil ken
p194
tp195
a(VAsh
p196
VBeast
p197
VBeast
p198
tp199
a(VRyu hayabusa
p200
VDudley
p201
VRyu hayabusa
p202
tp203
a(VNamazu
p204
VShin scrub ken
p205
VNamazu
p206
tp207
a(VSpenoza
p208
VGarfield
p209
VSpenoza
p210
tp211
a(VAnakaris
p212
VMeirin
p213
VAnakaris
p214
tp215
a(VAkane satomura
p216
VVegeta ssj1
p217
VAkane satomura
p218
tp219
a(VJay garrick
p220
VSakura kinomoto
p221
VSakura kinomoto
p222
tp223
a(VAndroid 18
p224
VJay garrick
p225
VJay garrick
p226
tp227
a(VMr. fantastic
p228
VAthena
p229
VMr. fantastic
p230
tp231
a(VBroken
p232
VKurama
p233
VBroken
p234
tp235
a(VTayuya
p236
VGajeel
p237
VGajeel
p238
tp239
a(VOgitafanada
p240
VZero
p241
VZero
p242
tp243
a(VSuperman
p244
VBrainiac
p245
VSuperman
p246
tp247
a(VSandman
p248
VClayface
p249
VSandman
p250
tp251
a(VAsh
p252
VPoison
p253
VAsh
p254
tp255
a(VSasquatch
p256
VEvil soul
p257
VEvil soul
p258
tp259
a(VMagneto
p260
VAoi-ko
p261
VMagneto
p262
tp263
a(VMamizou
p264
VVegeta ssj3
p265
VVegeta ssj3
p266
tp267
a(VKohaku
p268
VKagome
p269
VKohaku
p270
tp271
a(VDarkseid
p272
VHideo&kyoko;
p273
VDarkseid
p274
tp275
a(VGokussj4d
p276
VDeath ogre
p277
VDeath ogre
p278
tp279
a(VRyu
p280
VGreen ranger
p281
VRyu
p282
tp283
a(VMagus
p284
VRaphael
p285
VRaphael
p286
tp287
a(VBurai_yamamoto
p288
VThe joker
p289
VThe joker
p290
tp291
a(VJudgement
p292
VSaint kyo
p293
VSaint kyo
p294
tp295
a(VBerserk
p296
VEri_hasumi
p297
VBerserk
p298
tp299
a(VAsh
p300
VCc iron clara
p301
VCc iron clara
p302
tp303
a(VEvil homer
p304
VRaoh
p305
VEvil homer
p306
tp307
a(VRyu
p308
VSuperman
p309
VRyu
p310
tp311
a(VKosmos
p312
VScarlet witch
p313
VKosmos
p314
tp315
a(VMarvin
p316
VOozura bebi
p317
VMarvin
p318
tp319
a(VCell
p320
VKen
p321
VCell
p322
tp323
a(VBlockhead
p324
VCaptain ginyu
p325
VBlockhead
p326
tp327
a(VModoi-san
p328
VAlter amiba
p329
VAlter amiba
p330
tp331
a(VSuper androide 17 hd
p332
VSuper sonic
p333
VSuper androide 17 hd
p334
tp335
a(VHibiki
p336
VEriol hiiragizawa
p337
VEriol hiiragizawa
p338
tp339
a(VVice
p340
VNenaikodareda
p341
VVice
p342
tp343
a(VChibi naruto
p344
VNobunaga
p345
VChibi naruto
p346
tp347
a(VChang
p348
VHobgoblin
p349
VChang
p350
tp351
a(VMiyazato erika
p352
VKuma
p353
VKuma
p354
tp355
a(VMaster ryu
p356
VSon gohan
p357
VMaster ryu
p358
tp359
a(VHads
p360
VRayman
p361
VRayman
p362
tp363
a(VAthena
p364
VSaisyuu_dokusyo_bouei_system
p365
VSaisyuu_dokusyo_bouei_system
p366
tp367
a(VTeam nicktoon
p368
VZemial
p369
VTeam nicktoon
p370
tp371
a(VThe nightmare
p372
VChange dragon
p373
VChange dragon
p374
tp375
a(VFuture trunks
p376
VThe blob
p377
VThe blob
p378
tp379
a(VTalon
p380
VDora
p381
VTalon
p382
tp383
a(VMarie
p384
VHikaru
p385
VHikaru
p386
tp387
a(VSquall
p388
VKrizalid
p389
VKrizalid
p390
tp391
a(VW len ar
p392
VFlonne
p393
VFlonne
p394
tp395
a(VIkki
p396
VJo jo
p397
VIkki
p398
tp399
a(VSayuri kurata
p400
VMega gohan
p401
VSayuri kurata
p402
tp403
a(VWarachia
p404
VAnakaris
p405
VAnakaris
p406
tp407
a(VNaruto kun
p408
VSakura kinomoto
p409
VSakura kinomoto
p410
tp411
a(VAthena asamiya
p412
VInvisible woman
p413
VAthena asamiya
p414
tp415
a(VAsh
p416
VFlash
p417
VAsh
p418
tp419
a(VMiyazato erika
p420
VAoko
p421
VAoko
p422
tp423
a(VGohan ssj2
p424
VTetuwo
p425
VTetuwo
p426
tp427
a(VAku-amakusa
p428
VEvil ryu
p429
VEvil ryu
p430
tp431
a(VRaoh
p432
VGod ken
p433
VRaoh
p434
tp435
a(VIceman
p436
VLunasa prismriver
p437
VIceman
p438
tp439
a(VKrillin
p440
VXanmi chan
p441
VKrillin
p442
tp443
a(VCyclops
p444
VLast adult goku
p445
VCyclops
p446
tp447
a(VSakon
p448
VMarvin
p449
VMarvin
p450
tp451
a(VSakura kinomoto
p452
VKim
p453
VSakura kinomoto
p454
tp455
a(VYang
p456
VAnnie murakami
p457
VAnnie murakami
p458
tp459
a(VSakura shingouji
p460
VMorgiana
p461
VSakura shingouji
p462
tp463
a(VDocock
p464
VWarmachine
p465
VDocock
p466
tp467
a(VNeco-arc
p468
VKuando
p469
VNeco-arc
p470
tp471
a(VSponge bob
p472
VFlonne
p473
VFlonne
p474
tp475
a(VSakura
p476
VSilver horns
p477
VSakura
p478
tp479
a(VSissy
p480
VMedoi-san
p481
VSissy
p482
tp483
a(VSpider-man 2099
p484
VReptile
p485
VReptile
p486
tp487
a(VRock volnutt
p488
VNeyufeulle
p489
VRock volnutt
p490
tp491
a(VMakoto
p492
VShin gouki
p493
VShin gouki
p494
tp495
a(VBasara
p496
VTien
p497
VBasara
p498
tp499
a(VMr. fantastic
p500
VGogeta ssj4
p501
VMr. fantastic
p502
tp503
a(VUzumaki naruto
p504
VBlaster
p505
VUzumaki naruto
p506
tp507
a(VHeika
p508
VMedicine melancholy
p509
VMedicine melancholy
p510
tp511
a(VMech gouki
p512
VGohan school
p513
VMech gouki
p514
tp515
a(VOmega red
p516
VSinki
p517
VOmega red
p518
tp519
a(VSub-zero
p520
VJimmy lee
p521
VJimmy lee
p522
tp523
a(VAmi bf
p524
VKrusty
p525
VKrusty
p526
tp527
a(VJ'onn j'onnz
p528
VBoulma
p529
VJ'onn j'onnz
p530
tp531
a(VAsahina mikuru
p532
VSagat
p533
VSagat
p534
tp535
a(VFio
p536
VKung lao
p537
VKung lao
p538
tp539
a(VCarnage
p540
VGobotenn
p541
VCarnage
p542
tp543
a(VNeco-arc chaos
p544
VLucca
p545
VNeco-arc chaos
p546
tp547
a(VVegeta
p548
VAdon
p549
VVegeta
p550
tp551
a(VM. bison
p552
VNrvnqsr chaos
p553
VM. bison
p554
tp555
a(VAxl
p556
VSango
p557
VAxl
p558
tp559
a(VPlastic man
p560
VRanma saotome
p561
VPlastic man
p562
tp563
a(VEri_hasumi
p564
VCaptain ginyu
p565
VCaptain ginyu
p566
tp567
a(VAkane satomura
p568
VGoten gt nex
p569
VGoten gt nex
p570
tp571
a(VGogeta ssj4
p572
VMishio
p573
VMishio
p574
tp575
a(VJason todd
p576
VBojack
p577
VJason todd
p578
tp579
a(VHanyuu
p580
VSsj4gohan
p581
VHanyuu
p582
tp583
a(VJin saotome
p584
VAxl
p585
VJin saotome
p586
tp587
a(VRyu plus
p588
VBig chicken
p589
VRyu plus
p590
tp591
a(VKraken
p592
VOozaru
p593
VKraken
p594
tp595
a(VCloud
p596
VPossessed heita
p597
VPossessed heita
p598
tp599
a(V95
p600
VEvil ryu
p601
VEvil ryu
p602
tp603
a(VBlaze agent
p604
VBlack adam
p605
VBlaze agent
p606
tp607
a(VMarrow
p608
VOrochi akuma
p609
VOrochi akuma
p610
tp611
a(VHal jordan
p612
VNamazu
p613
VNamazu
p614
tp615
a(VDragon claw
p616
VCartman
p617
VDragon claw
p618
tp619
a(VMaximum frieza
p620
VSasquatch
p621
VSasquatch
p622
tp623
a(VTapion
p624
VBulleta
p625
VBulleta
p626
tp627
a(VFirebrand
p628
VRouga_zanma
p629
VFirebrand
p630
tp631
a(VAsuta-san
p632
VT.hawk
p633
VT.hawk
p634
tp635
a(VRobo-ky
p636
VDante
p637
VRobo-ky
p638
tp639
a(VRemilia
p640
VDark ash
p641
VRemilia
p642
tp643
a(VKanorin
p644
VBlack adam
p645
VKanorin
p646
tp647
a(VAnother jissou seki
p648
VM.bison
p649
VM.bison
p650
tp651
a(VWinnie the pooh
p652
VWaha-
p653
VWaha-
p654
tp655
a(VJabu
p656
VAlex
p657
VAlex
p658
tp659
a(VGoku normal hd
p660
VSolid snake
p661
VSolid snake
p662
tp663
a(VAnna
p664
VSailor neptune
p665
VAnna
p666
tp667
a(VVenom
p668
VThe atom
p669
VThe atom
p670
tp671
a(VMagneto
p672
VMarco
p673
VMagneto
p674
tp675
a(VOpera elmer
p676
VVega
p677
VOpera elmer
p678
tp679
a(VDeadpool
p680
VSoulgen
p681
VSoulgen
p682
tp683
a(VRyoko asakura
p684
VSpiderman
p685
VRyoko asakura
p686
tp687
a(VRed tornado
p688
VDoraemon
p689
VDoraemon
p690
tp691
a(VMexican typhoon
p692
VGoku sayajin
p693
VMexican typhoon
p694
tp695
a(VClark steel
p696
VR. lilith
p697
VR. lilith
p698
tp699
a(VRouga_zanma
p700
VAdon
p701
VAdon
p702
tp703
a(VDespero
p704
VMature
p705
VMature
p706
tp707
a(VAnother kyo
p708
VHel'lauren
p709
VHel'lauren
p710
tp711
a(VSuperman
p712
VEvil ryu
p713
VEvil ryu
p714
tp715
a(VYuugi
p716
VGrover
p717
VYuugi
p718
tp719
a(VSakura
p720
VVegeta
p721
VSakura
p722
tp723
a(VGreen goblin
p724
VSymbiote spider-man
p725
VSymbiote spider-man
p726
tp727
a(VMega vegeta
p728
VSasuke
p729
VSasuke
p730
tp731
a(VZaku
p732
VSsj4gohan
p733
VZaku
p734
tp735
a(VOrochi vega
p736
VMongul
p737
VMongul
p738
tp739
a(VSean matsuda
p740
VMugetu
p741
VMugetu
p742
tp743
a(VLex luthor
p744
VYuyuko saigyouji
p745
VLex luthor
p746
tp747
a(VSyo hayate
p748
VAmi
p749
VAmi
p750
tp751
a(VThe dazzler
p752
VOrchid
p753
VOrchid
p754
tp755
a(VKnuckles
p756
VSanzou_kongoumaru
p757
VKnuckles
p758
tp759
a(VGreen arrow
p760
VDan
p761
VGreen arrow
p762
tp763
a(VNrvnqsr chaos
p764
VChun-li
p765
VChun-li
p766
tp767
a(VSaint kyo
p768
VElektra
p769
VSaint kyo
p770
tp771
a(V(sman)
p772
VWarakia
p773
VWarakia
p774
tp775
a(VYamcha by tomur
p776
VNeji
p777
VYamcha by tomur
p778
tp779
a(VJean grey
p780
VKogasa
p781
VJean grey
p782
tp783
a(VKen
p784
VNrvnqsr chaos
p785
VNrvnqsr chaos
p786
tp787
a(VSnoopy
p788
VNrvnqsr chaos
p789
VNrvnqsr chaos
p790
tp791
a(VDespero
p792
VDarkon
p793
VDespero
p794
tp795
a(VSailor mars
p796
VNagae iku
p797
VNagae iku
p798
tp799
a(VRemilia
p800
VGouken
p801
VRemilia
p802
tp803
a(VSuigintou
p804
VTewi_inaba
p805
VTewi_inaba
p806
tp807
a(VNanoha xp
p808
VAngus
p809
VNanoha xp
p810
tp811
a(VSupergirl
p812
VPolaris
p813
VSupergirl
p814
tp815
a(VReptile
p816
VLady deathstrike
p817
VReptile
p818
tp819
a(VFerroman
p820
VRaiden
p821
VFerroman
p822
tp823
a(VCaptain marvel
p824
VBlodia
p825
VBlodia
p826
tp827
a(VKoola
p828
VHomero
p829
VHomero
p830
tp831
a(VAlessi
p832
VGotenks ssj
p833
VGotenks ssj
p834
tp835
a(VMay
p836
VDiablo_skeleton
p837
VDiablo_skeleton
p838
tp839
a(VChibi goku
p840
VW len ar
p841
VW len ar
p842
tp843
a(VSegalow
p844
VMishio
p845
VMishio
p846
tp847
a(VMimic
p848
VVictor
p849
VMimic
p850
tp851
a(VLilith aensland
p852
VTenten
p853
VLilith aensland
p854
tp855
a(VMilan flare
p856
VRyu hayabusa
p857
VMilan flare
p858
tp859
a(VSub-zero
p860
VBalrog
p861
VSub-zero
p862
tp863
a(VNate summers
p864
VGonzales
p865
VGonzales
p866
tp867
a(VMb-02
p868
VHatate_himekaidou
p869
VMb-02
p870
tp871
a(VNanaya shiki
p872
VZantetsu
p873
VZantetsu
p874
tp875
a(VYuki
p876
VWhite ranger
p877
VYuki
p878
tp879
a(VSanae
p880
VHibiki
p881
VHibiki
p882
tp883
a(VJo jo
p884
VIwao
p885
VJo jo
p886
tp887
a(V95
p888
VPopeye
p889
VPopeye
p890
tp891
a(VScream
p892
VGogeta ssj
p893
VScream
p894
tp895
a(VSophitia
p896
VIronman
p897
VIronman
p898
tp899
a(VIori 71113
p900
VGiano
p901
VIori 71113
p902
tp903
a(V009
p904
VWinnie the pooh
p905
VWinnie the pooh
p906
tp907
a(VDark ryu
p908
VGaara
p909
VGaara
p910
tp911
a(VIbuki
p912
VSasquatch
p913
VSasquatch
p914
tp915
a(VSailor jupiter
p916
VHaggar
p917
VSailor jupiter
p918
tp919
a(VG-akiha
p920
VAkane satomura
p921
VG-akiha
p922
tp923
a(VDeadpool
p924
VEvil ryu
p925
VDeadpool
p926
tp927
a(VBlack adam
p928
VPepe
p929
VBlack adam
p930
tp931
a(VVenom
p932
VSuper buu
p933
VSuper buu
p934
tp935
a(VEdward elrick
p936
VSpenoza
p937
VSpenoza
p938
tp939
a(VDarkseid
p940
VLeona
p941
VDarkseid
p942
tp943
a(VXp(pro)
p944
VZero
p945
VXp(pro)
p946
tp947
a(VLesty
p948
VChun-li
p949
VChun-li
p950
tp951
a(VIvy
p952
VChris
p953
VIvy
p954
tp955
a(VJissou seki
p956
VBlack polnareff
p957
VBlack polnareff
p958
tp959
a(VAmi
p960
VTung fu rue
p961
VAmi
p962
tp963
a(VInsane hiryu
p964
VScorpion
p965
VInsane hiryu
p966
tp967
a(VShadow vegeta
p968
VMiko
p969
VMiko
p970
tp971
a(VBatman beyond
p972
VSsj4 goten
p973
VSsj4 goten
p974
tp975
a(VMima
p976
VEliza
p977
VEliza
p978
tp979
a(VWolverine
p980
VMr. increible
p981
VWolverine
p982
tp983
a(VPitt
p984
VRaoh
p985
VRaoh
p986
tp987
a(VHarley quinn
p988
VNeco
p989
VNeco
p990
tp991
a(VRadish ssj4
p992
VAngus
p993
VRadish ssj4
p994
tp995
a(VClark steel
p996
VRyu
p997
VClark steel
p998
tp999
a(VSaint kyo
p1000
VKim
p1001
VSaint kyo
p1002
tp1003
a(VSuper soldier
p1004
VSakura kinomoto
p1005
VSakura kinomoto
p1006
tp1007
a(VKrizalid
p1008
VVertigo
p1009
VVertigo
p1010
tp1011
a(VGoku nex
p1012
VDudley
p1013
VGoku nex
p1014
tp1015
a(V'gou no ken' kenshirou
p1016
V95
p1017
V'gou no ken' kenshirou
p1018
tp1019
a(VCatwoman
p1020
VDet. garret laurel
p1021
VDet. garret laurel
p1022
tp1023
a(VLee
p1024
VRed cyclone
p1025
VRed cyclone
p1026
tp1027
a(VMystia
p1028
VJuggernaut
p1029
VJuggernaut
p1030
tp1031
a(VTung fu rue
p1032
VSakura kinomoto
p1033
VSakura kinomoto
p1034
tp1035
a(VMotokoaoyama
p1036
VYoko yuki
p1037
VYoko yuki
p1038
tp1039
a(VMystique
p1040
VChaos hiryu
p1041
VChaos hiryu
p1042
tp1043
a(VLilin
p1044
VHenri
p1045
VLilin
p1046
tp1047
a(VMorrigan
p1048
VShaq
p1049
VShaq
p1050
tp1051
a(VFlandre scarlet
p1052
VDark ash
p1053
VFlandre scarlet
p1054
tp1055
a(VRouge
p1056
VBack beard
p1057
VBack beard
p1058
tp1059
a(VTron bonne
p1060
VHaruhi suzumiya
p1061
VHaruhi suzumiya
p1062
tp1063
a(VHomero
p1064
VYoshikage killa
p1065
VHomero
p1066
tp1067
a(VSonson
p1068
VGotenks gt
p1069
VSonson
p1070
tp1071
a(VBlossom
p1072
VAkane satomura
p1073
VBlossom
p1074
tp1075
a(VSylphie
p1076
VSailor jupiter
p1077
VSailor jupiter
p1078
tp1079
a(VYamazaki 71113
p1080
VLizardman
p1081
VYamazaki 71113
p1082
tp1083
a(VRadish ssj4
p1084
VYuki
p1085
VRadish ssj4
p1086
tp1087
a(VBlue ranger
p1088
VTemari
p1089
VTemari
p1090
tp1091
a(VBlack ranger
p1092
VGoku ssj 3
p1093
VBlack ranger
p1094
tp1095
a(VShikieiki yamaxanadu
p1096
VUltraman
p1097
VShikieiki yamaxanadu
p1098
tp1099
a(VGoku gt
p1100
VHisui&kohaku;
p1101
VGoku gt
p1102
tp1103
a(VMaster hand
p1104
VMai_k
p1105
VMai_k
p1106
tp1107
a(VKohaku
p1108
VKim
p1109
VKim
p1110
tp1111
a(VBlack widow
p1112
VMs. fanservice
p1113
VMs. fanservice
p1114
tp1115
a(VSuperman
p1116
VDeath ogre
p1117
VDeath ogre
p1118
tp1119
a(VAlice
p1120
VMaraiah
p1121
VMaraiah
p1122
tp1123
a(VTao jun
p1124
VKisume
p1125
VKisume
p1126
tp1127
a(VArrange_remilia
p1128
VC-19
p1129
VArrange_remilia
p1130
tp1131
a(VHwa jai
p1132
VGreat s. man
p1133
VGreat s. man
p1134
tp1135
a(VRajaayuri
p1136
VCyclops
p1137
VRajaayuri
p1138
tp1139
a(VArrange_misuzu
p1140
VAndroid 18
p1141
VArrange_misuzu
p1142
tp1143
a(VKiller whale
p1144
VYatogi tetsu
p1145
VKiller whale
p1146
tp1147
a(VSsj goku
p1148
VIchi
p1149
VIchi
p1150
tp1151
a(VBison
p1152
VFordy
p1153
VBison
p1154
tp1155
a(VHeihachi mishima
p1156
VGinew
p1157
VHeihachi mishima
p1158
tp1159
a(VToron
p1160
VZero svc
p1161
VToron
p1162
tp1163
a(VLion-o
p1164
VAmi bf
p1165
VAmi bf
p1166
tp1167
a(VSuigintou
p1168
VTron bonne
p1169
VTron bonne
p1170
tp1171
a(VShiori misaka
p1172
VNaruto
p1173
VShiori misaka
p1174
tp1175
a(VHanyuu
p1176
VChibi goku
p1177
VHanyuu
p1178
tp1179
a(VMurasa
p1180
VYuriesbyfe
p1181
VYuriesbyfe
p1182
tp1183
a(VCell
p1184
VMiyako yoshika
p1185
VMiyako yoshika
p1186
tp1187
a(VSoulgen
p1188
VVega
p1189
VSoulgen
p1190
tp1191
a(VRock volnutt
p1192
VKazama sogetsu
p1193
VRock volnutt
p1194
tp1195
a(V009
p1196
VTyouunn-shiryu
p1197
V009
p1198
tp1199
a(VMestre kame
p1200
VJon talbain
p1201
VJon talbain
p1202
tp1203
a(VSakura
p1204
VHugo
p1205
VHugo
p1206
tp1207
a(VRogue
p1208
VAnother jissou seki
p1209
VRogue
p1210
tp1211
a(VTron bonne
p1212
VKid gohan ssj1
p1213
VTron bonne
p1214
tp1215
a(VRimururu
p1216
VDan
p1217
VRimururu
p1218
tp1219
a(VKen
p1220
VLavos spawn
p1221
VLavos spawn
p1222
tp1223
a(VGoku gt ssj3
p1224
VSenna vp
p1225
VSenna vp
p1226
tp1227
a(VModoi-san
p1228
VMinakata moriya
p1229
VMinakata moriya
p1230
tp1231
a(VSegalow
p1232
VCaptain marvell
p1233
VSegalow
p1234
tp1235
a(VGogeta ssj4
p1236
VNero
p1237
VNero
p1238
tp1239
a(VThe thing
p1240
VKhan
p1241
VThe thing
p1242
tp1243
a(VMidler
p1244
VReisen_swr
p1245
VReisen_swr
p1246
tp1247
a(VWild ken ex
p1248
VClayface
p1249
VClayface
p1250
tp1251
a(VSilver horns
p1252
VAndroid 17
p1253
VAndroid 17
p1254
tp1255
a(VCharizard
p1256
VFelicia
p1257
VCharizard
p1258
tp1259
a(VEiko magami
p1260
VSakura
p1261
VSakura
p1262
tp1263
a(VMiyazato erika
p1264
VRanma saotome
p1265
VRanma saotome
p1266
tp1267
a(VNorimaro
p1268
VSilver samurai
p1269
VSilver samurai
p1270
tp1271
a(VDaigo
p1272
VThe thing
p1273
VThe thing
p1274
tp1275
a(VHulk 2099
p1276
VHarpagos
p1277
VHarpagos
p1278
tp1279
a(VSyo hayate
p1280
VBaitang
p1281
VBaitang
p1282
tp1283
a(VLavos spawn
p1284
VKimberly
p1285
VLavos spawn
p1286
tp1287
a(VMs. fanservice
p1288
VBatman beyond
p1289
VBatman beyond
p1290
tp1291
a(VBatgirl
p1292
VEmerald
p1293
VEmerald
p1294
tp1295
a(VRouga_zanma
p1296
VBaby bonnie hood
p1297
VBaby bonnie hood
p1298
tp1299
a(VKrillin
p1300
VGhost rider
p1301
VGhost rider
p1302
tp1303
a(VYakui san
p1304
VKing
p1305
VKing
p1306
tp1307
a(VMarvin
p1308
VGreen lantern js
p1309
VMarvin
p1310
tp1311
a(VYun
p1312
VMike tyson
p1313
VMike tyson
p1314
tp1315
a(VRai
p1316
VJamian di corvus
p1317
VRai
p1318
tp1319
a(VIori yagami
p1320
VK'
p1321
VK'
p1322
tp1323
a(VNaruto kun
p1324
VGreen lantern
p1325
VNaruto kun
p1326
tp1327
a(VGodzilla
p1328
VIceman
p1329
VIceman
p1330
tp1331
a(VViuda negra
p1332
VMedoi-san
p1333
VViuda negra
p1334
tp1335
a(V2ban-tan
p1336
VAlice
p1337
VAlice
p1338
tp1339
a(VUltron
p1340
VSupergirl
p1341
VUltron
p1342
tp1343
a(VR. lilith
p1344
VMajin vegeta ssj6
p1345
VR. lilith
p1346
tp1347
a(VP. chunli
p1348
VKanon
p1349
VP. chunli
p1350
tp1351
a(VBoulma
p1352
VMai shiranui
p1353
VMai shiranui
p1354
tp1355
a(VVegeta ssj5
p1356
VSaint kyo
p1357
VSaint kyo
p1358
tp1359
a(VRobo-ky
p1360
VRouga(coh)
p1361
VRouga(coh)
p1362
tp1363
a(VStrider hiryu
p1364
VDiablo
p1365
VStrider hiryu
p1366
tp1367
a(VTensinhan
p1368
VGokussj4d
p1369
VTensinhan
p1370
tp1371
a(VGrappler_hiyama
p1372
VEdward elrick
p1373
VGrappler_hiyama
p1374
tp1375
a(VBison
p1376
VGorunks ssj4
p1377
VBison
p1378
tp1379
a(VKanako yasaka
p1380
VRuby heart
p1381
VKanako yasaka
p1382
tp1383
a(VArrange_misuzu
p1384
VSoulgen
p1385
VArrange_misuzu
p1386
tp1387
a(VLi'l gohan
p1388
VJudith
p1389
VJudith
p1390
tp1391
a(VMature
p1392
VLizardman
p1393
VMature
p1394
tp1395
a(VSkull-man
p1396
VG-akiha
p1397
VG-akiha
p1398
tp1399
a(VSoulgen
p1400
VTenshinham
p1401
VSoulgen
p1402
tp1403
a(VHaruno sakura
p1404
VKabal
p1405
VHaruno sakura
p1406
tp1407
a(VEiko magami
p1408
VReimu
p1409
VEiko magami
p1410
tp1411
a(VFoxy
p1412
VCharizard
p1413
VCharizard
p1414
tp1415
a(VKanna
p1416
VOrochi akuma
p1417
VOrochi akuma
p1418
tp1419
a(VJ'onn j'onnz
p1420
VGotenks ssj
p1421
VJ'onn j'onnz
p1422
tp1423
a(VDiablo
p1424
VRen_idagawa
p1425
VDiablo
p1426
tp1427
a(VSailor jupiter
p1428
VWarmachine
p1429
VSailor jupiter
p1430
tp1431
a(VMarie
p1432
VBeast
p1433
VBeast
p1434
tp1435
a(VLeela
p1436
VMima
p1437
VMima
p1438
tp1439
a(VMaster chief
p1440
VTensinhan
p1441
VMaster chief
p1442
tp1443
a(VHato sabure
p1444
VArcueid
p1445
VArcueid
p1446
tp1447
a(VToron
p1448
VKenpachi
p1449
VKenpachi
p1450
tp1451
a(VRobin
p1452
VYang
p1453
VRobin
p1454
tp1455
a(VRaiden
p1456
VGogeta ssj
p1457
VRaiden
p1458
tp1459
a(VApocalypse
p1460
VInuzuka kiba
p1461
VApocalypse
p1462
tp1463
a(VOjisama-chaos
p1464
VCrono
p1465
VOjisama-chaos
p1466
tp1467
a(VGohan fight money
p1468
VBalrog
p1469
VBalrog
p1470
tp1471
a(VNaruto
p1472
VAndroid 18
p1473
VAndroid 18
p1474
tp1475
a(VYellow devil
p1476
VHibiki
p1477
VHibiki
p1478
tp1479
a(VKen & gang
p1480
VM. bison
p1481
VM. bison
p1482
tp1483
a(VGoku gt
p1484
VK'
p1485
VK'
p1486
tp1487
a(VShe-hulk
p1488
VBeavis
p1489
VShe-hulk
p1490
tp1491
a(VAntman
p1492
VJackal
p1493
VJackal
p1494
tp1495
a(VKing godzilla
p1496
VSuperboy
p1497
VKing godzilla
p1498
tp1499
a(VLee
p1500
VBlack polnareff
p1501
VLee
p1502
tp1503
a(VA.b.a
p1504
VAgito_of_the_dark
p1505
VA.b.a
p1506
tp1507
a(VSailor jupiter
p1508
VK' xiii
p1509
VSailor jupiter
p1510
tp1511
a(VSuperman
p1512
VSakura
p1513
VSuperman
p1514
tp1515
a(VCell junior
p1516
VGuy gardner
p1517
VCell junior
p1518
tp1519
a(VYumemi
p1520
VCarnage
p1521
VYumemi
p1522
tp1523
a(VVenom scorpion
p1524
VYuriesbyfe
p1525
VVenom scorpion
p1526
tp1527
a(VW len ar
p1528
VSakura kinomoto
p1529
VSakura kinomoto
p1530
tp1531
a(VKszsk-shuko
p1532
VIbuki
p1533
VIbuki
p1534
tp1535
a(VPowergirl
p1536
VSub zero
p1537
VPowergirl
p1538
tp1539
a(VIchi
p1540
VKrillin
p1541
VIchi
p1542
tp1543
a(VBalrog
p1544
VSuigintou
p1545
VBalrog
p1546
tp1547
a(VPyro
p1548
VElecman
p1549
VPyro
p1550
tp1551
a(VOnpu segawa
p1552
VSupergirl
p1553
VOnpu segawa
p1554
tp1555
a(VSonson
p1556
VKen
p1557
VSonson
p1558
tp1559
a(VBishop
p1560
VPikachu
p1561
VBishop
p1562
tp1563
a(VLeona
p1564
VZantetsu
p1565
VLeona
p1566
tp1567
a(VMisery
p1568
VSailor mercury
p1569
VSailor mercury
p1570
tp1571
a(VBootleg ryu
p1572
VRock volnutt
p1573
VRock volnutt
p1574
tp1575
a(VBeavis
p1576
VRegina
p1577
VRegina
p1578
tp1579
a(VRusty
p1580
VGambit
p1581
VGambit
p1582
tp1583
a(VClark
p1584
VDhalsim
p1585
VDhalsim
p1586
tp1587
a(VYuki in midday
p1588
VWell
p1589
VWell
p1590
tp1591
a(VKeel
p1592
VCaptain america
p1593
VKeel
p1594
tp1595
a(VCaptain marvell
p1596
VPikachu
p1597
VCaptain marvell
p1598
tp1599
a(VArchangel
p1600
VBeast
p1601
VArchangel
p1602
tp1603
a(VYumemi
p1604
VShikieiki yamaxanadu
p1605
VYumemi
p1606
tp1607
a(VBullseye
p1608
VHijiri byakuren
p1609
tp1610
a(VRemilia
p1611
VArrange_misuzu
p1612
VRemilia
p1613
tp1614
a(VGohan fight money
p1615
VMaster hand
p1616
VMaster hand
p1617
tp1618
a(VBlue destiny 2
p1619
VGoten gt nex
p1620
VBlue destiny 2
p1621
tp1622
a(VRemilia
p1623
VSakura kinomoto
p1624
VRemilia
p1625
tp1626
a(VEnya
p1627
VMarrow
p1628
VMarrow
p1629
tp1630
a(VFirestar
p1631
VMarie
p1632
VFirestar
p1633
tp1634
a(VGiano
p1635
VGreat saiyaman
p1636
VGiano
p1637
tp1638
a(VInsane hiryu
p1639
VE-terry 71113
p1640
VE-terry 71113
p1641
tp1642
a(VDan
p1643
VMaxima
p1644
VDan
p1645
tp1646
a(VKen
p1647
VCaptain marvel
p1648
VKen
p1649
tp1650
a(VHaggar
p1651
VChris
p1652
VHaggar
p1653
tp1654
a(VRyuuguu rena
p1655
VBass
p1656
VRyuuguu rena
p1657
tp1658
a(VM. bison
p1659
VAnnie murakami
p1660
VAnnie murakami
p1661
tp1662
a(VGotenks gt
p1663
VShanghai
p1664
VShanghai
p1665
tp1666
a(VYamiyuki
p1667
VRai
p1668
VRai
p1669
tp1670
a(VPrincess peach
p1671
VWarmachine
p1672
VPrincess peach
p1673
tp1674
a(VAlice margatroid
p1675
VSenna vp
p1676
VSenna vp
p1677
tp1678
a(VSaya
p1679
VHulk 2099
p1680
VHulk 2099
p1681
tp1682
a(VElectro
p1683
VHisui
p1684
VHisui
p1685
tp1686
a(VBeast
p1687
VSon goku
p1688
VBeast
p1689
tp1690
a(VShadir
p1691
VSinku
p1692
VShadir
p1693
tp1694
a(VMature
p1695
VYashaoh
p1696
VMature
p1697
tp1698
a(VBattousai
p1699
VTimmy turner
p1700
VBattousai
p1701
tp1702
a(VSakura kinomoto
p1703
VEagle
p1704
VSakura kinomoto
p1705
tp1706
a(VRan yakumo
p1707
VVanilla ice
p1708
VRan yakumo
p1709
tp1710
a(VC-19
p1711
VStrider hien
p1712
VC-19
p1713
tp1714
a(V20 (dr. gero)
p1715
VEtrigan
p1716
VEtrigan
p1717
tp1718
a(VSilver samurai
p1719
VGogeta ssj4
p1720
VGogeta ssj4
p1721
tp1722
a(VMaster chief
p1723
VNyaonyao
p1724
VMaster chief
p1725
tp1726
a(VShermie
p1727
VMega gohan
p1728
VShermie
p1729
tp1730
a(VBlack manta
p1731
VGoku ssj gt
p1732
VGoku ssj gt
p1733
tp1734
a(VRouge
p1735
VAndroid 17
p1736
VAndroid 17
p1737
tp1738
a(VNyaonyao
p1739
VSoulgen
p1740
VSoulgen
p1741
tp1742
a(VAlice
p1743
VYue
p1744
VYue
p1745
tp1746
a(VDiablo_skeleton
p1747
VKimberly
p1748
VDiablo_skeleton
p1749
tp1750
a(VMaster sakura
p1751
VSuper sonic
p1752
VMaster sakura
p1753
tp1754
a(VSad claps
p1755
VSynn
p1756
VSynn
p1757
tp1758
a(VOozaru
p1759
VGoku sayajin
p1760
VOozaru
p1761
tp1762
a(VTin's fernandeath
p1763
VGarfield
p1764
VTin's fernandeath
p1765
tp1766
a(VMajin vegeta ssj6
p1767
VAbui
p1768
VMajin vegeta ssj6
p1769
tp1770
a(VTerry
p1771
VGoku ssj gt
p1772
VTerry
p1773
tp1774
a(VSlayer
p1775
VGod ken
p1776
VGod ken
p1777
tp1778
a(VGouken
p1779
VSilver horns
p1780
VGouken
p1781
tp1782
a(VVenom
p1783
VDosu
p1784
VVenom
p1785
tp1786
a(VUnzan&ichirin;
p1787
VSkull-man
p1788
VUnzan&ichirin;
p1789
tp1790
a(VCirno
p1791
VShin mr. karate
p1792
VCirno
p1793
tp1794
a(VShen
p1795
VMajin vegeta ssj6
p1796
VMajin vegeta ssj6
p1797
tp1798
a(VFelicia
p1799
VThe atom
p1800
VFelicia
p1801
tp1802
a(VKuma
p1803
VYue
p1804
VYue
p1805
tp1806
a(VVegeta
p1807
VSynn
p1808
VSynn
p1809
tp1810
a(VJo jo
p1811
VChameleon
p1812
VJo jo
p1813
tp1814
a(VSinestro
p1815
VFat albert
p1816
VFat albert
p1817
tp1818
a(VCaptain commando
p1819
VRouga(coh)
p1820
VRouga(coh)
p1821
tp1822
a(VGrappler_hiyama
p1823
VGonzales
p1824
VGonzales
p1825
tp1826
a(VLucca
p1827
VG rugal
p1828
VG rugal
p1829
tp1830
a(VLion magnus
p1831
VDinozord
p1832
VLion magnus
p1833
tp1834
a(VTen-sing
p1835
VCc iron clara
p1836
VCc iron clara
p1837
tp1838
a(VPrince vegeta
p1839
VCaptain marvell
p1840
VCaptain marvell
p1841
tp1842
a(VHory marlu
p1843
VRobo-kyii
p1844
VHory marlu
p1845
tp1846
a(VRobert garcia
p1847
VWonderman
p1848
VWonderman
p1849
tp1850
a(VLelouch
p1851
VSilver samurai
p1852
VSilver samurai
p1853
tp1854
a(VGohan ssj2
p1855
VNeodio
p1856
VNeodio
p1857
tp1858
a(VJotaro kujo
p1859
VLynn baker
p1860
VLynn baker
p1861
tp1862
a(VKrauser
p1863
VRuby heart
p1864
VKrauser
p1865
tp1866
a(VJill
p1867
VE-terry 71113
p1868
VE-terry 71113
p1869
tp1870
a(VRyu
p1871
VTyouunn-shiryu
p1872
VRyu
p1873
tp1874
a(VKid gohan
p1875
VAbui
p1876
VKid gohan
p1877
tp1878
a(VReimu
p1879
VNeco-arc chaos
p1880
VNeco-arc chaos
p1881
tp1882
a(VDink smallwood
p1883
VMora
p1884
VDink smallwood
p1885
tp1886
a(VSakura kinomoto
p1887
VAyu tsukimiya
p1888
VAyu tsukimiya
p1889
tp1890
a(VKanae
p1891
VMio
p1892
VKanae
p1893
tp1894
a(VRouge
p1895
VEmerald
p1896
VEmerald
p1897
tp1898
a(VBullseye
p1899
VFox mccloud
p1900
VBullseye
p1901
tp1902
a(VGreat gohan
p1903
VArcueid
p1904
VArcueid
p1905
tp1906
a(VVita
p1907
VMora
p1908
VVita
p1909
tp1910
a(VJin kazama
p1911
VYuri di aaaaaaa
p1912
VJin kazama
p1913
tp1914
a(VEmerl
p1915
VBatgirl
p1916
VEmerl
p1917
tp1918
a(VGarlic junior
p1919
VKuando
p1920
VKuando
p1921
tp1922
a(VShaq
p1923
VEliza
p1924
VEliza
p1925
tp1926
a(VSakuya_swr
p1927
VNrvnqsr chaos
p1928
VSakuya_swr
p1929
tp1930
a(VYukari_swr
p1931
VShino
p1932
VYukari_swr
p1933
tp1934
a(VKonngara
p1935
VWarachia
p1936
VKonngara
p1937
tp1938
a(VKyouko
p1939
VGohan saiya-jin ex
p1940
VGohan saiya-jin ex
p1941
tp1942
a(VPopeye
p1943
VG-akiha
p1944
VG-akiha
p1945
tp1946
a(VSyo hayate
p1947
VRock
p1948
VRock
p1949
tp1950
a(VNanaya
p1951
VShanghai
p1952
VShanghai
p1953
tp1954
a(VLi'l gohan
p1955
VGouken
p1956
VGouken
p1957
tp1958
a(VIron lantern
p1959
VCharizard
p1960
VIron lantern
p1961
tp1962
a(VJay garrick
p1963
VGohan ssj4
p1964
VGohan ssj4
p1965
tp1966
a(VKabal
p1967
VLucky 71113
p1968
VLucky 71113
p1969
tp1970
a(VYamame
p1971
VDoomsday
p1972
VYamame
p1973
tp1974
a(VTerry bogard
p1975
VChaka
p1976
VTerry bogard
p1977
tp1978
a(VColossus
p1979
VSquall
p1980
VSquall
p1981
tp1982
a(VTakuma.s_xiii
p1983
VSynn
p1984
VSynn
p1985
tp1986
a(VNail
p1987
VMai
p1988
VNail
p1989
tp1990
a(VCell junior
p1991
VButt-head
p1992
VCell junior
p1993
tp1994
a(VAtusi
p1995
VOrochi akuma
p1996
VOrochi akuma
p1997
tp1998
a(VTest2
p1999
VTest3
p2000
tp2001
a(VTest1
p2002
VTest2
p2003
tp2004
a(VTEST
p2005
VTEST
p2006
tp2007
a(VTest1
p2008
VTest12
p2009
tp2010
a(VTest1
p2011
VTest1
p2012
tp2013
a(VTest1
p2014
VTest1
p2015
tp2016
a(VTest1
p2017
VTest2
p2018
tp2019
a(VTest1
p2020
VTest2
p2021
tp2022
a(VTest4
p2023
VTest5
p2024
tp2025
a(VTest2
p2026
VTest3
p2027
tp2028
a(VTest1
p2029
VTest2
p2030
tp2031
a(VChange dragon
p2032
VMech-hisui
p2033
VMech-hisui
p2034
tp2035
a(VRadish ssj4
p2036
VSon trunks
p2037
tp2038
a(VVegeta
p2039
VThe dazzler
p2040
VThe dazzler
p2041
tp2042
a(VGrappler_hiyama
p2043
VBoo
p2044
VBoo
p2045
tp2046
a(VBlossom
p2047
VRobo-kyii
p2048
VBlossom
p2049
tp2050
a(VBlue ranger
p2051
VSonic machine
p2052
VSonic machine
p2053
tp2054
a(VPredator
p2055
VSephiroth
p2056
VPredator
p2057
tp2058
a(VNero
p2059
VFox mccloud
p2060
VNero
p2061
tp2062
a(VC-19
p2063
VDodgers
p2064
tp2065
a(VHoly ken
p2066
VRose
p2067
VHoly ken
p2068
tp2069
a(VMarisa kirisame
p2070
VKang
p2071
tp2072
a(VLuigi
p2073
VLei lei
p2074
VLei lei
p2075
tp2076
a(VVenom scorpion
p2077
VMr. bison
p2078
VVenom scorpion
p2079
tp2080
a(VOjisama-chaos
p2081
VKomepo
p2082
VOjisama-chaos
p2083
tp2084
a(VNakoruru
p2085
VJin
p2086
VNakoruru
p2087
tp2088
a(VBlob
p2089
VBoo
p2090
VBoo
p2091
tp2092
a(VMunch
p2093
VDhalsim
p2094
VDhalsim
p2095
tp2096
a(VDio brando
p2097
VKrusty
p2098
VKrusty
p2099
tp2100
a(VUzumaki naruto
p2101
VWolverine
p2102
VWolverine
p2103
tp2104
a(VSabretooth
p2105
VSenna vp
p2106
VSenna vp
p2107
tp2108
a(VMio
p2109
VBlack tiger
p2110
VBlack tiger
p2111
tp2112
a(VShizuha aki
p2113
VBishamon
p2114
VShizuha aki
p2115
tp2116
a(VGreat gohan
p2117
VThink
p2118
VGreat gohan
p2119
tp2120
a(VHisame shizumaru
p2121
V95 no danna
p2122
VHisame shizumaru
p2123
tp2124
a(VButtercup
p2125
VRyuuoutan
p2126
tp2127
a(VAquaman
p2128
VCaptain marvel
p2129
VCaptain marvel
p2130
tp2131
a(VVega
p2132
VLex luthor
p2133
VLex luthor
p2134
tp2135
a(VSailor mercury
p2136
VRobert
p2137
VSailor mercury
p2138
tp2139
a(VModoi-san
p2140
VCv wakamoto
p2141
VCv wakamoto
p2142
tp2143
a(VIkki
p2144
VSuper skrull
p2145
VIkki
p2146
tp2147
a(VNeco
p2148
VShanghai
p2149
VShanghai
p2150
tp2151
a(VMystia
p2152
VGonzales
p2153
VGonzales
p2154
tp2155
a(VKing godzilla
p2156
VHellboy
p2157
VHellboy
p2158
tp2159
a(VMoleman
p2160
VMillia
p2161
VMoleman
p2162
tp2163
a(VSatoko
p2164
VGaits
p2165
VSatoko
p2166
tp2167
a(VRaiden
p2168
VShin gouki
p2169
VShin gouki
p2170
tp2171
a(VAlex mercer
p2172
VAgony
p2173
VAgony
p2174
tp2175
a(VNightcrawler
p2176
VViuda negra
p2177
VNightcrawler
p2178
tp2179
a(VIori yagami
p2180
VUltra ssj5 vegeta
p2181
VUltra ssj5 vegeta
p2182
tp2183
a(VHulk 2099
p2184
VGideon
p2185
VGideon
p2186
tp2187
a(VDora
p2188
VHisui
p2189
VHisui
p2190
tp2191
a(VBlue ranger
p2192
VUsapi-
p2193
VUsapi-
p2194
tp2195
a(VDarkseid
p2196
VHeita zinnai
p2197
VDarkseid
p2198
tp2199
a(VOrchid
p2200
VSuperboy
p2201
VOrchid
p2202
tp2203
a(VMexican typhoon
p2204
VEvil ryu
p2205
VMexican typhoon
p2206
tp2207
a(VWonder woman
p2208
VGohan ssj5
p2209
VGohan ssj5
p2210
tp2211
a(VPeter
p2212
VMarrow
p2213
VMarrow
p2214
tp2215
a(VReisen
p2216
VXanmi chan
p2217
VXanmi chan
p2218
tp2219
a(VPredator
p2220
VMultiple man
p2221
VMultiple man
p2222
tp2223
a(VHelion
p2224
VGeese
p2225
VHelion
p2226
tp2227
a(VJissou seki
p2228
VAvdol ver 2001/01/30 by camrat
p2229
VAvdol ver 2001/01/30 by camrat
p2230
tp2231
a(VGoku ssj 3
p2232
VIwao
p2233
VIwao
p2234
tp2235
a(VShaq
p2236
VHina
p2237
VShaq
p2238
tp2239
a(VNanaya shiki
p2240
VHwa jai
p2241
VNanaya shiki
p2242
tp2243
a(VPitt
p2244
VGarfield
p2245
VPitt
p2246
tp2247
a(VPetshop
p2248
VAkuma
p2249
VAkuma
p2250
tp2251
a(VManbou
p2252
VRemilia
p2253
VRemilia
p2254
tp2255
a(VHads
p2256
VEvil ken
p2257
VEvil ken
p2258
tp2259
a(VMr.satan
p2260
VShikieiki yamaxanadu
p2261
VShikieiki yamaxanadu
p2262
tp2263
a(VMissmarvel
p2264
VGoku pce
p2265
VMissmarvel
p2266
tp2267
a(VSatsuki
p2268
VRhino
p2269
VSatsuki
p2270
tp2271
a(VYoshikage killa
p2272
VSeravy
p2273
VSeravy
p2274
tp2275
a(VJin
p2276
VMega weapon
p2277
VMega weapon
p2278
tp2279
a(VDarkseid
p2280
VBlack polnareff
p2281
VDarkseid
p2282
tp2283
a(VKid gohan
p2284
VWaha-
p2285
VWaha-
p2286
tp2287
a(VShuma gorath
p2288
VNazrin
p2289
VNazrin
p2290
tp2291
a(VKyouko
p2292
VMishio
p2293
VMishio
p2294
tp2295
a(VJon talbain
p2296
VSegalow
p2297
VSegalow
p2298
tp2299
a(VJotaro kujo
p2300
VHotaru futaba
p2301
VHotaru futaba
p2302
tp2303
a(VSaiki
p2304
VMega weapon
p2305
VSaiki
p2306
tp2307
a(VChris sakurigan
p2308
VSuper mario
p2309
VSuper mario
p2310
tp2311
a(VRamon 71113
p2312
VTrunks
p2313
VRamon 71113
p2314
tp2315
a(VGreat gohan
p2316
VKaori&shiori;
p2317
VGreat gohan
p2318
tp2319
a(VDark psylocke
p2320
VMaster ryu
p2321
VMaster ryu
p2322
tp2323
a(VRobin
p2324
VChise
p2325
VRobin
p2326
tp2327
a(VUltimate cap
p2328
VBabidi
p2329
VUltimate cap
p2330
tp2331
a(VOrchid
p2332
VMyuu
p2333
VOrchid
p2334
tp2335
a(VVanilla h
p2336
VMega weapon
p2337
VMega weapon
p2338
tp2339
a(VKen
p2340
VMaxima
p2341
VKen
p2342
tp2343
a(VM.bison
p2344
VSaiki
p2345
VSaiki
p2346
tp2347
a(VGoku db
p2348
VRed ranger
p2349
VRed ranger
p2350
tp2351
a(VZombie
p2352
VBishamon
p2353
VZombie
p2354
tp2355
a(VNenaikodareda
p2356
VOnpu segawa
p2357
VOnpu segawa
p2358
tp2359
a(VKen
p2360
VMasta gambit
p2361
VMasta gambit
p2362
tp2363
a(VJoseph the b.b.
p2364
VDr.gero
p2365
VDr.gero
p2366
tp2367
a(VHulk
p2368
VDeath13
p2369
VHulk
p2370
tp2371
a(VI-no
p2372
VCrilin sposato
p2373
VCrilin sposato
p2374
tp2375
a(VBeast
p2376
VUltimat goku
p2377
VUltimat goku
p2378
tp2379
a(VKabal
p2380
VMegatron
p2381
VMegatron
p2382
tp2383
a(VKid gohan
p2384
VVoid
p2385
VVoid
p2386
tp2387
a(VGambit
p2388
VMr. increible
p2389
VMr. increible
p2390
tp2391
a(VMilan flare
p2392
VSentry
p2393
VMilan flare
p2394
tp2395
a(VKazama kazuki
p2396
VCrilin sposato
p2397
VKazama kazuki
p2398
tp2399
a(VRusty
p2400
VCommissioner gordon
p2401
VCommissioner gordon
p2402
tp2403
a(VNightcrawler
p2404
VTron bonne
p2405
VNightcrawler
p2406
tp2407
a(VKaio shin
p2408
VE. honda
p2409
VE. honda
p2410
tp2411
a(VW len ar
p2412
VNamor
p2413
VNamor
p2414
tp2415
a(VVulture
p2416
VRouga_zanma
p2417
VVulture
p2418
tp2419
a(VFirebrand
p2420
VDark psylocke
p2421
VFirebrand
p2422
tp2423
a(VMisery
p2424
VGoku normal hd
p2425
VGoku normal hd
p2426
tp2427
a(VMayko
p2428
VAyu tsukimiya
p2429
VAyu tsukimiya
p2430
tp2431
a(VJuda
p2432
VKy
p2433
VKy
p2434
tp2435
a(VWinnie the pooh
p2436
V2ban-tan
p2437
VWinnie the pooh
p2438
tp2439
a(VToki
p2440
VGoku ssj2
p2441
VGoku ssj2
p2442
tp2443
a(VPerfect storm x
p2444
VTung fu rue
p2445
VPerfect storm x
p2446
tp2447
a(VHayato
p2448
V2k
p2449
VHayato
p2450
tp2451
a(VTrunks
p2452
VGold warmachine
p2453
VTrunks
p2454
tp2455
a(VSophitia
p2456
VChun-lee dark bolt
p2457
VChun-lee dark bolt
p2458
tp2459
a(VSeth
p2460
VVegeta sb1
p2461
VSeth
p2462
tp2463
a(VPhoenix
p2464
VAsh
p2465
VAsh
p2466
tp2467
a(VAngus
p2468
VDonatello
p2469
VAngus
p2470
tp2471
a(VRogue
p2472
VPatchouli_swr
p2473
VPatchouli_swr
p2474
tp2475
a(VSakura
p2476
VSakura kinomoto
p2477
VSakura
p2478
tp2479
a(VKrusty
p2480
VTaki
p2481
VTaki
p2482
tp2483
a(VRajaayuri
p2484
VLobo
p2485
VRajaayuri
p2486
tp2487
a(VPotemkin
p2488
VHe-man
p2489
VPotemkin
p2490
tp2491
a(VHoly ken
p2492
VHyper buu
p2493
VHoly ken
p2494
tp2495
a(VBlodia
p2496
VVenom
p2497
VBlodia
p2498
tp2499
a(VEnya
p2500
VNeyufeulle
p2501
VNeyufeulle
p2502
tp2503
a(VHwa jai
p2504
VInuzuka kiba
p2505
VHwa jai
p2506
tp2507
a(VTizoc
p2508
VDark phoenix
p2509
VDark phoenix
p2510
tp2511
a(VGinew
p2512
VSailor jupiter
p2513
VSailor jupiter
p2514
tp2515
a(VYellow-pipo
p2516
VWinnie the pooh
p2517
VWinnie the pooh
p2518
tp2519
a(VWar machine
p2520
VMs. fanservice
p2521
VMs. fanservice
p2522
tp2523
a(VLipsyncher
p2524
VDarkseid
p2525
VDarkseid
p2526
tp2527
a(VWhite ranger
p2528
VStorm
p2529
VStorm
p2530
tp2531
a(VTenshi
p2532
VDeath ogre
p2533
VDeath ogre
p2534
tp2535
a(VM. bison
p2536
VSamurai jack
p2537
VM. bison
p2538
tp2539
a(VLen and w. len
p2540
VManbou
p2541
VLen and w. len
p2542
tp2543
a(VSuper-8
p2544
VKamiccolo
p2545
VSuper-8
p2546
tp2547
a(VBlaze agent
p2548
VMay
p2549
VBlaze agent
p2550
tp2551
a(VCaptain marvell
p2552
VSuigintou
p2553
VCaptain marvell
p2554
tp2555
a(VRhino
p2556
VNagato yuki
p2557
VNagato yuki
p2558
tp2559
a(VHol horse
p2560
VSilver samurai
p2561
VSilver samurai
p2562
tp2563
a(VHel'lauren
p2564
VTron bonne
p2565
VHel'lauren
p2566
tp2567
a(VMaximum frieza
p2568
VGohan ssj5
p2569
VGohan ssj5
p2570
tp2571
a(VFox mccloud
p2572
VYoko yuki
p2573
VYoko yuki
p2574
tp2575
a(VSaito
p2576
VKenshirou
p2577
VSaito
p2578
tp2579
a(VRoll
p2580
VKnuckles
p2581
VRoll
p2582
tp2583
a(VWell
p2584
VSuper vegeta
p2585
VWell
p2586
tp2587
a(VPoppy
p2588
VGotenks gt
p2589
VGotenks gt
p2590
tp2591
a(VCaptain america
p2592
VGinew
p2593
VCaptain america
p2594
tp2595
a(VOrochi vega
p2596
VMidler
p2597
VOrochi vega
p2598
tp2599
a(VFirebrand
p2600
VSaisyuu_dokusyo_bouei_system
p2601
VSaisyuu_dokusyo_bouei_system
p2602
tp2603
a(VMaxima
p2604
VChameleon
p2605
VChameleon
p2606
tp2607
a(VArrange_shiori
p2608
VRouga(coh)
p2609
VArrange_shiori
p2610
tp2611
a(VMorph
p2612
VHobgoblin
p2613
VMorph
p2614
tp2615
a(VPyron
p2616
VSon gohan
p2617
VPyron
p2618
tp2619
a(VWild ken ex
p2620
VCrono
p2621
VWild ken ex
p2622
tp2623
a(VSpider-man 2099
p2624
VHeika
p2625
VSpider-man 2099
p2626
tp2627
a(VSimonkin2006
p2628
VRajaamaki
p2629
VRajaamaki
p2630
tp2631
a(VLucca
p2632
VFirebrand
p2633
VFirebrand
p2634
tp2635
a(VPan
p2636
VBattle mahoro
p2637
VPan
p2638
tp2639
a(VTimmy turner
p2640
VEvil dan
p2641
VEvil dan
p2642
tp2643
a(VRobo rock
p2644
VHato sabure
p2645
VHato sabure
p2646
tp2647
a(VSpiderman
p2648
VIggy
p2649
VSpiderman
p2650
tp2651
a(VTibigintou
p2652
VToramaru syou
p2653
VToramaru syou
p2654
tp2655
a(VDrdoom
p2656
VTrunks
p2657
VDrdoom
p2658
tp2659
a(VMorrigan
p2660
VNrvnqsr chaos
p2661
VNrvnqsr chaos
p2662
tp2663
a(VZettaiaku
p2664
VGogeta ssj4
p2665
VZettaiaku
p2666
tp2667
a(VAnnie murakami
p2668
VPoison
p2669
VAnnie murakami
p2670
tp2671
a(VYuriesbyfe
p2672
VNightwing
p2673
VYuriesbyfe
p2674
tp2675
a(VSinku
p2676
VSaori - athena
p2677
VSaori - athena
p2678
tp2679
a(VGray fly
p2680
VCaptain marvel
p2681
VGray fly
p2682
tp2683
a(VTenma-sama
p2684
VIronpatriot
p2685
VTenma-sama
p2686
tp2687
a(VGinew
p2688
VJohnny cage
p2689
VJohnny cage
p2690
tp2691
a(VJon talbain
p2692
VKuroko
p2693
VJon talbain
p2694
tp2695
a(VPolaris
p2696
VDodgers
p2697
VDodgers
p2698
tp2699
a(VMako
p2700
VGohan  grande normale
p2701
VGohan  grande normale
p2702
tp2703
a(VBattousai
p2704
VToramaru syou
p2705
VBattousai
p2706
tp2707
a(VLupin the 3rd
p2708
VSajin
p2709
VLupin the 3rd
p2710
tp2711
a(VMb-02
p2712
VOgre
p2713
VMb-02
p2714
tp2715
a(VJuggernaut
p2716
VSandman
p2717
VSandman
p2718
tp2719
a(VHokage
p2720
VStrider hien
p2721
VStrider hien
p2722
tp2723
a(VAsh
p2724
VSpiral
p2725
VSpiral
p2726
tp2727
a(VSonic
p2728
VZero
p2729
VZero
p2730
tp2731
a(VHikaru
p2732
VLilith aensland
p2733
VLilith aensland
p2734
tp2735
a(VKiller whale
p2736
VHugo
p2737
VKiller whale
p2738
tp2739
a(VGogeta ssj4
p2740
VMr. increible
p2741
VGogeta ssj4
p2742
tp2743
a(VPepe
p2744
VSenna vp
p2745
VSenna vp
p2746
tp2747
a(VNamek gohan
p2748
VAthena
p2749
VNamek gohan
p2750
tp2751
a(VGoten gt nex
p2752
VRed cyclone
p2753
VRed cyclone
p2754
tp2755
a(VT. kawk
p2756
VDoparmin
p2757
VT. kawk
p2758
tp2759
a(VRaditz
p2760
VSponge bob
p2761
VSponge bob
p2762
tp2763
a(VKanna
p2764
VZantetsu
p2765
VKanna
p2766
tp2767
a(VShe-hulk
p2768
VSakura
p2769
VSakura
p2770
tp2771
a(VBra
p2772
VSquall
p2773
VSquall
p2774
tp2775
a(VThor
p2776
VSakura
p2777
VThor
p2778
tp2779
a(VKagome
p2780
VKuando
p2781
tp2782
a(VGoten gt
p2783
VKabal
p2784
VGoten gt
p2785
tp2786
a(VShin gouki
p2787
VSatoko
p2788
VSatoko
p2789
tp2790
a(VWarmachine
p2791
VDodoria
p2792
VDodoria
p2793
tp2794
a(VHeihachi mishima
p2795
VSuper skrull
p2796
VSuper skrull
p2797
tp2798
a(VEiko magami
p2799
VTenma-sama
p2800
tp2801
a(VDee jay
p2802
VScorpion
p2803
VDee jay
p2804
tp2805
a(VCc iron clara
p2806
VBlue ranger
p2807
VCc iron clara
p2808
tp2809
a(VBaitang
p2810
VBlack ranger
p2811
VBlack ranger
p2812
tp2813
a(VGambit
p2814
VOozaru
p2815
VOozaru
p2816
tp2817
a(VGreat gohan
p2818
VWind
p2819
VGreat gohan
p2820
tp2821
a(VRugal
p2822
VQuicksilver
p2823
VRugal
p2824
tp2825
a(VJissou seki
p2826
VEvil ken
p2827
VEvil ken
p2828
tp2829
a(VManbou
p2830
VRyu
p2831
VRyu
p2832
tp2833
a(VVarnage
p2834
VCyclops
p2835
VVarnage
p2836
tp2837
a(VTenten
p2838
VSsj4gohan
p2839
VTenten
p2840
tp2841
a(VAbui
p2842
VLion magnus
p2843
VLion magnus
p2844
tp2845
a(VBomber man
p2846
VMilan flare
p2847
VMilan flare
p2848
tp2849
a(VCammy
p2850
VWinnie the pooh
p2851
VCammy
p2852
tp2853
a(VYumemi
p2854
VVenom scorpion
p2855
VYumemi
p2856
tp2857
a(VYun
p2858
VK9999
p2859
VYun
p2860
tp2861
a(VWolvenom
p2862
VSimba
p2863
VSimba
p2864
tp2865
a(VRyu
p2866
VGotenks gt
p2867
VRyu
p2868
tp2869
a(VGarfield
p2870
VCell
p2871
VCell
p2872
tp2873
a(VBilly lee
p2874
VMorfo
p2875
VBilly lee
p2876
tp2877
a(VDudley
p2878
VOjisama-chaos
p2879
VDudley
p2880
tp2881
a(VSasuke
p2882
VIvy
p2883
VIvy
p2884
tp2885
a(VStrider hien
p2886
VThor
p2887
VThor
p2888
tp2889
a(VPrincess silver
p2890
VArthur
p2891
VPrincess silver
p2892
tp2893
a(VBenimaru
p2894
VFox mccloud
p2895
VBenimaru
p2896
tp2897
a(VKoola
p2898
VZero svc
p2899
VKoola
p2900
tp2901
a(VKyo kusanagi
p2902
VAnother kyo
p2903
VAnother kyo
p2904
tp2905
a(VHebiitigo
p2906
VDeath maul
p2907
tp2908
a(VOmega red
p2909
VJuda
p2910
VOmega red
p2911
tp2912
a(VAlter amiba
p2913
VShino
p2914
VAlter amiba
p2915
tp2916
a(VYellow devil
p2917
VHatate_himekaidou
p2918
VHatate_himekaidou
p2919
tp2920
a(VBrian griffin
p2921
VChun-lee dark bolt
p2922
VChun-lee dark bolt
p2923
tp2924
a(VTetsuo
p2925
VPan
p2926
VPan
p2927
tp2928
a(VRare akuma
p2929
VUkitake
p2930
VRare akuma
p2931
tp2932
a(VKarin kanzuki
p2933
VChizuru kagura
p2934
VChizuru kagura
p2935
tp2936
a(VNanoha takamachi
p2937
VThe flash
p2938
VThe flash
p2939
tp2940
a(VUltimate cap
p2941
VBulleta
p2942
VUltimate cap
p2943
tp2944
a(VDr.doom
p2945
VBoo
p2946
VDr.doom
p2947
tp2948
a(VVidel
p2949
VAndroid 18
p2950
tp2951
a(VPossessed heita
p2952
VTenshinham
p2953
tp2954
a(VCrono
p2955
VCell jr
p2956
VCell jr
p2957
tp2958
a(VNanaya
p2959
VBlack mask
p2960
VBlack mask
p2961
tp2962
a(VJack frost
p2963
VCaptain commando
p2964
VCaptain commando
p2965
tp2966
a(VThink
p2967
VWell
p2968
VWell
p2969
tp2970
a(VAsh
p2971
VTemari
p2972
VAsh
p2973
tp2974
a(V98se
p2975
VBattousai
p2976
VBattousai
p2977
tp2978
a(VShadow vegeta
p2979
VRock volnutt
p2980
tp2981
a(VGreen lantern gg
p2982
VSsjgoku
p2983
VGreen lantern gg
p2984
tp2985
a(VReimi jyahana
p2986
VKrusty
p2987
VKrusty
p2988
tp2989
a(VGoenitz
p2990
VMukai
p2991
VGoenitz
p2992
tp2993
a(VShiki tohno
p2994
VShaoran lee
p2995
VShiki tohno
p2996
tp2997
a(VGinew
p2998
VThink
p2999
VThink
p3000
tp3001
a(VSalty goku
p3002
VThe dazzler
p3003
VThe dazzler
p3004
tp3005
a(VRugal
p3006
VZinc
p3007
VRugal
p3008
tp3009
a(VShangtsung
p3010
VGohan school
p3011
VGohan school
p3012
tp3013
a(VMedoi-san
p3014
VButt-head
p3015
VButt-head
p3016
tp3017
a(VHugo
p3018
VYoko yuki
p3019
VHugo
p3020
tp3021
a(VBattousai
p3022
VShiki tohno
p3023
VShiki tohno
p3024
tp3025
a(VGambit
p3026
VJin
p3027
VGambit
p3028
tp3029
a(VPetshop
p3030
VGinew
p3031
VGinew
p3032
tp3033
a(VBlack mask
p3034
VPicurin
p3035
VPicurin
p3036
tp3037
a(VVenom scorpion
p3038
VHads
p3039
VVenom scorpion
p3040
tp3041
a(VVisbou
p3042
VDio brando
p3043
VDio brando
p3044
tp3045
a(VFireman
p3046
VChichi
p3047
VChichi
p3048
tp3049
a(VC-19
p3050
VTaki
p3051
VC-19
p3052
tp3053
a(VSonic
p3054
VAnother kyo
p3055
VAnother kyo
p3056
tp3057
a(VPiccolo daimaoh
p3058
VCaptain america
p3059
VCaptain america
p3060
tp3061
a(VTalon
p3062
VKoola
p3063
VTalon
p3064
tp3065
a(VGuile
p3066
VRyu plus
p3067
VRyu plus
p3068
tp3069
a(VMegazord
p3070
VNagato yuki
p3071
VNagato yuki
p3072
tp3073
a(VYakui san
p3074
VNachi
p3075
VNachi
p3076
tp3077
a(VMagus
p3078
VItachi
p3079
VItachi
p3080
tp3081
a(VRaptor
p3082
VJudith
p3083
VRaptor
p3084
tp3085
a(VFox mccloud
p3086
VTung fu rue
p3087
VTung fu rue
p3088
tp3089
a(VWario
p3090
VInsane hiryu
p3091
VInsane hiryu
p3092
tp3093
a(VGouken
p3094
VPikachu
p3095
VGouken
p3096
tp3097
a(VBra
p3098
VJay garrick
p3099
VJay garrick
p3100
tp3101
a(VBrimstone
p3102
VSon gohan
p3103
VSon gohan
p3104
tp3105
a(VSsj4 goten
p3106
VPepe
p3107
VSsj4 goten
p3108
tp3109
a(VVenom
p3110
VLeona
p3111
VLeona
p3112
tp3113
a(VGideon
p3114
VHikaru
p3115
VGideon
p3116
tp3117
a(VSakura shingouji
p3118
VP. chunli
p3119
VP. chunli
p3120
tp3121
a(VDuke nukem
p3122
VMarrow
p3123
VMarrow
p3124
tp3125
a(VCyclops
p3126
VTapion
p3127
VCyclops
p3128
tp3129
a(VMaster hand
p3130
VPetshop
p3131
VMaster hand
p3132
tp3133
a(VLupin the 3rd
p3134
VMisty
p3135
VMisty
p3136
tp3137
a(VBalrog
p3138
VChill penguin
p3139
VChill penguin
p3140
tp3141
a(VFuture trunks
p3142
VOmega tiger woods
p3143
VOmega tiger woods
p3144
tp3145
a(VSimba
p3146
VDr.doom
p3147
VDr.doom
p3148
tp3149
a(VBroken
p3150
VVegeta
p3151
VBroken
p3152
tp3153
a(VDan
p3154
VLeela
p3155
VDan
p3156
tp3157
a(VYagumo
p3158
VNate summers
p3159
VNate summers
p3160
tp3161
a(VBishop
p3162
VNeji
p3163
VBishop
p3164
tp3165
a(VChichi
p3166
VAkiha
p3167
VAkiha
p3168
tp3169
a(VChaos hiryu
p3170
VEvil ryu
p3171
VChaos hiryu
p3172
tp3173
a(VDora
p3174
VMaximum frieza
p3175
VDora
p3176
tp3177
a(VZangya
p3178
VNeco chaos
p3179
VNeco chaos
p3180
tp3181
a(VOrochimaru
p3182
VGuy gardner
p3183
VOrochimaru
p3184
tp3185
a(VYoko yuki
p3186
VNate summers
p3187
VYoko yuki
p3188
tp3189
a(VYamiyuki
p3190
VStrong guy
p3191
VStrong guy
p3192
tp3193
a(VRadish ssj4
p3194
VCarnage
p3195
VRadish ssj4
p3196
tp3197
a(VCyclops
p3198
VKagami kyosuke
p3199
VCyclops
p3200
tp3201
a(VMystique
p3202
VKaguya kimimaro
p3203
VMystique
p3204
tp3205
a(VFat albert
p3206
VRyuuoutan
p3207
VFat albert
p3208
tp3209
a(VNrvnqsr chaos
p3210
VSaori - athena
p3211
VSaori - athena
p3212
tp3213
a(VDrdoom
p3214
VDonatello
p3215
VDrdoom
p3216
tp3217
a(VElecman
p3218
VPossessed heita
p3219
VPossessed heita
p3220
tp3221
a(VGoku gt
p3222
VDonatello
p3223
VDonatello
p3224
tp3225
a(VChaos blanka
p3226
VSion
p3227
VSion
p3228
tp3229
a(VSakura shingouji
p3230
VAndromeda
p3231
VAndromeda
p3232
tp3233
a(VBlack manta
p3234
VKhan
p3235
VKhan
p3236
tp3237
a(VMegazord
p3238
VSonson
p3239
VSonson
p3240
tp3241
a(VLast adult goku
p3242
VZantetsu
p3243
VLast adult goku
p3244
tp3245
a(VApocalypse
p3246
VChaos hiryu
p3247
VApocalypse
p3248
tp3249
a(VBurter
p3250
VBattle mahoro
p3251
VBurter
p3252
tp3253
a(VSakura
p3254
VSnoopy
p3255
VSakura
p3256
tp3257
a(VGoku sb1
p3258
VTyouunn-shiryu
p3259
VTyouunn-shiryu
p3260
tp3261
a(VRogue
p3262
VTron bonne
p3263
VRogue
p3264
tp3265
a(VRoll
p3266
VDrdoom
p3267
VDrdoom
p3268
tp3269
a(VYamazaki 71113
p3270
VSupergirl
p3271
VYamazaki 71113
p3272
tp3273
a(VChaka
p3274
VShiki tohno
p3275
VShiki tohno
p3276
tp3277
a(VGreat gohan
p3278
VCaptain caveman
p3279
VCaptain caveman
p3280
tp3281
a(VIvy
p3282
VTetsuo
p3283
VIvy
p3284
tp3285
a(VWindows me
p3286
VRyu
p3287
VRyu
p3288
tp3289
a(VDrill asamin
p3290
VSon gohan
p3291
VSon gohan
p3292
tp3293
a(VLayla
p3294
VDeath black shot
p3295
VDeath black shot
p3296
tp3297
a(VIchigo
p3298
VShiki tohno
p3299
VShiki tohno
p3300
tp3301
a(VEvil dan
p3302
VMr. increible
p3303
VEvil dan
p3304
tp3305
a(VDink smallwood
p3306
VBomber man
p3307
VDink smallwood
p3308
tp3309
a(VYuriesbyfe
p3310
VShiki vp
p3311
VShiki vp
p3312
tp3313
a(VYagumo
p3314
VThanoseid
p3315
VThanoseid
p3316
tp3317
a(VCyclops
p3318
VFubuki sakuragasaki
p3319
VCyclops
p3320
tp3321
a(VAlice
p3322
VRadish ssj4
p3323
VRadish ssj4
p3324
tp3325
a(VThe flash
p3326
VGeese
p3327
VThe flash
p3328
tp3329
a(VKim kaphwan
p3330
VSuper sonic
p3331
VKim kaphwan
p3332
tp3333
a(VTetsuo
p3334
VFox mccloud
p3335
VFox mccloud
p3336
tp3337
a(VNightcrawler
p3338
VRoa
p3339
VRoa
p3340
tp3341
a(VFloren
p3342
VCaptain marvell
p3343
VCaptain marvell
p3344
tp3345
a(VSentry
p3346
VIchi
p3347
VIchi
p3348
tp3349
a(VThe joker
p3350
VKrauser
p3351
VKrauser
p3352
tp3353
a(VGoku normal hd
p3354
VThe thing
p3355
VThe thing
p3356
tp3357
a(VRhadamantis
p3358
VRyu
p3359
VRyu
p3360
tp3361
a(VSpider-man 2099
p3362
VFuture trunks
p3363
VSpider-man 2099
p3364
tp3365
a(VVega
p3366
VHugo
p3367
VHugo
p3368
tp3369
a(VDr.doom
p3370
VSailor mars
p3371
VDr.doom
p3372
tp3373
a(VG-akiha
p3374
VSimonkin2006
p3375
VG-akiha
p3376
tp3377
a(VGouken
p3378
VNightcrawler
p3379
VGouken
p3380
tp3381
a(VKiba
p3382
VOssan
p3383
VOssan
p3384
tp3385
a(VJon talbain
p3386
VGray fly
p3387
VGray fly
p3388
tp3389
a(VModoi-san
p3390
VChibi ubuu
p3391
VChibi ubuu
p3392
tp3393
a(VSuperboy
p3394
VNaruto
p3395
VSuperboy
p3396
tp3397
a(VStrong guy
p3398
VPhoenix
p3399
VStrong guy
p3400
tp3401
a(VBarney
p3402
VFat albert
p3403
VBarney
p3404
tp3405
a(VNightmare yamazaki
p3406
VSupergirl
p3407
VSupergirl
p3408
tp3409
a(VSimonkin2006
p3410
VJuggernaut
p3411
VJuggernaut
p3412
tp3413
a(VHaku
p3414
VMissmarvel
p3415
VMissmarvel
p3416
tp3417
a(VYoutube poop robotnik
p3418
VMegaman.exe
p3419
VYoutube poop robotnik
p3420
tp3421
a(VZidane
p3422
VKuroko
p3423
VKuroko
p3424
tp3425
a(VSandman
p3426
VFuture trunks
p3427
VSandman
p3428
tp3429
a(VAsh
p3430
VBerserk
p3431
VBerserk
p3432
tp3433
a(VAgony
p3434
VDare devil
p3435
VAgony
p3436
tp3437
a(VHelion
p3438
VFat boo
p3439
VHelion
p3440
tp3441
a(VMarle
p3442
VMarrow
p3443
VMarrow
p3444
tp3445
a(VG-bit
p3446
VMarrow
p3447
VMarrow
p3448
tp3449
a(VRamon 71113
p3450
VMexican typhoon
p3451
VRamon 71113
p3452
tp3453
a(VSakura
p3454
VRonald
p3455
VRonald
p3456
tp3457
a(VZaku
p3458
VEvil ryu
p3459
VEvil ryu
p3460
tp3461
a(VFlash
p3462
VRyuuoutan
p3463
VRyuuoutan
p3464
tp3465
a(VMajin vegeta
p3466
VLucky 71113
p3467
VMajin vegeta
p3468
tp3469
a(VBack beard
p3470
VVegeta
p3471
VVegeta
p3472
tp3473
a(VNamor
p3474
VOgre
p3475
VOgre
p3476
tp3477
a(VCv wakamoto
p3478
VSonic
p3479
VSonic
p3480
tp3481
a(V95 no danna
p3482
VGreat gohan
p3483
VGreat gohan
p3484
tp3485
a(VChizuru kagura
p3486
VThe thing
p3487
VChizuru kagura
p3488
tp3489
a(VColossus
p3490
VShadow dio
p3491
VShadow dio
p3492
tp3493
a(VPredator
p3494
VLi sheng long
p3495
VLi sheng long
p3496
tp3497
a(VMarrow
p3498
VLucky 71113
p3499
VMarrow
p3500
tp3501
a(VTetsuo
p3502
VAnnie murakami
p3503
VAnnie murakami
p3504
tp3505
a(VDhalsim
p3506
VYashaoh
p3507
VDhalsim
p3508
tp3509
a(VCharlotte
p3510
VRobo-kyii
p3511
VCharlotte
p3512
tp3513
a(VSponge bob
p3514
VBlanka
p3515
VBlanka
p3516
tp3517
a(VIori 71113
p3518
VSuper sonic
p3519
VIori 71113
p3520
tp3521
a(VGoku kaiouken x4
p3522
VParasite
p3523
VParasite
p3524
tp3525
a(VGogeta super saiyan 3
p3526
VSuper androide 17 hd
p3527
VSuper androide 17 hd
p3528
tp3529
a(VZaku
p3530
VJuda
p3531
VJuda
p3532
tp3533
a(VKenpachi
p3534
VSuperboy
p3535
VKenpachi
p3536
tp3537
a(VBeast
p3538
VTetsuo
p3539
VBeast
p3540
tp3541
a(VTrunks ssj4
p3542
VTen-sing
p3543
VTrunks ssj4
p3544
tp3545
a(VKenshiro
p3546
VSuper androide 17 hd
p3547
VSuper androide 17 hd
p3548
tp3549
a(VAndroid 18
p3550
VMimic
p3551
VMimic
p3552
tp3553
a(VZangya
p3554
VDhalsim
p3555
VDhalsim
p3556
tp3557
a(VYashaoh
p3558
VWildcat
p3559
VYashaoh
p3560
tp3561
a(VShuh
p3562
VGonzales
p3563
VGonzales
p3564
tp3565
a(VPiccolo daimaoh
p3566
VTrevor spacer
p3567
VPiccolo daimaoh
p3568
tp3569
a(VAsh
p3570
VRyu
p3571
VRyu
p3572
tp3573
a(VRoll
p3574
VNobunaga
p3575
VRoll
p3576
tp3577
a(VGoku sb1
p3578
VPossessed heita
p3579
VPossessed heita
p3580
tp3581
a(VMegazord
p3582
VRobo rock
p3583
VRobo rock
p3584
tp3585
a(VFrog
p3586
VCammy
p3587
VFrog
p3588
tp3589
a(VBalrog
p3590
VRobin
p3591
VRobin
p3592
tp3593
a(VT. kawk
p3594
VRoll
p3595
VT. kawk
p3596
tp3597
a(VWaha-
p3598
VSuper vegeta
p3599
VWaha-
p3600
tp3601
a(VYuki
p3602
VA.b.a
p3603
VYuki
p3604
tp3605
a(VWolvenom
p3606
VSegalow
p3607
VSegalow
p3608
tp3609
a(VVice
p3610
VKazama sogetsu
p3611
VKazama sogetsu
p3612
tp3613
a(VBlack manta
p3614
VM. bison
p3615
VM. bison
p3616
tp3617
a(VG-akiha
p3618
VJoseph the b.b.
p3619
VG-akiha
p3620
tp3621
a(VKenshirou
p3622
VJuan
p3623
VJuan
p3624
tp3625
a(VMilan flare
p3626
VDink smallwood
p3627
VDink smallwood
p3628
tp3629
a(VOgre akuma
p3630
VKang
p3631
VOgre akuma
p3632
tp3633
a(VGarlic junior
p3634
VDoparmin
p3635
VDoparmin
p3636
tp3637
a(VRemilia
p3638
VShadow vegeta
p3639
VRemilia
p3640
tp3641
a(VNaruto
p3642
VLion magnus
p3643
VLion magnus
p3644
tp3645
a(VToki
p3646
VSnake eyes
p3647
VSnake eyes
p3648
tp3649
a(VPopeye
p3650
VNightwing
p3651
VPopeye
p3652
tp3653
a(VDiablo_skeleton
p3654
VSailor moon
p3655
VDiablo_skeleton
p3656
tp3657
a(VCc iron clara
p3658
VMarle
p3659
VCc iron clara
p3660
tp3661
a(VDr.gero
p3662
VRogue
p3663
VDr.gero
p3664
tp3665
a(VRonald
p3666
VMisty
p3667
VRonald
p3668
tp3669
a(VHobgoblin
p3670
VBison
p3671
VHobgoblin
p3672
tp3673
a(VMephisto
p3674
VTiger
p3675
VMephisto
p3676
tp3677
a(VSatsuki
p3678
VMech gouki
p3679
VSatsuki
p3680
tp3681
a(VKung fu fiunn
p3682
VChaka
p3683
VKung fu fiunn
p3684
tp3685
a(VKnuckles
p3686
VPunisher
p3687
VKnuckles
p3688
tp3689
a(VYoh
p3690
VJedah
p3691
VJedah
p3692
tp3693
a(VRyo
p3694
VLast adult goku
p3695
VRyo
p3696
tp3697
a(VKing godzilla
p3698
VChill penguin
p3699
VKing godzilla
p3700
tp3701
a(VRaiden
p3702
VDooby dummy
p3703
VDooby dummy
p3704
tp3705
a(VRandy m. green
p3706
VMega gohan
p3707
VRandy m. green
p3708
tp3709
a(VIron lantern
p3710
VJackal
p3711
VIron lantern
p3712
tp3713
a(VYamazaki 71113
p3714
VBanshee
p3715
VYamazaki 71113
p3716
tp3717
a(VFranko
p3718
VYashaoh
p3719
VFranko
p3720
tp3721
a(VCell junior
p3722
VSasuke
p3723
VCell junior
p3724
tp3725
a(VGlacius
p3726
VBishamon
p3727
VGlacius
p3728
tp3729
a(VXanmi chan
p3730
VAlter amiba
p3731
VAlter amiba
p3732
tp3733
a(VDark ryu
p3734
VMystique
p3735
VMystique
p3736
tp3737
a(VDan
p3738
VSquall
p3739
VSquall
p3740
tp3741
a(VTen
p3742
VBenimaru
p3743
VTen
p3744
tp3745
a(VShin gouki
p3746
VTrunks ssj4
p3747
VShin gouki
p3748
tp3749
a(VGogeta ssj4
p3750
VBeast
p3751
VBeast
p3752
tp3753
a(VRai
p3754
VRajaamaki
p3755
VRajaamaki
p3756
tp3757
a(VMb-02
p3758
VGeese
p3759
VMb-02
p3760
tp3761
a(VWindows me
p3762
VTails
p3763
VTails
p3764
tp3765
a(VDeath maul
p3766
VBarney
p3767
VBarney
p3768
tp3769
a(VBurter
p3770
VKang
p3771
VBurter
p3772
tp3773
a(VAirman
p3774
VCarnage
p3775
VCarnage
p3776
tp3777
a(VUsapi-
p3778
VOmega red
p3779
VUsapi-
p3780
tp3781
a(VGoten gt
p3782
VYuki
p3783
VGoten gt
p3784
tp3785
a(VCrono
p3786
VGogeta ssj4
p3787
VGogeta ssj4
p3788
tp3789
a(VKenshiro
p3790
VCatwoman
p3791
VKenshiro
p3792
tp3793
a(VTerry
p3794
VDeath ogre
p3795
VDeath ogre
p3796
tp3797
a(VDragon claw
p3798
VYumeji kurokouchi
p3799
VDragon claw
p3800
tp3801
a(VYellow devil
p3802
VTung fu rue
p3803
VYellow devil
p3804
tp3805
a(VHokage
p3806
VChameleon
p3807
VChameleon
p3808
tp3809
a(VMilan flare
p3810
VDooby dummy
p3811
VDooby dummy
p3812
tp3813
a(VDeadpool
p3814
VBrimstone
p3815
VDeadpool
p3816
tp3817
a(VWind
p3818
VFirebrand
p3819
VFirebrand
p3820
tp3821
a(VPsylocke
p3822
VSuper sonic
p3823
VSuper sonic
p3824
tp3825
a(VRoll
p3826
VGoten gt nex
p3827
VGoten gt nex
p3828
tp3829
a(VZettaiaku
p3830
VRyu
p3831
VRyu
p3832
tp3833
a(VGoten
p3834
VAxl
p3835
VAxl
p3836
tp3837
a(VGoku db
p3838
VAoshi
p3839
VAoshi
p3840
tp3841
a(VKrizalid
p3842
VKen
p3843
VKrizalid
p3844
tp3845
a(VTron bonne
p3846
VSonson
p3847
VSonson
p3848
tp3849
a(VJabu
p3850
VZero
p3851
VJabu
p3852
tp3853
a(VBra
p3854
VDuke nukem
p3855
VBra
p3856
tp3857
a(VRobin
p3858
VMarvin
p3859
VRobin
p3860
tp3861
a(VClark
p3862
VYakui san
p3863
VClark
p3864
tp3865
a(VBattle mahoro
p3866
VRoll
p3867
VBattle mahoro
p3868
tp3869
a(VMega piccolo
p3870
VJuan
p3871
VJuan
p3872
tp3873
a(VEvil homer
p3874
VDio brando
p3875
VEvil homer
p3876
tp3877
a(VJissou seki
p3878
VChizuru kagura
p3879
VChizuru kagura
p3880
tp3881
a(VCharlotte
p3882
VWolverine
p3883
VWolverine
p3884
tp3885
a(VAngus
p3886
VBroly
p3887
VAngus
p3888
tp3889
a(V(sman)
p3890
VSyo hayate
p3891
VSyo hayate
p3892
tp3893
a(VIggy
p3894
VXp(pro)
p3895
VIggy
p3896
tp3897
a(VIronman
p3898
VReptos
p3899
VIronman
p3900
tp3901
a(VZero
p3902
VHol horse
p3903
VZero
p3904
tp3905
a(VAoi-ko
p3906
VGoku normal hd
p3907
VAoi-ko
p3908
tp3909
a(VMarie
p3910
VSean matsuda
p3911
VSean matsuda
p3912
tp3913
a(VPicurin
p3914
VZettaiaku
p3915
VPicurin
p3916
tp3917
a(VMusashi akatsuki
p3918
VSaori - athena
p3919
VSaori - athena
p3920
tp3921
a(VPoison
p3922
VGreen lantern
p3923
VGreen lantern
p3924
tp3925
a(VTenshinham
p3926
VSailor venus
p3927
VSailor venus
p3928
tp3929
a(VVanilla h
p3930
VInvisible woman
p3931
VVanilla h
p3932
tp3933
a(VLee
p3934
VCaptain america
p3935
VCaptain america
p3936
tp3937
a(VVega
p3938
VBilly lee
p3939
VBilly lee
p3940
tp3941
a(VWhite len
p3942
VBattle mahoro
p3943
VBattle mahoro
p3944
tp3945
a(VKagome
p3946
VThe dazzler
p3947
VThe dazzler
p3948
tp3949
a(VTung fu rue
p3950
VMagus
p3951
VTung fu rue
p3952
tp3953
a(VNoroko
p3954
VChouji
p3955
VChouji
p3956
tp3957
a(VSilver horns
p3958
VSsjgoku
p3959
VSilver horns
p3960
tp3961
a(VR. lilith
p3962
VVertigo
p3963
VVertigo
p3964
tp3965
a(VOozura bebi
p3966
VMako
p3967
VOozura bebi
p3968
tp3969
a(VAlter amiba
p3970
VPossessed heita
p3971
VAlter amiba
p3972
tp3973
a(VKy
p3974
VShaoran lee
p3975
VShaoran lee
p3976
tp3977
a(VJon talbain
p3978
VOmega red
p3979
tp3980
a(VKamek
p3981
VKujo jotaro
p3982
VKamek
p3983
tp3984
a(VHellboy
p3985
VNail
p3986
VNail
p3987
tp3988
a(VRed cyclone
p3989
VAnna
p3990
VRed cyclone
p3991
tp3992
a(VRose
p3993
VShin kazuma
p3994
VShin kazuma
p3995
tp3996
a(VEagle
p3997
VWolvenom
p3998
VEagle
p3999
tp4000
a(VKingpin
p4001
VChipp
p4002
VKingpin
p4003
tp4004
a(VKakashi
p4005
VDhalsim
p4006
VDhalsim
p4007
tp4008
a(VHomero
p4009
VUzumaki naruto
p4010
VHomero
p4011
tp4012
a(VIchigo
p4013
VGuy
p4014
VGuy
p4015
tp4016
a(VHel'lauren
p4017
VPhoenix
p4018
VHel'lauren
p4019
tp4020
a(VSuperman
p4021
VChang
p4022
VChang
p4023
tp4024
a(VCammy
p4025
VDeath maul
p4026
VCammy
p4027
tp4028
a(VG rugal
p4029
VTara-gyouza
p4030
VG rugal
p4031
tp4032
a(VDodgers
p4033
VPunisher
p4034
VPunisher
p4035
tp4036
a(VYue
p4037
VSuigintou
p4038
VYue
p4039
tp4040
a(VJedah
p4041
VShaq
p4042
VJedah
p4043
tp4044
a(VMarvin
p4045
VJuan
p4046
VJuan
p4047
tp4048
a(VWaha-
p4049
VKomepo
p4050
VWaha-
p4051
tp4052
a(VGreat gohan
p4053
VTails
p4054
VTails
p4055
tp4056
a(VYuki in midday
p4057
VIchi
p4058
VIchi
p4059
tp4060
a(VHe-man
p4061
VGoten gt
p4062
VGoten gt
p4063
tp4064
a(VSion
p4065
VWhite ranger
p4066
VSion
p4067
tp4068
a(VKen
p4069
VAndroid 17
p4070
VKen
p4071
tp4072
a(VAnother jissou seki
p4073
VGohan fight money
p4074
VGohan fight money
p4075
tp4076
a(VPsychopath kyo
p4077
VRajaayuri
p4078
VRajaayuri
p4079
tp4080
a(VMay
p4081
VSnoopy
p4082
VSnoopy
p4083
tp4084
a(VMoorhunn
p4085
VRimle
p4086
VRimle
p4087
tp4088
a(VMillia
p4089
VGambit
p4090
VMillia
p4091
tp4092
a(VMichaelangelo
p4093
VCrystal
p4094
VCrystal
p4095
tp4096
a(VMike tyson
p4097
VV.akiha
p4098
VMike tyson
p4099
tp4100
a(VBabidi
p4101
VNero
p4102
VNero
p4103
tp4104
a(VWarmachine
p4105
VCell junior
p4106
VCell junior
p4107
tp4108
a(VGold warmachine
p4109
VMisty
p4110
VGold warmachine
p4111
tp4112
a(VAsh
p4113
VCarnage
p4114
VAsh
p4115
tp4116
a(VHagen
p4117
VMarco
p4118
VHagen
p4119
tp4120
a(VKszsk-shuko
p4121
VBatgirl
p4122
VKszsk-shuko
p4123
tp4124
a(VBatman beyond
p4125
VCloud
p4126
VCloud
p4127
tp4128
a(VHokage
p4129
VAoi-ko
p4130
VAoi-ko
p4131
tp4132
a(VGorunks ssj4
p4133
VHibiki
p4134
VHibiki
p4135
tp4136
a(VGinew
p4137
VJissou seki
p4138
VJissou seki
p4139
tp4140
a(VTemari
p4141
VTrunks
p4142
VTemari
p4143
tp4144
a(VNobunaga
p4145
VAnakaris
p4146
VNobunaga
p4147
tp4148
a(VCrashman
p4149
VElectro
p4150
VCrashman
p4151
tp4152
a(VEagle
p4153
VMarvel spider-man
p4154
VEagle
p4155
tp4156
a(VRajaayuri
p4157
VZettaiaku
p4158
VRajaayuri
p4159
tp4160
a(VTerry
p4161
VRimle
p4162
VRimle
p4163
tp4164
a(VJuggernaut
p4165
VGreen goblin
p4166
VJuggernaut
p4167
tp4168
a(VDocinho
p4169
VPhoenix
p4170
VDocinho
p4171
tp4172
a(VVice
p4173
VLucca
p4174
VVice
p4175
tp4176
a(VLou
p4177
VJill
p4178
VLou
p4179
tp4180
a(VTrunks ssj4
p4181
VWonder woman
p4182
VWonder woman
p4183
tp4184
a(VChang
p4185
VTetsuo
p4186
VChang
p4187
tp4188
a(VCaptain ginyu
p4189
VSakura kinomoto
p4190
VSakura kinomoto
p4191
tp4192
a(VMakoto
p4193
VBlue destiny 2
p4194
VBlue destiny 2
p4195
tp4196
a(VGreen arrow
p4197
VMegaman
p4198
VGreen arrow
p4199
tp4200
a(VGokussj4d
p4201
VNeco-arc chaos
p4202
VNeco-arc chaos
p4203
tp4204
a(VBlue ranger
p4205
VDaimon 71113
p4206
VDaimon 71113
p4207
tp4208
a(VKy
p4209
VGohan ssj4
p4210
VGohan ssj4
p4211
tp4212
a(VApocalypse
p4213
VPotemkin
p4214
VApocalypse
p4215
tp4216
a(VRyu hayabusa
p4217
VRinfa
p4218
VRyu hayabusa
p4219
tp4220
a(VWonder woman
p4221
VNaruto
p4222
VWonder woman
p4223
tp4224
a(VZidane
p4225
VKung fu fiunn
p4226
VKung fu fiunn
p4227
tp4228
a(VJill
p4229
VGundam heavy arms
p4230
VGundam heavy arms
p4231
tp4232
a(VRobo-kyii
p4233
VPhoenix
p4234
VPhoenix
p4235
tp4236
a(VSkeletor
p4237
VTemari
p4238
VTemari
p4239
tp4240
a(VGohan school
p4241
VLi sheng long
p4242
VLi sheng long
p4243
tp4244
a(VGohan saiya-jin ex
p4245
VSakon
p4246
VGohan saiya-jin ex
p4247
tp4248
a(VJiroubou
p4249
VAlter amiba
p4250
VAlter amiba
p4251
tp4252
a(VButtercup
p4253
VMega gohan
p4254
VButtercup
p4255
tp4256
a(VCyclops
p4257
VBootleg ryu
p4258
VCyclops
p4259
tp4260
a(VShin scrub ken
p4261
VUryuu
p4262
VShin scrub ken
p4263
tp4264
a(VJudgement
p4265
VMega piccolo
p4266
VJudgement
p4267
tp4268
a(VLucky 71113
p4269
VSquall
p4270
VSquall
p4271
tp4272
a(VWildcat
p4273
VSolid snake
p4274
VSolid snake
p4275
tp4276
a(VGideon
p4277
VBlob
p4278
VGideon
p4279
tp4280
a(VUltron
p4281
VMega gohan
p4282
VUltron
p4283
tp4284
a(VHeika
p4285
VTsugumi
p4286
VTsugumi
p4287
tp4288
a(VSailor venus
p4289
VWario
p4290
VSailor venus
p4291
tp4292
a(VAvdol ver 2001/01/30 by camrat
p4293
VKid gohan ssj1
p4294
VAvdol ver 2001/01/30 by camrat
p4295
tp4296
a(VAndroid 17
p4297
VShadowman cfas
p4298
VShadowman cfas
p4299
tp4300
a(VBabidi
p4301
VKohaku
p4302
VKohaku
p4303
tp4304
a(VCaptain marvel
p4305
VMidler
p4306
VCaptain marvel
p4307
tp4308
a(VHyper neo-kamek
p4309
VMickey
p4310
VHyper neo-kamek
p4311
tp4312
a(VBlack polnareff
p4313
VSoujiro
p4314
VSoujiro
p4315
tp4316
a(VIggy
p4317
VPerfect storm x
p4318
VPerfect storm x
p4319
tp4320
a(VSymbiote spider-man
p4321
VBebi vegeta
p4322
VSymbiote spider-man
p4323
tp4324
a(VE-102r
p4325
VMega piccolo
p4326
VE-102r
p4327
tp4328
a(VMinis mahn
p4329
VGodman
p4330
VGodman
p4331
tp4332
a(VYoko yuki
p4333
VA.b.a
p4334
VYoko yuki
p4335
tp4336
a(VSsj5 goku
p4337
VSuper buu
p4338
VSsj5 goku
p4339
tp4340
a(VGoku db
p4341
VMongul
p4342
VMongul
p4343
tp4344
a(VAtusi
p4345
VSentry
p4346
VSentry
p4347
tp4348
a(VMr buu
p4349
VShadir
p4350
VShadir
p4351
tp4352
a(VEiji kisaragi
p4353
VHisame shizumaru
p4354
VHisame shizumaru
p4355
tp4356
a(VCell
p4357
VTrevor spacer
p4358
VTrevor spacer
p4359
tp4360
a(VFuture trunks
p4361
VSol
p4362
VFuture trunks
p4363
tp4364
a(VMb-02
p4365
VSailor mars
p4366
VMb-02
p4367
tp4368
a(VWarmachine
p4369
VAmi bf
p4370
VAmi bf
p4371
tp4372
a(VAlessi
p4373
VRecoome
p4374
VAlessi
p4375
tp4376
a(VMagus
p4377
VKrizalid
p4378
VKrizalid
p4379
tp4380
a(VShin ryu
p4381
VMorph
p4382
VMorph
p4383
tp4384
a(VHarley quinn
p4385
VMega lilde
p4386
VHarley quinn
p4387
tp4388
a(VNeji
p4389
VKagome
p4390
VNeji
p4391
tp4392
a(VGoku nex
p4393
VMr.karate
p4394
VGoku nex
p4395
tp4396
a(VRouge
p4397
VSsj goku
p4398
VSsj goku
p4399
tp4400
a(VAmi bf
p4401
VGuy gardner
p4402
VAmi bf
p4403
tp4404
a(VMyuu
p4405
VChibi naruto
p4406
VMyuu
p4407
tp4408
a(VWaha-
p4409
VDuke nukem
p4410
VDuke nukem
p4411
tp4412
a(VChiel
p4413
VKouryu
p4414
VChiel
p4415
tp4416
a(VCrilin sposato
p4417
VNeyufeulle
p4418
VCrilin sposato
p4419
tp4420
a(VFrog
p4421
VDiablo
p4422
VFrog
p4423
tp4424
a(VMegazord
p4425
VSuper-8
p4426
VSuper-8
p4427
tp4428
a(VThunder megazord
p4429
VHol 'butt king' funtimes
p4430
VHol 'butt king' funtimes
p4431
tp4432
a(VTails
p4433
VHisui&kohaku;
p4434
VTails
p4435
tp4436
a(VJamian di corvus
p4437
VReimi jyahana
p4438
VJamian di corvus
p4439
tp4440
a(VTien
p4441
VBlockhead
p4442
VTien
p4443
tp4444
a(VNenaikodareda
p4445
VRikuo
p4446
VRikuo
p4447
tp4448
a(VSuper androide 17 hd
p4449
VCable
p4450
VSuper androide 17 hd
p4451
tp4452
a(VGato
p4453
VCartman
p4454
VGato
p4455
tp4456
a(VYoko yuki
p4457
VShishio
p4458
VShishio
p4459
tp4460
a(VKazuya mishima
p4461
VKyo
p4462
VKazuya mishima
p4463
tp4464
a(VParasite
p4465
VNorimaro
p4466
VParasite
p4467
tp4468
a(VBasara
p4469
VMaximum frieza
p4470
VBasara
p4471
tp4472
a(VZabuza
p4473
VCaptain commando
p4474
VCaptain commando
p4475
tp4476
a(VKagome
p4477
V20 (dr. gero)
p4478
V20 (dr. gero)
p4479
tp4480
a(VHugo
p4481
VDiablo_skeleton
p4482
VDiablo_skeleton
p4483
tp4484
a(VLeela
p4485
VMarle
p4486
VLeela
p4487
tp4488
a(VKid gohan
p4489
VUltraman
p4490
VUltraman
p4491
tp4492
a(VAndroid 18
p4493
VAoi-ko
p4494
VAndroid 18
p4495
tp4496
a(VRyu hayabusa
p4497
VSakura shingouji
p4498
VRyu hayabusa
p4499
tp4500
a(VDiablo
p4501
VSajin
p4502
VDiablo
p4503
tp4504
a(VGarfield
p4505
VCrilin sposato
p4506
VCrilin sposato
p4507
tp4508
a(VBarney
p4509
VRenamon
p4510
VBarney
p4511
tp4512
a(VSquall
p4513
VBizarro
p4514
VSquall
p4515
tp4516
a(VTerry
p4517
VOssan
p4518
VOssan
p4519
tp4520
a(VVegeta ssj5
p4521
VButtercup
p4522
VVegeta ssj5
p4523
tp4524
a(VJeice
p4525
VRhadamantis
p4526
VRhadamantis
p4527
tp4528
a(VRock volnutt
p4529
VShin gouki
p4530
VRock volnutt
p4531
tp4532
a(VMega vegeta
p4533
VDeadpool
p4534
VDeadpool
p4535
tp4536
a(VThe atom
p4537
VSakura kinomoto
p4538
VSakura kinomoto
p4539
tp4540
a(VZangyura
p4541
VAlex mercer
p4542
VAlex mercer
p4543
tp4544
a(VColossus
p4545
VClayface
p4546
VColossus
p4547
tp4548
a(VBullseye
p4549
VGoku kid
p4550
VBullseye
p4551
tp4552
a(VEriol hiiragizawa
p4553
VKuroko
p4554
VEriol hiiragizawa
p4555
tp4556
a(VMestre kame
p4557
VDocinho
p4558
VDocinho
p4559
tp4560
a(VVanilla h
p4561
VSandman
p4562
VSandman
p4563
tp4564
a(VQuicksilver
p4565
VMaster ryu
p4566
VMaster ryu
p4567
tp4568
a(VFireman
p4569
VGhetto warmachine
p4570
VGhetto warmachine
p4571
tp4572
a(VVegeta
p4573
VAmingo
p4574
VVegeta
p4575
tp4576
a(VDiablo_skeleton
p4577
VGoku sb1
p4578
VDiablo_skeleton
p4579
tp4580
a(VTen
p4581
VNrvnqsr chaos
p4582
VNrvnqsr chaos
p4583
tp4584
a(VPicurin
p4585
VRai
p4586
VRai
p4587
tp4588
a(VEvil ken
p4589
VBane
p4590
VEvil ken
p4591
tp4592
a(VEiko magami
p4593
VCharlie
p4594
VCharlie
p4595
tp4596
a(VHuman torch
p4597
VRaphael
p4598
VRaphael
p4599
tp4600
a(VJoseph the b.b.
p4601
VGogeta ssj4
p4602
VGogeta ssj4
p4603
tp4604
a(VHal jordan
p4605
VGohan school
p4606
VHal jordan
p4607
tp4608
a(VMars people
p4609
VSodom
p4610
VMars people
p4611
tp4612
a(VSnoopy
p4613
VBaby bonnie hood
p4614
VBaby bonnie hood
p4615
tp4616
a(VGodzilla
p4617
VMaster chief
p4618
VGodzilla
p4619
tp4620
a(VHomero
p4621
VSuper metroid
p4622
VSuper metroid
p4623
tp4624
a(VMega piccolo
p4625
VSamurai jack
p4626
VSamurai jack
p4627
tp4628
a(VNachi
p4629
VFranko
p4630
VNachi
p4631
tp4632
a(VSasuke
p4633
VDio
p4634
VDio
p4635
tp4636
a(VRogue
p4637
VKabal
p4638
VRogue
p4639
tp4640
a(VTerry
p4641
VKaren na hito
p4642
VKaren na hito
p4643
tp4644
a(VThe joker
p4645
VFloren
p4646
VThe joker
p4647
tp4648
a(VKang
p4649
VSynn
p4650
VSynn
p4651
tp4652
a(VGoku nex
p4653
VPhoenix
p4654
VGoku nex
p4655
tp4656
a(VPoppy
p4657
VVenom
p4658
VPoppy
p4659
tp4660
a(VMech zangief
p4661
VDocinho
p4662
VMech zangief
p4663
tp4664
a(VMr satan
p4665
VSonic machine
p4666
VSonic machine
p4667
tp4668
a(VRhino
p4669
VCable
p4670
VCable
p4671
tp4672
a(VVidel
p4673
VGohan  grande normale
p4674
VGohan  grande normale
p4675
tp4676
a(VBishop
p4677
VCaptain commando
p4678
VBishop
p4679
tp4680
a(VReptile
p4681
VAndore jr
p4682
VReptile
p4683
tp4684
a(VNyaonyao
p4685
VShadir
p4686
VShadir
p4687
tp4688
a(VOrochimaru
p4689
VGreen ranger
p4690
VOrochimaru
p4691
tp4692
a(VOre
p4693
VHideo&kyoko;
p4694
VHideo&kyoko;
p4695
tp4696
a(VBass
p4697
VGaits
p4698
VGaits
p4699
tp4700
a(VShuma gorath
p4701
VKaio shin
p4702
VShuma gorath
p4703
tp4704
a(VApocalypse
p4705
VShaq
p4706
VApocalypse
p4707
tp4708
a(VSuperman
p4709
VOgre
p4710
VOgre
p4711
tp4712
a(VMarco
p4713
VJissou seki
p4714
VMarco
p4715
tp4716
a(VVoid
p4717
VWonder woman
p4718
VWonder woman
p4719
tp4720
a(VYuki
p4721
VGreen goblin
p4722
VGreen goblin
p4723
tp4724
a(VIkkaku
p4725
VKenshirou
p4726
VIkkaku
p4727
tp4728
a(VVega
p4729
VChouji
p4730
VVega
p4731
tp4732
a(VKraken
p4733
VFerroman
p4734
VKraken
p4735
tp4736
a(VRugal
p4737
VFlonne
p4738
VFlonne
p4739
tp4740
a(VMaster hand
p4741
VCommissioner gordon
p4742
VMaster hand
p4743
tp4744
a(VZettaiaku
p4745
VDragon guy
p4746
VDragon guy
p4747
tp4748
a(VLast adult goku
p4749
VWildcat
p4750
VLast adult goku
p4751
tp4752
a(VSakura kinomoto
p4753
VMay
p4754
VSakura kinomoto
p4755
tp4756
a(VKuroko
p4757
VAmiba
p4758
VKuroko
p4759
tp4760
a(VDrill asamin
p4761
VGinew
p4762
VGinew
p4763
tp4764
a(VEvil ryu
p4765
VHugo
p4766
VEvil ryu
p4767
tp4768
a(VLayla
p4769
VJiroubou
p4770
VLayla
p4771
tp4772
a(VLeonardo
p4773
VKszsk-shuko
p4774
VLeonardo
p4775
tp4776
a(VKnuckles
p4777
VAlice
p4778
VAlice
p4779
tp4780
a(VSilver samurai
p4781
VJudith
p4782
VJudith
p4783
tp4784
a(VMedoi-san
p4785
VGodzilla
p4786
VGodzilla
p4787
tp4788
a(VDio
p4789
VFuture trunks
p4790
VDio
p4791
tp4792
a(VRyu plus
p4793
VRobert
p4794
VRyu plus
p4795
tp4796
a(VShuma gorath
p4797
VKrauser
p4798
VKrauser
p4799
tp4800
a(VTetsuo
p4801
VRadel
p4802
VRadel
p4803
tp4804
a(VUltraman
p4805
VJuggernaut
p4806
VJuggernaut
p4807
tp4808
a(VOrochimaru
p4809
VClayface
p4810
VOrochimaru
p4811
tp4812
a(VMarvin
p4813
VKoryu
p4814
VKoryu
p4815
tp4816
a(VThunder megazord
p4817
VLupin the 3rd
p4818
VLupin the 3rd
p4819
tp4820
a(VNeji
p4821
VRaditz
p4822
VNeji
p4823
tp4824
a(VMajin vegeta
p4825
VGoku ssj5
p4826
VMajin vegeta
p4827
tp4828
a(VMature
p4829
VDonatello
p4830
VMature
p4831
tp4832
a(VMyuu
p4833
VOgitafanada
p4834
VMyuu
p4835
tp4836
a(VGoku normal hd
p4837
VBlack widow
p4838
VBlack widow
p4839
tp4840
a(VElektra
p4841
VKrusty
p4842
VElektra
p4843
tp4844
a(VNrvnqsr chaos
p4845
VChipp
p4846
VNrvnqsr chaos
p4847
tp4848
a(VKakashi
p4849
VBarney
p4850
VBarney
p4851
tp4852
a(VStrider hiryu
p4853
VSub zero
p4854
VStrider hiryu
p4855
tp4856
a(VS.p.o. ryu
p4857
VPikachu
p4858
VS.p.o. ryu
p4859
tp4860
a(VOpera elmer
p4861
VThe joker
p4862
VOpera elmer
p4863
tp4864
a(VWonderman
p4865
VBison
p4866
VWonderman
p4867
tp4868
a(VFranko
p4869
VHato sabure
p4870
VHato sabure
p4871
tp4872
a(VNeji
p4873
VRyu plus
p4874
VRyu plus
p4875
tp4876
a(VNightcrawler
p4877
VGoku pce
p4878
VNightcrawler
p4879
tp4880
a(VOmegamon
p4881
VDeath black shot
p4882
VDeath black shot
p4883
tp4884
a(VKen
p4885
VZidane
p4886
VKen
p4887
tp4888
a(VAmy
p4889
VPossessed heita
p4890
VPossessed heita
p4891
tp4892
a(VGhetto warmachine
p4893
VYumi
p4894
VGhetto warmachine
p4895
tp4896
a(VKyo
p4897
VVegeta ssj1
p4898
VKyo
p4899
tp4900
a(VWildcat
p4901
VSpider-man 2099
p4902
VSpider-man 2099
p4903
tp4904
a(VGod ken
p4905
VGohan ssj4
p4906
VGohan ssj4
p4907
tp4908
a(VSpenoza
p4909
VEvil ryu
p4910
VEvil ryu
p4911
tp4912
a(VMr.satan
p4913
VYellow devil
p4914
VYellow devil
p4915
tp4916
a(VWonderman
p4917
VThanoseid
p4918
VWonderman
p4919
tp4920
a(VDevo
p4921
VRobo-ky
p4922
VRobo-ky
p4923
tp4924
a(VKakashi
p4925
VThe atom
p4926
VThe atom
p4927
tp4928
a(VMillia
p4929
VFireman
p4930
VMillia
p4931
tp4932
a(VWhite ranger
p4933
VXp(pro)
p4934
VXp(pro)
p4935
tp4936
a(VGreen goblin
p4937
VGoku kid
p4938
VGreen goblin
p4939
tp4940
a(VBurter
p4941
VGohan fight money
p4942
VBurter
p4943
tp4944
a(VRoll
p4945
VGinew
p4946
VRoll
p4947
tp4948
a(VC-19
p4949
VEagle
p4950
VEagle
p4951
tp4952
a(VSon gohan
p4953
VFrog
p4954
VSon gohan
p4955
tp4956
a(VKuroko
p4957
VChiaotzu
p4958
VChiaotzu
p4959
tp4960
a(VTen-sing
p4961
VShuma gorath
p4962
VShuma gorath
p4963
tp4964
a(VExocist(dnf)
p4965
VStrider hien
p4966
VStrider hien
p4967
tp4968
a(VScorpion
p4969
VJack frost
p4970
VJack frost
p4971
tp4972
a(VGogeta super saiyan 3
p4973
VGambit
p4974
VGogeta super saiyan 3
p4975
tp4976
a(VKyo 71113
p4977
VAstroboy
p4978
VKyo 71113
p4979
tp4980
a(VPopeye
p4981
VPerfect storm x
p4982
VPerfect storm x
p4983
tp4984
a(VI-no
p4985
VUltimate cap
p4986
VUltimate cap
p4987
tp4988
a(V009
p4989
VVegeta ssj3
p4990
VVegeta ssj3
p4991
tp4992
a(VBlaster
p4993
VRenamon
p4994
VRenamon
p4995
tp4996
a(VGaara
p4997
VDark ryu
p4998
VDark ryu
p4999
tp5000
a(VSsj gohan
p5001
VMai
p5002
VMai
p5003
tp5004
a(VHarley quinn
p5005
VW len ar
p5006
VHarley quinn
p5007
tp5008
a(VTenshinham
p5009
VSentinel
p5010
VSentinel
p5011
tp5012
a(VGogeta ssj4
p5013
VByakuya
p5014
VGogeta ssj4
p5015
tp5016
a(VShiki vp
p5017
VSnake eyes
p5018
VShiki vp
p5019
tp5020
a(VPhoenix
p5021
VToron
p5022
VToron
p5023
tp5024
a(VChaka
p5025
VUltraman
p5026
VUltraman
p5027
tp5028
a(VZinc
p5029
VE-102r
p5030
VZinc
p5031
tp5032
a(VHagen
p5033
VRose
p5034
VHagen
p5035
tp5036
a(VGohan zeta
p5037
VSsj goku
p5038
VGohan zeta
p5039
tp5040
a(VGlacius
p5041
VDizzy
p5042
VDizzy
p5043
tp5044
a(VSakura kinomoto
p5045
VIkisan
p5046
VSakura kinomoto
p5047
tp5048
a(VUltimate-gohan
p5049
VToron
p5050
VToron
p5051
tp5052
a(VInvisible woman
p5053
VVenom
p5054
VVenom
p5055
tp5056
a(VCrystal
p5057
VNaruto kun
p5058
VNaruto kun
p5059
tp5060
a(VSuper metroid
p5061
VSophitia
p5062
VSuper metroid
p5063
tp5064
a(VUsapi-
p5065
VGuy
p5066
VGuy
p5067
tp5068
a(VEmerl
p5069
VT. kawk
p5070
VT. kawk
p5071
tp5072
a(VRecoome
p5073
VKazama sogetsu
p5074
VKazama sogetsu
p5075
tp5076
a(VBack beard
p5077
VShino
p5078
VShino
p5079
tp5080
a(VSpawn
p5081
VGray fly
p5082
VSpawn
p5083
tp5084
a(VYakui san
p5085
VBass
p5086
VBass
p5087
tp5088
a(VShiki vp
p5089
VTerry bogard
p5090
VTerry bogard
p5091
tp5092
a(VVegeta normal 3
p5093
VPizza
p5094
VVegeta normal 3
p5095
tp5096
a(VNorimaro
p5097
VRose
p5098
VRose
p5099
tp5100
a(VM. bison
p5101
VMystique
p5102
VM. bison
p5103
tp5104
a(VMultiple man
p5105
VVega
p5106
VMultiple man
p5107
tp5108
a(VGiano
p5109
VChouji
p5110
VGiano
p5111
tp5112
a(VFordy
p5113
VJin saotome
p5114
VJin saotome
p5115
tp5116
a(VPiccolo daimaoh
p5117
VMegazord
p5118
VPiccolo daimaoh
p5119
tp5120
a(VMestre kame
p5121
VWarakia
p5122
VWarakia
p5123
tp5124
a(VKnuckles
p5125
VTin's fernandeath
p5126
VTin's fernandeath
p5127
tp5128
a(VLipsyncher
p5129
VM. bison
p5130
VM. bison
p5131
tp5132
a(VDaimon 71113
p5133
VTenshinham
p5134
VDaimon 71113
p5135
tp5136
a(VHomero
p5137
VOrchid
p5138
VOrchid
p5139
tp5140
a(VUltraman
p5141
VChomper
p5142
VChomper
p5143
tp5144
a(VGreen lantern gg
p5145
VKnuckles
p5146
VGreen lantern gg
p5147
tp5148
a(VGuy
p5149
VDr gero-and20
p5150
VGuy
p5151
tp5152
a(VAbui
p5153
VRhadamantis
p5154
VRhadamantis
p5155
tp5156
a(VArthur
p5157
VChiaotzu
p5158
VArthur
p5159
tp5160
a(VBaiken
p5161
VSon goku
p5162
VSon goku
p5163
tp5164
a(VVegeta normal 2
p5165
VOre
p5166
VVegeta normal 2
p5167
tp5168
a(VRikuo
p5169
VPlastic man
p5170
VRikuo
p5171
tp5172
a(VHaruno sakura
p5173
VDuke nukem
p5174
VDuke nukem
p5175
tp5176
a(VSpider-man 2099
p5177
VOmega red
p5178
VOmega red
p5179
tp5180
a(VGreen arrow
p5181
VWario
p5182
VWario
p5183
tp5184
a(VHarley quinn
p5185
VElectro
p5186
VElectro
p5187
tp5188
a(VSasuke kun
p5189
VPiccolo daimaoh
p5190
VSasuke kun
p5191
tp5192
a(VMilan flare
p5193
VB. magic girl
p5194
VMilan flare
p5195
tp5196
a(VMarvin
p5197
VVegeta ssj1
p5198
VMarvin
p5199
tp5200
a(VNakoruru
p5201
VWinnie the pooh
p5202
VNakoruru
p5203
tp5204
a(VRimle
p5205
VLee
p5206
VLee
p5207
tp5208
a(VBasara
p5209
VAsh
p5210
VAsh
p5211
tp5212
a(VBlodia
p5213
VRoll
p5214
VBlodia
p5215
tp5216
a(VLink
p5217
VKenpachi
p5218
VKenpachi
p5219
tp5220
a(VDr.doom
p5221
VShocker
p5222
VShocker
p5223
tp5224
a(VOjisama-chaos
p5225
VAoko
p5226
VAoko
p5227
tp5228
a(VK'
p5229
VEvil ranger
p5230
VK'
p5231
tp5232
a(VMajin buu
p5233
VChun-lee dark bolt
p5234
VChun-lee dark bolt
p5235
tp5236
a(VSakura kinomoto
p5237
VSatsuki
p5238
VSatsuki
p5239
tp5240
a(VMajin vegeta
p5241
VAxl
p5242
VMajin vegeta
p5243
tp5244
a(VNoriaki kakyoin
p5245
VChibi ubuu
p5246
VNoriaki kakyoin
p5247
tp5248
a(VBurta
p5249
VBlack adam
p5250
VBlack adam
p5251
tp5252
a(VAndroid 18
p5253
VGoku gt
p5254
VGoku gt
p5255
tp5256
a(VJon talbain
p5257
VVenom
p5258
VVenom
p5259
tp5260
a(VNinja megazord
p5261
VDiablo_skeleton
p5262
VDiablo_skeleton
p5263
tp5264
a(VMajin boo
p5265
VGogeta super saiyan 3
p5266
VGogeta super saiyan 3
p5267
tp5268
a(VTerry
p5269
VThe joker
p5270
VThe joker
p5271
tp5272
a(VButt-head
p5273
VAsh
p5274
VAsh
p5275
tp5276
a(VE-102r
p5277
VJimmy lee
p5278
VJimmy lee
p5279
tp5280
a(VZero svc
p5281
VUltimate-gohan
p5282
VZero svc
p5283
tp5284
a(VKuando
p5285
VRobin
p5286
VKuando
p5287
tp5288
a(VSon goku
p5289
VStrider hien
p5290
VStrider hien
p5291
tp5292
a(VNanaya shiki
p5293
VKen
p5294
VNanaya shiki
p5295
tp5296
a(VLi sheng long
p5297
VUryuu
p5298
VLi sheng long
p5299
tp5300
a(VChiel
p5301
VVegeta
p5302
VChiel
p5303
tp5304
a(VRobo-ky
p5305
VMega goku
p5306
VRobo-ky
p5307
tp5308
a(VThunder megazord
p5309
VChipp
p5310
VChipp
p5311
tp5312
a(VThe thing
p5313
VSylphie
p5314
VThe thing
p5315
tp5316
a(VAlex mercer
p5317
VBlaziken
p5318
VAlex mercer
p5319
tp5320
a(VFat boo
p5321
VMaximum frieza
p5322
VFat boo
p5323
tp5324
a(VKujo jotaro
p5325
VYakui san
p5326
VKujo jotaro
p5327
tp5328
a(VBulleta
p5329
VGiano
p5330
VGiano
p5331
tp5332
a(VKuma
p5333
VComplete cell
p5334
VKuma
p5335
tp5336
a(VGideon
p5337
VHaku
p5338
VGideon
p5339
tp5340
a(VNaruto kun
p5341
VNamor
p5342
VNaruto kun
p5343
tp5344
a(VDarkon
p5345
VFox mccloud
p5346
VFox mccloud
p5347
tp5348
a(VMegaman
p5349
VVegeta normal 2
p5350
VMegaman
p5351
tp5352
a(VShiki tohno
p5353
VGodman
p5354
VShiki tohno
p5355
tp5356
a(VLord ravenous
p5357
VX
p5358
VLord ravenous
p5359
tp5360
a(VZangyura
p5361
VComplete cell
p5362
VZangyura
p5363
tp5364
a(VDrill asamin
p5365
VCell
p5366
VCell
p5367
tp5368
a(VDr.gero
p5369
VMeta-knight
p5370
VDr.gero
p5371
tp5372
a(VYoh
p5373
VCaptain ginyu
p5374
VYoh
p5375
tp5376
a(VRandy m. green
p5377
VOjisama
p5378
VRandy m. green
p5379
tp5380
a(VFelicia
p5381
VShiki tohno
p5382
VShiki tohno
p5383
tp5384
a(VSad claps
p5385
VMega piccolo
p5386
VSad claps
p5387
tp5388
a(VFat albert
p5389
VNoriaki kakyoin
p5390
VNoriaki kakyoin
p5391
tp5392
a(VDonald
p5393
VEvil dan
p5394
VDonald
p5395
tp5396
a(VHaruhi suzumiya
p5397
VKarin kanzuki
p5398
VHaruhi suzumiya
p5399
tp5400
a(VAngus
p5401
VThunder megazord
p5402
VAngus
p5403
tp5404
a(VAlien queen
p5405
VGuy
p5406
VAlien queen
p5407
tp5408
a(VZaku
p5409
VBasara
p5410
VBasara
p5411
tp5412
a(VJohnny cage
p5413
VGray fly
p5414
VJohnny cage
p5415
tp5416
a(VOrochi
p5417
VSango
p5418
VOrochi
p5419
tp5420
a(VReptile
p5421
VDr.doom
p5422
VReptile
p5423
tp5424
a(VYamcha by tomur
p5425
VLynn baker
p5426
VYamcha by tomur
p5427
tp5428
a(VGuerrero divino del dragn
p5429
VGogeta ssj2
p5430
VGogeta ssj2
p5431
tp5432
a(VJimmy lee
p5433
VAsuta-san
p5434
VJimmy lee
p5435
tp5436
a(VSimonkin2005
p5437
VGohan ssj5
p5438
VGohan ssj5
p5439
tp5440
a(VKohaku
p5441
VOpera elmer
p5442
VOpera elmer
p5443
tp5444
a(VMarie
p5445
VRajaamaki
p5446
VRajaamaki
p5447
tp5448
a(VDhalsim
p5449
VJohnny
p5450
VJohnny
p5451
tp5452
a(VPrince vegeta
p5453
VAmiba
p5454
VPrince vegeta
p5455
tp5456
a(VKy
p5457
VLord raptor
p5458
VKy
p5459
tp5460
a(VSaba
p5461
VKrillin
p5462
VKrillin
p5463
tp5464
a(VThe joker
p5465
VSyo hayate
p5466
VThe joker
p5467
tp5468
a(VRanma saotome
p5469
VSpider-man 2099
p5470
VSpider-man 2099
p5471
tp5472
a(VPikachu
p5473
VPoison
p5474
VPikachu
p5475
tp5476
a(VShaoran lee
p5477
VPatchouli
p5478
VPatchouli
p5479
tp5480
a(VRoll
p5481
VMr. bison
p5482
VRoll
p5483
tp5484
a(VE-102r
p5485
VBlockhead
p5486
VBlockhead
p5487
tp5488
a(VStrider hien
p5489
VAvdol ver 2001/01/30 by camrat
p5490
VStrider hien
p5491
tp5492
a(VSynn
p5493
VIwao
p5494
VSynn
p5495
tp5496
a(VJackal
p5497
VKabal
p5498
VJackal
p5499
tp5500
a(VPsylocke
p5501
VKingpin
p5502
VKingpin
p5503
tp5504
a(VEvil soul
p5505
VBoo
p5506
VEvil soul
p5507
tp5508
a(VSentry
p5509
VKhan
p5510
VSentry
p5511
tp5512
a(V'gou no ken' kenshirou
p5513
VUltimate cap
p5514
VUltimate cap
p5515
tp5516
a(VShadow vegeta
p5517
VSajin
p5518
VShadow vegeta
p5519
tp5520
a(VYumeji kurokouchi
p5521
VChameleon
p5522
VChameleon
p5523
tp5524
a(VJotaro kujo
p5525
VShaq
p5526
VShaq
p5527
tp5528
a(VKarin kanzuki
p5529
VRoll
p5530
VRoll
p5531
tp5532
a(VGuldo
p5533
VBatman
p5534
VBatman
p5535
tp5536
a(VTakobue
p5537
VGogeta ssj4
p5538
VGogeta ssj4
p5539
tp5540
a(VInsane hiryu
p5541
VLobo
p5542
VInsane hiryu
p5543
tp5544
a(VThanos
p5545
VLesty
p5546
VThanos
p5547
tp5548
a(VDodgers
p5549
VHavok
p5550
VHavok
p5551
tp5552
a(VBatman
p5553
VSilver surfer
p5554
VBatman
p5555
tp5556
a(VHisui&kohaku;
p5557
VGreen arrow
p5558
VGreen arrow
p5559
tp5560
a(VFat albert
p5561
VThe blob
p5562
VThe blob
p5563
tp5564
a(VYamcha
p5565
VWarachia
p5566
VWarachia
p5567
tp5568
a(VDinozord
p5569
VShadir
p5570
VShadir
p5571
tp5572
a(VGogeta ssj
p5573
VMegaman
p5574
VMegaman
p5575
tp5576
a(VFlash
p5577
VGold warmachine
p5578
VFlash
p5579
tp5580
a(VWolverine
p5581
VLeonardo
p5582
VWolverine
p5583
tp5584
a(VKy
p5585
VSpawn
p5586
VSpawn
p5587
tp5588
a(VKurihan
p5589
VNyaonyao
p5590
VKurihan
p5591
tp5592
a(VJackal
p5593
VMay
p5594
VJackal
p5595
tp5596
a(VRare akuma
p5597
VVegeth@
p5598
VRare akuma
p5599
tp5600
a(VReimi jyahana
p5601
VShiki tohno
p5602
VShiki tohno
p5603
tp5604
a(VAndroid 18
p5605
VChill penguin
p5606
VChill penguin
p5607
tp5608
a(VE-terry 71113
p5609
VRemilia
p5610
VRemilia
p5611
tp5612
a(VDeath black shot
p5613
VBra
p5614
VDeath black shot
p5615
tp5616
a(VVanilla ice
p5617
VSetsuna
p5618
VSetsuna
p5619
tp5620
a(VBlack manta
p5621
VMaximum frieza
p5622
VMaximum frieza
p5623
tp5624
a(VYoko yuki
p5625
VBlockhead
p5626
VYoko yuki
p5627
tp5628
a(VShocker
p5629
VCell
p5630
VShocker
p5631
tp5632
a(VArchangel
p5633
VPerfect storm x
p5634
VPerfect storm x
p5635
tp5636
a(VFox mccloud
p5637
VJohnny cage
p5638
VJohnny cage
p5639
tp5640
a(VTrunks
p5641
VGinew
p5642
VTrunks
p5643
tp5644
a(VShiki tohno
p5645
VBrimstone
p5646
VShiki tohno
p5647
tp5648
a(VWolvenom
p5649
VCharlotte
p5650
VCharlotte
p5651
tp5652
a(VGeese
p5653
VRyu plus
p5654
VRyu plus
p5655
tp5656
a(VC-19
p5657
VVertigo
p5658
VVertigo
p5659
tp5660
a(VCaptain marvell
p5661
VShaoran lee
p5662
VShaoran lee
p5663
tp5664
a(VAmi
p5665
VChange dragon
p5666
VAmi
p5667
tp5668
a(VZemial
p5669
VWarakia
p5670
VWarakia
p5671
tp5672
a(VFlonne
p5673
VG rugal
p5674
VFlonne
p5675
tp5676
a(VElectro
p5677
VZinc
p5678
VZinc
p5679
tp5680
a(VJabu
p5681
VShin ryu
p5682
VJabu
p5683
tp5684
a(VChaos blanka
p5685
VHoly ken
p5686
VHoly ken
p5687
tp5688
a(VHobgoblin
p5689
VDosu
p5690
VHobgoblin
p5691
tp5692
a(VRikuo
p5693
VCaptain america
p5694
VRikuo
p5695
tp5696
a(VLink
p5697
VChiaotzu
p5698
VChiaotzu
p5699
tp5700
a(VKaede
p5701
VRasetsumaru
p5702
VRasetsumaru
p5703
tp5704
a(VFuture trunks
p5705
VNmori yagami
p5706
VNmori yagami
p5707
tp5708
a(VM. bison
p5709
VCharlotte
p5710
VCharlotte
p5711
tp5712
a(VStrider hiryu
p5713
VKnuckles
p5714
VStrider hiryu
p5715
tp5716
a(VSuper boo
p5717
VGuile
p5718
VGuile
p5719
tp5720
a(VBlack polnareff
p5721
VRecoome
p5722
VBlack polnareff
p5723
tp5724
a(VSaint kyo
p5725
VSoulgen
p5726
VSaint kyo
p5727
tp5728
a(VRaiden
p5729
VSon gohan
p5730
VRaiden
p5731
tp5732
a(VChipp
p5733
VAsh
p5734
VAsh
p5735
tp5736
a(VSabretooth
p5737
VKakashi
p5738
VSabretooth
p5739
tp5740
a(VPicurin
p5741
VVegeta
p5742
VVegeta
p5743
tp5744
a(VWhite ranger
p5745
VBlue ranger
p5746
VWhite ranger
p5747
tp5748
a(VPerfect storm x
p5749
VBatman
p5750
VPerfect storm x
p5751
tp5752
a(VIno
p5753
VAndroide 17
p5754
VAndroide 17
p5755
tp5756
a(VKuroko
p5757
VBullseye
p5758
VBullseye
p5759
tp5760
a(VSpider-man 2099
p5761
VCaptain ginyu
p5762
VSpider-man 2099
p5763
tp5764
a(VChill penguin
p5765
VShangtsung
p5766
VChill penguin
p5767
tp5768
a(VDr.doom
p5769
VUltraman
p5770
VDr.doom
p5771
tp5772
a(VGold warmachine
p5773
VHisui&kohaku;
p5774
VGold warmachine
p5775
tp5776
a(VKung fu fiunn
p5777
VGotenks ssj
p5778
VKung fu fiunn
p5779
tp5780
a(VVanilla ice
p5781
VInsane hiryu
p5782
VInsane hiryu
p5783
tp5784
a(VBroly
p5785
VJin
p5786
VBroly
p5787
tp5788
a(VWonderman
p5789
VUsapi-
p5790
VWonderman
p5791
tp5792
a(VVegeth ssj2
p5793
VSpiral
p5794
VSpiral
p5795
tp5796
a(VRobo-ky
p5797
VPicapiedra
p5798
VPicapiedra
p5799
tp5800
a(VAvdol ver 2001/01/30 by camrat
p5801
VBoulma
p5802
VAvdol ver 2001/01/30 by camrat
p5803
tp5804
a(VMidler
p5805
VRorschach
p5806
VMidler
p5807
tp5808
a(VSupergirl
p5809
VRegina
p5810
VSupergirl
p5811
tp5812
a(VRaditz
p5813
VChibi goku
p5814
VChibi goku
p5815
tp5816
a(VHory marlu
p5817
VCell jr
p5818
VCell jr
p5819
tp5820
a(VYue
p5821
VGoku nex
p5822
VGoku nex
p5823
tp5824
a(VLady deathstrike
p5825
VJudith
p5826
VJudith
p5827
tp5828
a(VKabal
p5829
VHal jordan
p5830
VHal jordan
p5831
tp5832
a(VTron bonne
p5833
VMoorhunn
p5834
VTron bonne
p5835
tp5836
a(VTrouble man
p5837
VJiroubou
p5838
VTrouble man
p5839
tp5840
a(VKyo 71113
p5841
VLex luthor
p5842
VLex luthor
p5843
tp5844
a(VKen
p5845
VXp(pro)
p5846
VKen
p5847
tp5848
a(VRadish ssj4
p5849
VKazuya mishima
p5850
VRadish ssj4
p5851
tp5852
a(VHugo
p5853
VTimmy turner
p5854
VHugo
p5855
tp5856
a(VSophitia
p5857
VHigyo-pam
p5858
VSophitia
p5859
tp5860
a(VHebiitigo
p5861
VHulk 2099
p5862
VHulk 2099
p5863
tp5864
a(VJon talbain
p5865
VDink smallwood
p5866
VDink smallwood
p5867
tp5868
a(VYumeji kurokouchi
p5869
VGreat s. man
p5870
VYumeji kurokouchi
p5871
tp5872
a(VIvy
p5873
VKouryu
p5874
VKouryu
p5875
tp5876
a(VKarin kanzuki
p5877
VKano
p5878
VKano
p5879
tp5880
a(VDaffy duck
p5881
VInuzuka kiba
p5882
VDaffy duck
p5883
tp5884
a(VRinfa
p5885
VLink
p5886
VRinfa
p5887
tp5888
a(VG-akiha
p5889
VBlockhead
p5890
VG-akiha
p5891
tp5892
a(VSsj3 goku
p5893
VMorrigan
p5894
VMorrigan
p5895
tp5896
a(VRobert
p5897
VShadowman cfas
p5898
VShadowman cfas
p5899
tp5900
a(VVegeta
p5901
VKhan
p5902
VVegeta
p5903
tp5904
a(VSad claps
p5905
VSion
p5906
VSad claps
p5907
tp5908
a(VLilith aensland
p5909
VLuigi
p5910
VLilith aensland
p5911
tp5912
a(VCable
p5913
VG-akiha
p5914
VG-akiha
p5915
tp5916
a(VRoll
p5917
VElectro
p5918
VRoll
p5919
tp5920
a(VSatsuki yumiduka
p5921
VLou
p5922
VSatsuki yumiduka
p5923
tp5924
a(VHal jordan
p5925
VKyle dunamis
p5926
VKyle dunamis
p5927
tp5928
a(VFelicia
p5929
VYamiyuki
p5930
VFelicia
p5931
tp5932
a(VMarrow
p5933
VHuman torch
p5934
VMarrow
p5935
tp5936
a(VBack beard
p5937
VKaren na hito
p5938
VKaren na hito
p5939
tp5940
a(VRose
p5941
VYuki
p5942
VYuki
p5943
tp5944
a(VKurama
p5945
VRaiden
p5946
VRaiden
p5947
tp5948
a(VPhoenix
p5949
VAndromeda
p5950
VPhoenix
p5951
tp5952
a(VDaimon 71113
p5953
VJagi
p5954
VDaimon 71113
p5955
tp5956
a(VChloe
p5957
VOozura vegeta
p5958
VOozura vegeta
p5959
tp5960
a(VInuzuka kiba
p5961
VGreen arrow
p5962
VGreen arrow
p5963
tp5964
a(VBeast
p5965
VAbui
p5966
VBeast
p5967
tp5968
a(VTeam nicktoon
p5969
VCaptain commando
p5970
VCaptain commando
p5971
tp5972
a(VPsychopath kyo
p5973
VTao jun
p5974
VPsychopath kyo
p5975
tp5976
a(VTabasa
p5977
VBlockhead
p5978
VBlockhead
p5979
tp5980
a(VMega goku
p5981
VStarfire
p5982
VStarfire
p5983
tp5984
a(VXp(pro)
p5985
VTien
p5986
VTien
p5987
tp5988
a(VRai
p5989
VRikuo
p5990
VRai
p5991
tp5992
a(VEvil ryu
p5993
VG-akiha
p5994
VG-akiha
p5995
tp5996
a(VHaggar
p5997
VBenimaru
p5998
VHaggar
p5999
tp6000
a(VRemilia
p6001
VFlash
p6002
VRemilia
p6003
tp6004
a(VSpiral
p6005
VMars people
p6006
VSpiral
p6007
tp6008
a(VSailor moon
p6009
VNrvnqsr chaos
p6010
VNrvnqsr chaos
p6011
tp6012
a(VGogeta ssj4
p6013
VNagato yuki
p6014
VGogeta ssj4
p6015
tp6016
a(VMorph
p6017
VRobocop
p6018
VMorph
p6019
tp6020
a(VPiccolo
p6021
V2k
p6022
VPiccolo
p6023
tp6024
a(VLady deathstrike
p6025
VTen-sing
p6026
VLady deathstrike
p6027
tp6028
a(VMagneto
p6029
VGoten gt nex
p6030
VGoten gt nex
p6031
tp6032
a(VNaruto
p6033
VUltimate-gohan
p6034
VNaruto
p6035
tp6036
a(VSlayer
p6037
VZangia
p6038
VZangia
p6039
tp6040
a(VMishio
p6041
VKagami kyosuke
p6042
VMishio
p6043
tp6044
a(VCc iron clara
p6045
VZantetsu
p6046
VCc iron clara
p6047
tp6048
a(VAngus
p6049
VAnnie murakami
p6050
VAngus
p6051
tp6052
a(VRyu
p6053
VKaguya kimimaro
p6054
VRyu
p6055
tp6056
a(VGinew
p6057
VBrainiac
p6058
VGinew
p6059
tp6060
a(VHugo
p6061
VWarakia
p6062
VWarakia
p6063
tp6064
a(VOrochimaru
p6065
VRoll
p6066
VOrochimaru
p6067
tp6068
a(VComplete cell
p6069
VGogeta ssj4
p6070
VGogeta ssj4
p6071
tp6072
a(VGeese
p6073
VCaptain marvel
p6074
VCaptain marvel
p6075
tp6076
a(VPhoenix
p6077
VWalkyrie
p6078
VWalkyrie
p6079
tp6080
a(VRaoh
p6081
VJin saotome
p6082
VJin saotome
p6083
tp6084
a(VHaruhi suzumiya
p6085
VBrainiac
p6086
VHaruhi suzumiya
p6087
tp6088
a(VKosmos
p6089
VBrimstone
p6090
VBrimstone
p6091
tp6092
a(VJack frost
p6093
VNero
p6094
VNero
p6095
tp6096
a(VTibigintou
p6097
VGambit
p6098
VGambit
p6099
tp6100
a(VDrdoom
p6101
VMaster chief
p6102
VDrdoom
p6103
tp6104
a(VPikachu
p6105
VSlayer
p6106
VPikachu
p6107
tp6108
a(VHugo
p6109
VPhoenix
p6110
VHugo
p6111
tp6112
a(VDeath ogre
p6113
VMotokoaoyama
p6114
VDeath ogre
p6115
tp6116
a(VSakura
p6117
VZero svc
p6118
VZero svc
p6119
tp6120
a(VAkiha
p6121
VCyborg superman
p6122
VCyborg superman
p6123
tp6124
a(VKen
p6125
VPsycho weapon
p6126
VPsycho weapon
p6127
tp6128
a(VVenom
p6129
VSuper skrull
p6130
VSuper skrull
p6131
tp6132
a(VNega joe
p6133
VAngus
p6134
VAngus
p6135
tp6136
a(VMongul
p6137
VMaxima
p6138
VMongul
p6139
tp6140
a(VChichi
p6141
VRoa
p6142
VRoa
p6143
tp6144
a(VJon talbain
p6145
VDiablo
p6146
VDiablo
p6147
tp6148
a(VBurta
p6149
VShocker
p6150
VShocker
p6151
tp6152
a(VSongoku-snk/sf
p6153
VKnuckles
p6154
VSongoku-snk/sf
p6155
tp6156
a(VSsj5 goku
p6157
VNeyufeulle
p6158
VSsj5 goku
p6159
tp6160
a(VJackal
p6161
VBaby commando
p6162
VJackal
p6163
tp6164
a(VNeco-arc
p6165
VSailor moon
p6166
VNeco-arc
p6167
tp6168
a(VRose
p6169
VHomero
p6170
VHomero
p6171
tp6172
a(VMarrow
p6173
VAnother jissou seki
p6174
VMarrow
p6175
tp6176
a(VHaruhi suzumiya
p6177
VMajin vegeta ssj6
p6178
VHaruhi suzumiya
p6179
tp6180
a(VYuriesbyfe
p6181
VKumao
p6182
VYuriesbyfe
p6183
tp6184
a(VPsychopath kyo
p6185
VNightcrawler
p6186
VPsychopath kyo
p6187
tp6188
a(VLayla
p6189
VBaby commando
p6190
VLayla
p6191
tp6192
a(VFerroman
p6193
VLeela
p6194
VFerroman
p6195
tp6196
a(VPyro
p6197
VSsj4gohan
p6198
VPyro
p6199
tp6200
a(VR. lilith
p6201
VSoulgen
p6202
VSoulgen
p6203
tp6204
a(VWar machine
p6205
VDhalsim
p6206
VDhalsim
p6207
tp6208
a(VRhadamantis
p6209
VBlob
p6210
VBlob
p6211
tp6212
a(VMariah
p6213
VHokage
p6214
VMariah
p6215
tp6216
a(VPopeye
p6217
VCheap boss type
p6218
VCheap boss type
p6219
tp6220
a(VTibigintou
p6221
VAsh
p6222
VAsh
p6223
tp6224
a(VBlaze agent
p6225
VChibi trunks
p6226
VBlaze agent
p6227
tp6228
a(VYellow-pipo
p6229
VOgitafanada
p6230
VOgitafanada
p6231
tp6232
a(VKomepo
p6233
VJon talbain
p6234
VJon talbain
p6235
tp6236
a(VBrainiac
p6237
VRuby heart
p6238
tp6239
a(VShin kazuma
p6240
VShocker
p6241
VShin kazuma
p6242
tp6243
a(V'gou no ken' kenshirou
p6244
VMaster ryu
p6245
VMaster ryu
p6246
tp6247
a(VShaoran lee
p6248
VArcueid
p6249
VArcueid
p6250
tp6251
a(VOjisama-chaos
p6252
VRyu hayabusa
p6253
VRyu hayabusa
p6254
tp6255
a(VGohan school
p6256
VLipsyncher
p6257
VGohan school
p6258
tp6259
a(VFelicia
p6260
VChange dragon
p6261
VFelicia
p6262
tp6263
a(VMega piccolo
p6264
VAsh
p6265
VAsh
p6266
tp6267
a(VSuper mario
p6268
VSonic machine
p6269
VSuper mario
p6270
tp6271
a(VVegeta ssj4
p6272
VShishio
p6273
VShishio
p6274
tp6275
a(VKohaku
p6276
VSuperboy
p6277
VKohaku
p6278
tp6279
a(VKuando
p6280
VRobo-kyii
p6281
VKuando
p6282
tp6283
a(VBlossom
p6284
VVegeta normal 2
p6285
VBlossom
p6286
tp6287
a(VYellow-pipo
p6288
VAkiha
p6289
VAkiha
p6290
tp6291
a(VTetuwo
p6292
VHobgoblin
p6293
VHobgoblin
p6294
tp6295
a(VWarmachine
p6296
VRamon 71113
p6297
VWarmachine
p6298
tp6299
a(VYamazaki 71113
p6300
VWolvenom
p6301
VYamazaki 71113
p6302
tp6303
a(VLou
p6304
VDesperado+
p6305
tp6306
a(VBison
p6307
VMr buu
p6308
VBison
p6309
tp6310
a(VTakakazu abe
p6311
VGogeta ssj4
p6312
VGogeta ssj4
p6313
tp6314
a(VBattousai
p6315
VHigyo-pam
p6316
VBattousai
p6317
tp6318
a(VAndroide 18
p6319
VJin
p6320
VAndroide 18
p6321
tp6322
a(VMajin buu
p6323
VSatsuki yumiduka
p6324
VSatsuki yumiduka
p6325
tp6326
a(VJotaro kujo
p6327
VCharlie
p6328
VCharlie
p6329
tp6330
a(VKurama
p6331
VSentry
p6332
VKurama
p6333
tp6334
a(VZatanna
p6335
VFuture trunks
p6336
VFuture trunks
p6337
tp6338
a(VAlien queen
p6339
VPsychopath kyo
p6340
VAlien queen
p6341
tp6342
a(VBurta
p6343
VChill penguin
p6344
VBurta
p6345
tp6346
a(VKrillin
p6347
VVegeta ssj3
p6348
VVegeta ssj3
p6349
tp6350
a(VSquall
p6351
VMajin vegeta
p6352
VMajin vegeta
p6353
tp6354
a(VDet. garret laurel
p6355
VIori 71113
p6356
VIori 71113
p6357
tp6358
a(VMech zangief
p6359
VNanaya
p6360
VMech zangief
p6361
tp6362
a(VT. kawk
p6363
VMedoi-san
p6364
VT. kawk
p6365
tp6366
a(VBlaster
p6367
VSon goku
p6368
VSon goku
p6369
tp6370
a(VAsh
p6371
VAstaroth
p6372
VAstaroth
p6373
tp6374
a(VCloud
p6375
VThe atom
p6376
VThe atom
p6377
tp6378
a(VSonic machine
p6379
VOgitafanada
p6380
VSonic machine
p6381
tp6382
a(VPsychopath kyo
p6383
VJagi
p6384
VPsychopath kyo
p6385
tp6386
a(VGato
p6387
VLilith aensland
p6388
VLilith aensland
p6389
tp6390
a(VMega lilde
p6391
VHyper neo-kamek
p6392
VHyper neo-kamek
p6393
tp6394
a(VYamcha by tomur
p6395
VPikachu
p6396
VYamcha by tomur
p6397
tp6398
a(VTetsuo
p6399
VRamon 71113
p6400
VRamon 71113
p6401
tp6402
a(VCell
p6403
VSpiral
p6404
VSpiral
p6405
tp6406
a(VAoko
p6407
VCyborg_mai
p6408
VAoko
p6409
tp6410
a(VSuper mario
p6411
VChipp
p6412
VSuper mario
p6413
tp6414
a(VFuture trunks
p6415
VI-no
p6416
VFuture trunks
p6417
tp6418
a(VEdward elrick
p6419
VWonder woman
p6420
VWonder woman
p6421
tp6422
a(VPsychopath kyo
p6423
VNachi
p6424
VPsychopath kyo
p6425
tp6426
a(VHercule gt
p6427
VPoppy
p6428
VPoppy
p6429
tp6430
a(VGod yuri
p6431
VBig chicken
p6432
VGod yuri
p6433
tp6434
a(VSparta_heika
p6435
VE-terry 71113
p6436
VE-terry 71113
p6437
tp6438
a(VJess
p6439
VBabidi
p6440
VJess
p6441
tp6442
a(VGinew
p6443
VCaptain marvel
p6444
VCaptain marvel
p6445
tp6446
a(VVegeta
p6447
VDio brando
p6448
VVegeta
p6449
tp6450
a(VArcueid
p6451
VIno
p6452
VArcueid
p6453
tp6454
a(VGuy
p6455
VSatsuki
p6456
VGuy
p6457
tp6458
a(VGoten gt
p6459
VBra
p6460
VBra
p6461
tp6462
a(VLion magnus
p6463
VHe-man
p6464
VLion magnus
p6465
tp6466
a(VThe joker
p6467
VDr.doom
p6468
VDr.doom
p6469
tp6470
a(VApocalypse
p6471
VZero svc
p6472
VApocalypse
p6473
tp6474
a(VJabu
p6475
VKujo jotaro
p6476
VJabu
p6477
tp6478
a(VCell
p6479
VDio brando
p6480
VDio brando
p6481
tp6482
a(VTara-gyouza
p6483
VAvdol ver 2001/01/30 by camrat
p6484
VTara-gyouza
p6485
tp6486
a(VJustice
p6487
VLee
p6488
VLee
p6489
tp6490
a(VLilith aensland
p6491
VMishio
p6492
VMishio
p6493
tp6494
a(VTibigintou
p6495
VAbui
p6496
VTibigintou
p6497
tp6498
a(VDr.doom
p6499
VDr.doom
p6500
VDr.doom
p6501
tp6502
a(VSatsuki
p6503
VAndroid 16
p6504
VSatsuki
p6505
tp6506
a(VKid gohan ssj1
p6507
VZangyura
p6508
VZangyura
p6509
tp6510
a(VWolverine
p6511
VGoku sb1
p6512
VWolverine
p6513
tp6514
a(VZaku
p6515
VAndroid 18
p6516
VAndroid 18
p6517
tp6518
a(VOozura vegeta
p6519
VChange dragon
p6520
VOozura vegeta
p6521
tp6522
a(VMoleman
p6523
VJackal
p6524
VMoleman
p6525
tp6526
a(VSailor mars
p6527
VCapella
p6528
VCapella
p6529
tp6530
a(VCell
p6531
VToki
p6532
VToki
p6533
tp6534
a(VHebiitigo
p6535
VSonic
p6536
VSonic
p6537
tp6538
a(VBlossom
p6539
VNeji
p6540
VNeji
p6541
tp6542
a(VVegeta ssj4
p6543
VSimonkin2006
p6544
VVegeta ssj4
p6545
tp6546
a(VLady deathstrike
p6547
VJudith
p6548
VJudith
p6549
tp6550
a(VBoo
p6551
VKarin kanzuki
p6552
VKarin kanzuki
p6553
tp6554
a(VDio di musca
p6555
VAsh
p6556
VDio di musca
p6557
tp6558
a(VPizza
p6559
VDiablo_skeleton
p6560
VDiablo_skeleton
p6561
tp6562
a(VGoku gt
p6563
VSonic machine
p6564
VSonic machine
p6565
tp6566
a(V2ban-tan
p6567
VSkeletor
p6568
VSkeletor
p6569
tp6570
a(VAndroid 16
p6571
VBojack
p6572
VAndroid 16
p6573
tp6574
a(VSegalow
p6575
VM.bison
p6576
VSegalow
p6577
tp6578
a(VChouji
p6579
VJon talbain
p6580
VJon talbain
p6581
tp6582
a(VJuda
p6583
VMestre kame
p6584
VJuda
p6585
tp6586
a(VMephisto
p6587
VPrincess peach
p6588
VMephisto
p6589
tp6590
a(VKnuckles
p6591
VMr. bison
p6592
VMr. bison
p6593
tp6594
a(VYakui san
p6595
VNeco chaos
p6596
VNeco chaos
p6597
tp6598
a(VVega
p6599
VWakko
p6600
VWakko
p6601
tp6602
a(VCyborg superman
p6603
VSakura shingouji
p6604
VCyborg superman
p6605
tp6606
a(VKanae
p6607
VNenaikodareda
p6608
VKanae
p6609
tp6610
a(VPunisher
p6611
VSuper-8
p6612
VSuper-8
p6613
tp6614
a(VPsycho weapon
p6615
VSsj5 goku
p6616
VSsj5 goku
p6617
tp6618
a(VIkki
p6619
VLei-lei
p6620
VLei-lei
p6621
tp6622
a(VHokage
p6623
VWindows me
p6624
VHokage
p6625
tp6626
a(VLilith aensland
p6627
VUzumaki naruto
p6628
VLilith aensland
p6629
tp6630
a(VNaruto kun
p6631
VAnakaris
p6632
VNaruto kun
p6633
tp6634
a(VOpera elmer
p6635
VHaruno sakura
p6636
VOpera elmer
p6637
tp6638
a(VGreat gohan
p6639
VMay
p6640
VMay
p6641
tp6642
a(VMaster sakura
p6643
VDarkseid
p6644
VMaster sakura
p6645
tp6646
a(VEnya
p6647
VEvil dan
p6648
VEvil dan
p6649
tp6650
a(VDragon guy
p6651
VKyo
p6652
VKyo
p6653
tp6654
a(VPossessed heita
p6655
VJay garrick
p6656
VPossessed heita
p6657
tp6658
a(VGuile
p6659
VSsj three broli
p6660
VSsj three broli
p6661
tp6662
a(VNeco chaos
p6663
VTails
p6664
VNeco chaos
p6665
tp6666
a(VBaby bonnie hood
p6667
VKazama kazuki
p6668
VBaby bonnie hood
p6669
tp6670
a(VSkull-man
p6671
VK9999
p6672
VK9999
p6673
tp6674
a(VIggy
p6675
VM-vegeta-ssj3
p6676
VM-vegeta-ssj3
p6677
tp6678
a(VJuda
p6679
VBalrog
p6680
VJuda
p6681
tp6682
a(VAsh
p6683
VGreen lantern
p6684
VGreen lantern
p6685
tp6686
a(VYashaoh
p6687
VSilver horns
p6688
VSilver horns
p6689
tp6690
a(VSongoku-snk/sf
p6691
VLilith aensland
p6692
VLilith aensland
p6693
tp6694
a(VThe joker
p6695
VKy
p6696
VThe joker
p6697
tp6698
a(VCatwoman
p6699
VUnknown
p6700
VUnknown
p6701
tp6702
a(VDeath13
p6703
VScorpion
p6704
VScorpion
p6705
tp6706
a(VHol 'butt king' funtimes
p6707
VChaos hiryu
p6708
VChaos hiryu
p6709
tp6710
a(VSilversamurai
p6711
VFox mccloud
p6712
VSilversamurai
p6713
tp6714
a(VAracne de tarantula
p6715
VIronman
p6716
VAracne de tarantula
p6717
tp6718
a(VNobunaga
p6719
VRare akuma
p6720
VRare akuma
p6721
tp6722
a(VC-19
p6723
VTyouunn-shiryu
p6724
VC-19
p6725
tp6726
a(VMajin vegeta
p6727
VMayko
p6728
VMajin vegeta
p6729
tp6730
a(VZangyura
p6731
VGoku nex
p6732
VGoku nex
p6733
tp6734
a(VTapion
p6735
VW len ar
p6736
VTapion
p6737
tp6738
a(VNightmare
p6739
VRyu hayabusa
p6740
VRyu hayabusa
p6741
tp6742
a(VRenamon
p6743
VZangyura
p6744
VRenamon
p6745
tp6746
a(VRed ranger
p6747
VRyu hayabusa
p6748
VRed ranger
p6749
tp6750
a(VThe joker
p6751
VDragon guy
p6752
VThe joker
p6753
tp6754
a(VUltron
p6755
VAndroid 18
p6756
VUltron
p6757
tp6758
a(VGohan  grande normale
p6759
VGato
p6760
VGohan  grande normale
p6761
tp6762
a(VChibi trunks
p6763
VMako
p6764
VMako
p6765
tp6766
a(VYellow devil
p6767
VBass
p6768
VBass
p6769
tp6770
a(VArmored gohan
p6771
VSuperman
p6772
VArmored gohan
p6773
tp6774
a(VThe joker
p6775
VShin gouki
p6776
VShin gouki
p6777
tp6778
a(VCable
p6779
VMedoi-san
p6780
VCable
p6781
tp6782
a(VRogue
p6783
VStorm
p6784
VRogue
p6785
tp6786
a(VGoku kid
p6787
VKamek
p6788
VKamek
p6789
tp6790
a(VWind
p6791
VNeco-arc chaos
p6792
VNeco-arc chaos
p6793
tp6794
a(VMisty
p6795
VDr.doom
p6796
VDr.doom
p6797
tp6798
a(VZeroko
p6799
VLord raptor
p6800
VZeroko
p6801
tp6802
a(VJissou seki
p6803
VJess
p6804
VJess
p6805
tp6806
a(VAlex mercer
p6807
VWind
p6808
VAlex mercer
p6809
tp6810
a(VRaiden
p6811
VMarrow
p6812
VRaiden
p6813
tp6814
a(VT. kawk
p6815
VJean grey
p6816
VT. kawk
p6817
tp6818
a(VDet. garret laurel
p6819
VVegeth@
p6820
VVegeth@
p6821
tp6822
a(VChibi trunks
p6823
VNorimaro
p6824
VChibi trunks
p6825
tp6826
a(VDan
p6827
VDeath maul
p6828
VDeath maul
p6829
tp6830
a(VJohnny
p6831
VWar machine
p6832
VWar machine
p6833
tp6834
a(VHuman torch
p6835
VAku-amakusa
p6836
VAku-amakusa
p6837
tp6838
a(VJustice
p6839
VSon gohan
p6840
VJustice
p6841
tp6842
a(VAstroboy
p6843
VSaba
p6844
VAstroboy
p6845
tp6846
a(VEvil dan
p6847
VRanma saotome
p6848
VEvil dan
p6849
tp6850
a(VHato sabure
p6851
VSegalow
p6852
VHato sabure
p6853
tp6854
a(VVega
p6855
VWarakia
p6856
VWarakia
p6857
tp6858
a(VYellow-pipo
p6859
VRaditz
p6860
VRaditz
p6861
tp6862
a(VShuma gorath
p6863
VHagen
p6864
VShuma gorath
p6865
tp6866
a(VTenten
p6867
V98se
p6868
VTenten
p6869
tp6870
a(VGray fly
p6871
VOrochi vega
p6872
VOrochi vega
p6873
tp6874
a(VMariah
p6875
VVenom
p6876
VVenom
p6877
tp6878
a(VIsaiah bradley
p6879
VShocker
p6880
VShocker
p6881
tp6882
a(VSsj gohan
p6883
VSuper vegeta
p6884
VSuper vegeta
p6885
tp6886
a(VDoraemon
p6887
VAlter amiba
p6888
VAlter amiba
p6889
tp6890
a(VSuper buu
p6891
VMariah
p6892
VSuper buu
p6893
tp6894
a(VZettaiaku
p6895
VKiba
p6896
VKiba
p6897
tp6898
a(VBatman
p6899
VButtercup
p6900
VBatman
p6901
tp6902
a(VRock volnutt
p6903
VMarrow
p6904
VRock volnutt
p6905
tp6906
a(VKrusty
p6907
VHoly ken
p6908
VHoly ken
p6909
tp6910
a(VDodoria
p6911
VIchi
p6912
VIchi
p6913
tp6914
a(VKazama kazuki
p6915
VG rugal
p6916
VKazama kazuki
p6917
tp6918
a(VLei-lei
p6919
VZinc
p6920
VZinc
p6921
tp6922
a(VMio
p6923
VGarlic junior
p6924
VGarlic junior
p6925
tp6926
a(VMs. fanservice
p6927
VTao jun
p6928
VMs. fanservice
p6929
tp6930
a(VAsh
p6931
VProfessor x
p6932
VProfessor x
p6933
tp6934
a(VMotokoaoyama
p6935
VBlob
p6936
VBlob
p6937
tp6938
a(VMr satan
p6939
VSoujiro
p6940
VSoujiro
p6941
tp6942
a(VMedoi-san
p6943
VDr.gero
p6944
VDr.gero
p6945
tp6946
a(VSon goku
p6947
VMature
p6948
VMature
p6949
tp6950
a(VR. lilith
p6951
VHisame shizumaru
p6952
VR. lilith
p6953
tp6954
a(VHomero
p6955
VGohan ssj5
p6956
VHomero
p6957
tp6958
a(VTao jun
p6959
VRock
p6960
VRock
p6961
tp6962
a(VGoten gt
p6963
VRubber soul
p6964
VGoten gt
p6965
tp6966
a(VGreen lantern
p6967
VDan
p6968
VGreen lantern
p6969
tp6970
a(VTakakazu abe
p6971
VGray fly
p6972
VTakakazu abe
p6973
tp6974
a(VGaara
p6975
VTron bonne
p6976
VTron bonne
p6977
tp6978
a(VMs. fanservice
p6979
VWonderman
p6980
tp6981
a(VYellow devil
p6982
VZangyura
p6983
VYellow devil
p6984
tp6985
a(VGohan ssj3
p6986
VMotokoaoyama
p6987
VGohan ssj3
p6988
tp6989
a(VJill
p6990
VSilver samurai
p6991
VSilver samurai
p6992
tp6993
a(VVanilla ice
p6994
VMedoi-san
p6995
VMedoi-san
p6996
tp6997
a(VParasite
p6998
VBaiken
p6999
VParasite
p7000
tp7001
a(VOrchid
p7002
VShin ryu
p7003
VOrchid
p7004
tp7005
a(VLupin the 3rd
p7006
VRobin
p7007
VRobin
p7008
tp7009
a(VMega vegeta
p7010
VZangia
p7011
VZangia
p7012
tp7013
a(VHoly ken
p7014
VHobgoblin
p7015
VHoly ken
p7016
tp7017
a(VStarfire
p7018
VZero
p7019
VZero
p7020
tp7021
a(VRyu
p7022
VXp(pro)
p7023
VRyu
p7024
tp7025
a(VGotenks ssj
p7026
VPegasus di fuoco
p7027
VGotenks ssj
p7028
tp7029
a(VSimonkin2006
p7030
VDr.doom
p7031
VDr.doom
p7032
tp7033
a(VAstroboy
p7034
VDocinho
p7035
VDocinho
p7036
tp7037
a(VMedoi-san
p7038
VTiger
p7039
VTiger
p7040
tp7041
a(VVega
p7042
VNrvnqsr chaos
p7043
VNrvnqsr chaos
p7044
tp7045
a(VFlash
p7046
VKabal
p7047
VFlash
p7048
tp7049
a(VGiano
p7050
VSsjgoku
p7051
VGiano
p7052
tp7053
a(VPhoenix
p7054
VRaiden
p7055
VRaiden
p7056
tp7057
a(VRadel
p7058
VKang
p7059
VRadel
p7060
tp7061
a(VHideo&kyoko;
p7062
VCharlotte
p7063
VCharlotte
p7064
tp7065
a(VJuggernaut
p7066
VKung lao
p7067
VKung lao
p7068
tp7069
a(VDark psylocke
p7070
VUltra ssj5 vegeta
p7071
VUltra ssj5 vegeta
p7072
tp7073
a(VSuigintou
p7074
VThe flash
p7075
VThe flash
p7076
tp7077
a(VDizzy
p7078
VBlack widow
p7079
VBlack widow
p7080
tp7081
a(VCyclops
p7082
VIkki
p7083
VCyclops
p7084
tp7085
a(VHol horse
p7086
VBilly lee
p7087
VBilly lee
p7088
tp7089
a(VGuerrero divino del dragn
p7090
VAndroid 16
p7091
VAndroid 16
p7092
tp7093
a(VPatchouli
p7094
VGoku db
p7095
VPatchouli
p7096
tp7097
a(VEagle
p7098
VZantetsu
p7099
VZantetsu
p7100
tp7101
a(VSangoku
p7102
VEvil dan
p7103
VEvil dan
p7104
tp7105
a(VSailor mars
p7106
VIronman
p7107
VIronman
p7108
tp7109
a(VAmy
p7110
VGoku
p7111
VGoku
p7112
tp7113
a(VRed cyclone
p7114
VUltimat goku
p7115
VRed cyclone
p7116
tp7117
a(VKamiccolo
p7118
VNakoruru
p7119
VKamiccolo
p7120
tp7121
a(VBomber man
p7122
VRyu
p7123
VBomber man
p7124
tp7125
a(VGoten
p7126
VMega and.18
p7127
VGoten
p7128
tp7129
a(VProfessor x
p7130
VOjisama-chaos
p7131
VProfessor x
p7132
tp7133
a(VLion-o
p7134
VSsj4 goten
p7135
VSsj4 goten
p7136
tp7137
a(VYamiyuki
p7138
VSsjgoku
p7139
VSsjgoku
p7140
tp7141
a(VZaku
p7142
VGill
p7143
VGill
p7144
tp7145
a(VOozaru
p7146
VNightwolf
p7147
VNightwolf
p7148
tp7149
a(VTensinhan
p7150
VStrong guy
p7151
VTensinhan
p7152
tp7153
a(VJohnny cage
p7154
VTen
p7155
VJohnny cage
p7156
tp7157
a(VKujo jotaro
p7158
VDr gero-and20
p7159
VKujo jotaro
p7160
tp7161
a(VSsj4 goten
p7162
VLast adult goku
p7163
VLast adult goku
p7164
tp7165
a(VArthur
p7166
VBebi vegeta
p7167
VArthur
p7168
tp7169
a(VGuldo
p7170
VGohan saiya-jin ex
p7171
VGohan saiya-jin ex
p7172
tp7173
a(VBack beard
p7174
VGold warmachine
p7175
VGold warmachine
p7176
tp7177
a(VRobo-kyii
p7178
VRusty
p7179
VRobo-kyii
p7180
tp7181
a(VHuninki
p7182
VOgre akuma
p7183
VOgre akuma
p7184
tp7185
a(VDuke nukem
p7186
VSpawn
p7187
VDuke nukem
p7188
tp7189
a(VDuke nukem
p7190
VArthur
p7191
VDuke nukem
p7192
tp7193
a(VHikaru
p7194
VSonic
p7195
VHikaru
p7196
tp7197
a(VMarvel spider-man
p7198
VChizuru kagura
p7199
VChizuru kagura
p7200
tp7201
a(VRaditz
p7202
VHikaru
p7203
VHikaru
p7204
tp7205
a(VNoroko
p7206
VNail
p7207
VNail
p7208
tp7209
a(VDr.doom
p7210
VYumeji kurokouchi
p7211
VDr.doom
p7212
tp7213
a(VTeam nicktoon
p7214
VKagami kyosuke
p7215
VTeam nicktoon
p7216
tp7217
a(VFreeza 100%
p7218
VJuggernaut
p7219
VJuggernaut
p7220
tp7221
a(VIggy
p7222
VShuma gorath
p7223
VShuma gorath
p7224
tp7225
a(VMs. fanservice
p7226
VFuture trunks
p7227
VMs. fanservice
p7228
tp7229
a(VTurles
p7230
VNachi
p7231
VNachi
p7232
tp7233
a(VAbui
p7234
VTayuya
p7235
VAbui
p7236
tp7237
a(VXanmi chan
p7238
VMotokoaoyama
p7239
VMotokoaoyama
p7240
tp7241
a(VVegeta ssj1
p7242
VRaditz
p7243
VRaditz
p7244
tp7245
a(VPengintou
p7246
VMech-hisui
p7247
VMech-hisui
p7248
tp7249
a(VAndromeda
p7250
VAndroid 18
p7251
VAndromeda
p7252
tp7253
a(VMarvin
p7254
VWar machine
p7255
VMarvin
p7256
tp7257
a(VZangya
p7258
VSangoku
p7259
VSangoku
p7260
tp7261
a(VMorrigan
p7262
VCharlotte
p7263
VMorrigan
p7264
tp7265
a(VDeath maul
p7266
VRobo-ky
p7267
VDeath maul
p7268
tp7269
a(VOmega tiger woods
p7270
VNeyufeulle
p7271
VOmega tiger woods
p7272
tp7273
a(VLynn baker
p7274
V95 no danna
p7275
VLynn baker
p7276
tp7277
a(VSub zero
p7278
VRock
p7279
VRock
p7280
tp7281
a(VSonic
p7282
VAndroid 18
p7283
VSonic
p7284
tp7285
a(VRaditz
p7286
VGoku sb1
p7287
VGoku sb1
p7288
tp7289
a(VUltimat goku
p7290
VSakon
p7291
VUltimat goku
p7292
tp7293
a(VSabretooth
p7294
VThe thing
p7295
VThe thing
p7296
tp7297
a(VTimmy turner
p7298
VSpiral
p7299
VSpiral
p7300
tp7301
a(VSparta_heika
p7302
VVegeta ssj1
p7303
VSparta_heika
p7304
tp7305
a(VGodman
p7306
VAstroboy
p7307
VGodman
p7308
tp7309
a(VThe thing
p7310
VGreat saiyaman
p7311
VThe thing
p7312
tp7313
a(VKy
p7314
VBass
p7315
VBass
p7316
tp7317
a(VSub zero
p7318
VReptos
p7319
VReptos
p7320
tp7321
a(VSpawn
p7322
VThe dazzler
p7323
VThe dazzler
p7324
tp7325
a(VPlastic man
p7326
VTien
p7327
VTien
p7328
tp7329
a(VZero
p7330
VKy
p7331
VKy
p7332
tp7333
a(VLesty
p7334
VDio brando
p7335
VLesty
p7336
tp7337
a(VKrauser
p7338
VMajin buu
p7339
VKrauser
p7340
tp7341
a(VJoe higashi
p7342
VPicapiedra
p7343
VJoe higashi
p7344
tp7345
a(VHulk
p7346
VGiano
p7347
VHulk
p7348
tp7349
a(VJ'onn j'onnz
p7350
VI-no
p7351
VJ'onn j'onnz
p7352
tp7353
a(VTao jun
p7354
VJ'onn j'onnz
p7355
VJ'onn j'onnz
p7356
tp7357
a(VSuperboy
p7358
VMinakata moriya
p7359
VMinakata moriya
p7360
tp7361
a(VPan
p7362
VRenamon
p7363
VRenamon
p7364
tp7365
a(VVegeta
p7366
VMajin vegeta
p7367
VVegeta
p7368
tp7369
a(VMegatron
p7370
VGinew
p7371
VMegatron
p7372
tp7373
a(VRyu
p7374
VSponge bob
p7375
VRyu
p7376
tp7377
a(VChibi trunks
p7378
VRoll
p7379
VChibi trunks
p7380
tp7381
a(VRoa
p7382
VVegeta ssj3
p7383
VRoa
p7384
tp7385
a(VGorunks ssj4
p7386
VDr.gero
p7387
VDr.gero
p7388
tp7389
a(VAndroid 18
p7390
VMishio
p7391
VMishio
p7392
tp7393
a(VThink
p7394
VFuture trunks
p7395
VFuture trunks
p7396
tp7397
a(VCell
p7398
VBebi vegeta
p7399
VCell
p7400
tp7401
a(VCaptain commando
p7402
VBasara
p7403
VCaptain commando
p7404
tp7405
a(VFirebrand
p7406
VOrochi
p7407
VOrochi
p7408
tp7409
a(VBatgirl
p7410
VNeco-arc
p7411
VNeco-arc
p7412
tp7413
a(VRandy m. green
p7414
VAkiha
p7415
VAkiha
p7416
tp7417
a(VInvisible woman
p7418
VDevo
p7419
VInvisible woman
p7420
tp7421
a(VGray fly
p7422
VNrvnqsr chaos
p7423
VNrvnqsr chaos
p7424
tp7425
a(VRadish ssj4
p7426
VS.p.o. ryu
p7427
VRadish ssj4
p7428
tp7429
a(VNormal freeza
p7430
VCloud
p7431
VNormal freeza
p7432
tp7433
a(VE-102r
p7434
VCharlotte
p7435
VCharlotte
p7436
tp7437
a(VJay garrick
p7438
VNanaya
p7439
VJay garrick
p7440
tp7441
a(VSodom
p7442
VGold warmachine
p7443
VSodom
p7444
tp7445
a(VYashaoh
p7446
VEtrigan
p7447
VEtrigan
p7448
tp7449
a(VThanoseid
p7450
VSuper mario
p7451
VSuper mario
p7452
tp7453
a(VPrincess peach
p7454
VSimba
p7455
VPrincess peach
p7456
tp7457
a(VSailor mars
p7458
VOrione
p7459
VSailor mars
p7460
tp7461
a(VNeco-arc chaos
p7462
VOverlord
p7463
VOverlord
p7464
tp7465
a(V'gou no ken' kenshirou
p7466
VRock volnutt
p7467
VRock volnutt
p7468
tp7469
a(VKang
p7470
VVega
p7471
VKang
p7472
tp7473
a(VKanmi chan
p7474
VTetuwo
p7475
VTetuwo
p7476
tp7477
a(VXanmi chan
p7478
VDocinho
p7479
VDocinho
p7480
tp7481
a(VShino
p7482
VVegeta
p7483
VVegeta
p7484
tp7485
a(VMoleman
p7486
VVega
p7487
VMoleman
p7488
tp7489
a(VDora
p7490
VTrunks
p7491
VDora
p7492
tp7493
a(VSailor moon
p7494
VAngel ryu
p7495
VSailor moon
p7496
tp7497
a(VGreen lantern gg
p7498
VBanshee
p7499
VGreen lantern gg
p7500
tp7501
a(VPatchouli
p7502
VBizarro
p7503
VPatchouli
p7504
tp7505
a(VTrunks sb1
p7506
VKrillin
p7507
VKrillin
p7508
tp7509
a(VDr.doom
p7510
VChaos hiryu
p7511
VChaos hiryu
p7512
tp7513
a(VKing godzilla
p7514
VTayuya
p7515
VKing godzilla
p7516
tp7517
a(VBlack manta
p7518
VR. lilith
p7519
VR. lilith
p7520
tp7521
a(VMidler
p7522
VSakura shingouji
p7523
VSakura shingouji
p7524
tp7525
a(VKosmos
p7526
VAthena
p7527
VKosmos
p7528
tp7529
a(VAtusi
p7530
VRinfa
p7531
VAtusi
p7532
tp7533
a(VCarnage
p7534
VNail
p7535
VNail
p7536
tp7537
a(VAndore jr
p7538
VStrong guy
p7539
VAndore jr
p7540
tp7541
a(VFirebrand
p7542
VCloud
p7543
VCloud
p7544
tp7545
a(VVanilla ice
p7546
VGokussj4d
p7547
VVanilla ice
p7548
tp7549
a(VEiji kisaragi
p7550
VAku-amakusa
p7551
VAku-amakusa
p7552
tp7553
a(VNeco-arc
p7554
VShin ryu
p7555
VNeco-arc
p7556
tp7557
a(V95 no danna
p7558
VGoenitz
p7559
VGoenitz
p7560
tp7561
a(VScorpion
p7562
VCartman
p7563
VScorpion
p7564
tp7565
a(VRyuuoutan
p7566
VChaka
p7567
VRyuuoutan
p7568
tp7569
a(VSpiderman
p7570
VSteel
p7571
VSteel
p7572
tp7573
a(VMarvin
p7574
VSon trunks
p7575
VMarvin
p7576
tp7577
a(VSon gohan
p7578
VAsh
p7579
VSon gohan
p7580
tp7581
a(VInsane hiryu
p7582
VNeyufeulle
p7583
VInsane hiryu
p7584
tp7585
a(VBaldhead
p7586
VCapella
p7587
VCapella
p7588
tp7589
a(VShuma gorath
p7590
VFubuki sakuragasaki
p7591
VShuma gorath
p7592
tp7593
a(VEvil homer
p7594
VScorpion
p7595
VEvil homer
p7596
tp7597
a(VGray fly
p7598
VDonatello
p7599
VDonatello
p7600
tp7601
a(VAlter amiba
p7602
VAsh
p7603
VAlter amiba
p7604
tp7605
a(VEvil ken
p7606
VSon goku
p7607
VEvil ken
p7608
tp7609
a(VRamon 71113
p7610
VDragon claw
p7611
VRamon 71113
p7612
tp7613
a(VMr. bison
p7614
VMaximum frieza
p7615
VMr. bison
p7616
tp7617
a(VMirai trunks
p7618
VSilversamurai
p7619
VSilversamurai
p7620
tp7621
a(VGoku transformer
p7622
VPerfect storm x
p7623
VPerfect storm x
p7624
tp7625
a(VSimonkin2006
p7626
VAnji
p7627
VAnji
p7628
tp7629
a(VLast adult goku
p7630
VPrincess peach
p7631
VLast adult goku
p7632
tp7633
a(VSsj4gohan
p7634
VRuby heart
p7635
VRuby heart
p7636
tp7637
a(VTensinhan
p7638
VRai
p7639
VRai
p7640
tp7641
a(VHoly ken
p7642
VChaos
p7643
VHoly ken
p7644
tp7645
a(VAnji
p7646
VLeonardo
p7647
VLeonardo
p7648
tp7649
a(VYumi
p7650
VMickey
p7651
VYumi
p7652
tp7653
a(VFlonne
p7654
VGokussj4d
p7655
VFlonne
p7656
tp7657
a(VEriol hiiragizawa
p7658
VKrillin
p7659
VEriol hiiragizawa
p7660
tp7661
a(VRaiden
p7662
VKenshin
p7663
VRaiden
p7664
tp7665
a(VHercule gt
p7666
VKeel
p7667
VKeel
p7668
tp7669
a(VRai
p7670
VGeese
p7671
VGeese
p7672
tp7673
a(VCyborg superman
p7674
VGambit
p7675
VCyborg superman
p7676
tp7677
a(VKy
p7678
VTenshinham
p7679
VKy
p7680
tp7681
a(VUltraman
p7682
VVegeta ssj1
p7683
VUltraman
p7684
tp7685
a(VCrystal
p7686
VFox mccloud
p7687
VCrystal
p7688
tp7689
a(VTeam nicktoon
p7690
VArthur
p7691
VTeam nicktoon
p7692
tp7693
a(VYamcha
p7694
VSailor mars
p7695
VSailor mars
p7696
tp7697
a(VJustice
p7698
VGundam heavy arms
p7699
VGundam heavy arms
p7700
tp7701
a(VEtrigan
p7702
VRai
p7703
VRai
p7704
tp7705
a(VLee
p7706
VJedah
p7707
VJedah
p7708
tp7709
a(VShiki vp
p7710
VJ'onn j'onnz
p7711
VJ'onn j'onnz
p7712
tp7713
a(VJon talbain
p7714
V20 (dr. gero)
p7715
V20 (dr. gero)
p7716
tp7717
a(VRugal
p7718
VDonovan
p7719
VDonovan
p7720
tp7721
a(VSuper boo
p7722
VAsh
p7723
VAsh
p7724
tp7725
a(VSteel
p7726
VScream
p7727
VScream
p7728
tp7729
a(VHugo
p7730
VSsj4 goten
p7731
VHugo
p7732
tp7733
a(VHarpagos
p7734
VElla
p7735
VElla
p7736
tp7737
a(VAnna
p7738
VSlayer
p7739
VAnna
p7740
tp7741
a(VZappa
p7742
VJo jo
p7743
VZappa
p7744
tp7745
a(VSakura
p7746
VGoku ssj2
p7747
VSakura
p7748
tp7749
a(VYakui san
p7750
VUltimate cap
p7751
VUltimate cap
p7752
tp7753
a(VVegeta ssj1
p7754
VGuy gardner
p7755
VGuy gardner
p7756
tp7757
a(VTen
p7758
VWonderman
p7759
VWonderman
p7760
tp7761
a(VBaby commando
p7762
VAraki runa
p7763
VBaby commando
p7764
tp7765
a(VSylphie
p7766
VSeth
p7767
VSeth
p7768
tp7769
a(VAlessi
p7770
VMako
p7771
VMako
p7772
tp7773
a(VMunch
p7774
VKrillin
p7775
VKrillin
p7776
tp7777
a(VPopeye
p7778
VHavok
p7779
VPopeye
p7780
tp7781
a(VPizza
p7782
VTurles
p7783
VPizza
p7784
tp7785
a(VNega joe
p7786
VGotenks ssj
p7787
VNega joe
p7788
tp7789
a(VCaptain commando
p7790
VRegina
p7791
VCaptain commando
p7792
tp7793
a(VYellow-pipo
p7794
VOnslaught
p7795
VOnslaught
p7796
tp7797
a(VKrusty
p7798
VTeam nicktoon
p7799
VKrusty
p7800
tp7801
a(VKrillin
p7802
VCrashman
p7803
VCrashman
p7804
tp7805
a(VMecha potemkin
p7806
VHal jordan
p7807
VMecha potemkin
p7808
tp7809
a(VEvil ryu
p7810
VDonovan
p7811
VDonovan
p7812
tp7813
a(VInspector gadget
p7814
VDr.doom
p7815
VDr.doom
p7816
tp7817
a(VMegatron
p7818
VSlayer
p7819
VMegatron
p7820
tp7821
a(VWar machine
p7822
VKoryu
p7823
VKoryu
p7824
tp7825
a(VRubber soul
p7826
VGotenks gt
p7827
VGotenks gt
p7828
tp7829
a(VThanoseid
p7830
VBlack manta
p7831
VThanoseid
p7832
tp7833
a(VHol horse
p7834
VFordy
p7835
VFordy
p7836
tp7837
a(VChaos hiryu
p7838
VFat albert
p7839
VChaos hiryu
p7840
tp7841
a(VMajin vegeta
p7842
VHulk
p7843
VHulk
p7844
tp7845
a(VGobotenn
p7846
VJamian di corvus
p7847
VJamian di corvus
p7848
tp7849
a(VBlue destiny 2
p7850
VLei-lei
p7851
VLei-lei
p7852
tp7853
a(VPsylocke
p7854
VCaptain marvel
p7855
VCaptain marvel
p7856
tp7857
a(VPopeye
p7858
VKrillin
p7859
VPopeye
p7860
tp7861
a(VBaldhead
p7862
VRyu
p7863
VRyu
p7864
tp7865
a(VNanaya
p7866
VSilver samurai
p7867
VSilver samurai
p7868
tp7869
a(VHeihachi mishima
p7870
VBanshee
p7871
VHeihachi mishima
p7872
tp7873
a(VHebiitigo
p7874
VDio brando
p7875
VDio brando
p7876
tp7877
a(VRock howard
p7878
VKaede
p7879
VRock howard
p7880
tp7881
a(VAlex mercer
p7882
VBlue destiny 2
p7883
VAlex mercer
p7884
tp7885
a(VSoulgen
p7886
VOozura vegeta
p7887
VSoulgen
p7888
tp7889
a(VElectro
p7890
VInuzuka kiba
p7891
VElectro
p7892
tp7893
a(VGreen lantern js
p7894
VNobuhiko
p7895
VGreen lantern js
p7896
tp7897
a(VRiot
p7898
VSakura
p7899
VRiot
p7900
tp7901
a(VJin kazama
p7902
VSolid snake
p7903
VJin kazama
p7904
tp7905
a(VOrchid
p7906
VRubber soul
p7907
VOrchid
p7908
tp7909
a(VZettaiaku
p7910
VGotenks ssj
p7911
VGotenks ssj
p7912
tp7913
a(VBrainiac
p7914
VAthena
p7915
VAthena
p7916
tp7917
a(VJissou seki
p7918
VGambit
p7919
VGambit
p7920
tp7921
a(VYuriesbyfe
p7922
VKenshirou
p7923
VKenshirou
p7924
tp7925
a(VLobo
p7926
VNail
p7927
VNail
p7928
tp7929
a(VElectro
p7930
VCrystal
p7931
VCrystal
p7932
tp7933
a(VRyo
p7934
VKabal
p7935
VRyo
p7936
tp7937
a(VGoku gt
p7938
VTakobue
p7939
VGoku gt
p7940
tp7941
a(VDet. garret laurel
p7942
VPegasus di fuoco
p7943
VDet. garret laurel
p7944
tp7945
a(VBebi vegeta
p7946
VBlodia
p7947
VBlodia
p7948
tp7949
a(VReimi jyahana
p7950
VGorunks ssj4
p7951
VReimi jyahana
p7952
tp7953
a(VRuby heart
p7954
VEvil ken
p7955
VEvil ken
p7956
tp7957
a(VDabura
p7958
VIronman
p7959
VIronman
p7960
tp7961
a(VGaara
p7962
VNeodio
p7963
VNeodio
p7964
tp7965
a(VProtoman
p7966
VCommissioner gordon
p7967
VCommissioner gordon
p7968
tp7969
a(VSpider girl
p7970
VKoola
p7971
VSpider girl
p7972
tp7973
a(VMarisa Kirisame
p7974
VRemilia
p7975
VMarisa Kirisame
p7976
tp7977
a(VSSJ3 Goku
p7978
VCyborg_Mai
p7979
VCyborg_Mai
p7980
tp7981
a(VBeast
p7982
VMech Zangief
p7983
VMech Zangief
p7984
tp7985
a(VGodzilla
p7986
VRhadamantis
p7987
VGodzilla
p7988
tp7989
a(VYuki
p7990
VNash Shadow
p7991
VNash Shadow
p7992
tp7993
a(VSuper Boo
p7994
VClark
p7995
VClark
p7996
tp7997
a(VZettaiaku
p7998
VOmega Tom Hanks
p7999
VOmega Tom Hanks
p8000
tp8001
a(VBomber Man
p8002
VThink
p8003
VBomber Man
p8004
tp8005
a(VAngel Ryu
p8006
VHol Horse
p8007
VHol Horse
p8008
tp8009
a(VSuper Vegeta
p8010
VG Rugal
p8011
VG Rugal
p8012
tp8013
a(VGouken
p8014
VZeroko
p8015
VGouken
p8016
tp8017
a(VSub-zero
p8018
VShin Ninja Turtle
p8019
VShin Ninja Turtle
p8020
tp8021
a(VSatsuki Yumiduka
p8022
VZantetsu
p8023
VSatsuki Yumiduka
p8024
tp8025
a(VYoutube Poop Robotnik
p8026
VXP Pro
p8027
VYoutube Poop Robotnik
p8028
tp8029
a(VVoid
p8030
VZappa
p8031
VVoid
p8032
tp8033
a(VSpawn
p8034
VModoi-san
p8035
VSpawn
p8036
tp8037
a(VDemitri
p8038
VVegeta Normal 3
p8039
VDemitri
p8040
tp8041
a(VLobo
p8042
VTabasa
p8043
VLobo
p8044
tp8045
a(VSasquatch
p8046
VSabretooth
p8047
VSasquatch
p8048
tp8049
a(VBasara
p8050
VYumi
p8051
VBasara
p8052
tp8053
a(VG-Rugal
p8054
VOpera Elmer
p8055
VG-Rugal
p8056
tp8057
a(VDaimon 71113
p8058
VYamcha
p8059
VDaimon 71113
p8060
tp8061
a(VBlack Polnareff
p8062
VMarco
p8063
VMarco
p8064
tp8065
a(VNaruto
p8066
VKurihan
p8067
VKurihan
p8068
tp8069
a(VDocOck
p8070
VGuile Machine
p8071
VGuile Machine
p8072
tp8073
a(VBatgirl
p8074
VDonatello
p8075
VDonatello
p8076
tp8077
a(VMishio
p8078
VSpawn
p8079
VMishio
p8080
tp8081
a(VKrizalid
p8082
VLucky 71113
p8083
VLucky 71113
p8084
tp8085
a(VTara-Gyouza
p8086
VRorschach
p8087
VTara-Gyouza
p8088
tp8089
a(VPerfect Cell
p8090
VMr Satan
p8091
VPerfect Cell
p8092
tp8093
a(VLupin the 3rd
p8094
VVegeta SSJ3
p8095
VVegeta SSJ3
p8096
tp8097
a(VCell Junior
p8098
VMorrigan
p8099
VMorrigan
p8100
tp8101
a(VNamor
p8102
VMarisa Kirisame
p8103
VMarisa Kirisame
p8104
tp8105
a(VGambit
p8106
VWing Zero
p8107
VWing Zero
p8108
tp8109
a(VShangtsung
p8110
VBullseye
p8111
VBullseye
p8112
tp8113
a(VGohan SSJ4
p8114
VVegetto
p8115
VGohan SSJ4
p8116
tp8117
a(VJotaro Kujo
p8118
VSSJ4 Goten
p8119
VSSJ4 Goten
p8120
tp8121
a(VJin Saotome
p8122
VJamian Di Corvus
p8123
VJin Saotome
p8124
tp8125
a(VBlack Widow
p8126
VGohan SSJ2
p8127
VBlack Widow
p8128
tp8129
a(VMega Weapon
p8130
VMaster Hand
p8131
VMega Weapon
p8132
tp8133
a(VCammy
p8134
VThe Flash
p8135
VThe Flash
p8136
tp8137
a(VTsugumi
p8138
VRyu
p8139
VRyu
p8140
tp8141
a(VJon Talbain
p8142
VJoseph Joestar
p8143
VJon Talbain
p8144
tp8145
a(VZero
p8146
VIceman
p8147
VIceman
p8148
tp8149
a(VGogeta SSJ2
p8150
VT Kawk
p8151
VT Kawk
p8152
tp8153
a(VSSJGoku
p8154
VBurta
p8155
VBurta
p8156
tp8157
a(VGobotenn
p8158
VGinew
p8159
VGinew
p8160
tp8161
a(VOgre
p8162
VAnother Iori
p8163
VOgre
p8164
tp8165
a(VCell
p8166
VDragon Guy
p8167
VDragon Guy
p8168
tp8169
a(VJuggernaut
p8170
VPiccolo Daimaoh
p8171
VJuggernaut
p8172
tp8173
a(VVenom Scorpion
p8174
VRock Howard
p8175
VVenom Scorpion
p8176
tp8177
a(VBurter
p8178
VGobotenn
p8179
VBurter
p8180
tp8181
a(VGeese
p8182
VJay Garrick
p8183
VGeese
p8184
tp8185
a(VMakoto
p8186
VAnother Kyo
p8187
VMakoto
p8188
tp8189
a(VJason Todd
p8190
VAVDOL VER2001
p8191
VAVDOL VER2001
p8192
tp8193
a(VAku-Amakusa
p8194
VWaha
p8195
VAku-Amakusa
p8196
tp8197
a(VOrchid
p8198
VOgre Akuma
p8199
VOgre Akuma
p8200
tp8201
a(VVisbou
p8202
VTron Bonne
p8203
VTron Bonne
p8204
tp8205
a(VGoten GT
p8206
VVegeta SSJ4
p8207
VGoten GT
p8208
tp8209
a(VRemilia
p8210
VCell
p8211
VRemilia
p8212
tp8213
a(VThanos
p8214
VHomer
p8215
VThanos
p8216
tp8217
a(VShiki VP
p8218
VItachi
p8219
VShiki VP
p8220
tp8221
a(VWing Zero
p8222
VKim
p8223
VKim
p8224
tp8225
a(VKamek
p8226
VKid Gohan
p8227
VKamek
p8228
tp8229
a(VGoku
p8230
VGinew
p8231
VGoku
p8232
tp8233
a(VLesty
p8234
VHisui
p8235
VHisui
p8236
tp8237
a(VVegeta SSJ3
p8238
VEsmeralda
p8239
VEsmeralda
p8240
tp8241
a(VMimic
p8242
VTung Fu Rue
p8243
VMimic
p8244
tp8245
a(VSimba
p8246
VYamiyuki
p8247
VYamiyuki
p8248
tp8249
a(VJason Todd
p8250
VSpiderman
p8251
VSpiderman
p8252
tp8253
a(VWhite Len
p8254
VRai
p8255
VRai
p8256
tp8257
a(VMajin Buu
p8258
VRyo
p8259
VRyo
p8260
tp8261
a(VStrider Hiryu
p8262
VWalkyrie
p8263
VStrider Hiryu
p8264
tp8265
a(VBlob
p8266
VSailor Jupiter
p8267
VBlob
p8268
tp8269
a(VFrieza
p8270
VVegeth SSJ2
p8271
VFrieza
p8272
tp8273
a(VP-Gohan SSJ2
p8274
VAlice
p8275
VP-Gohan SSJ2
p8276
tp8277
a(VSentinel
p8278
VLobo
p8279
VSentinel
p8280
tp8281
a(VIceman
p8282
VDragon Guy
p8283
VIceman
p8284
tp8285
a(VMotoko-Aoyama
p8286
VComplete Cell
p8287
VMotoko-Aoyama
p8288
tp8289
a(VHoly Ken
p8290
VRaiden
p8291
VHoly Ken
p8292
tp8293
a(VMayko
p8294
VEriol Hiiragizawa
p8295
VEriol Hiiragizawa
p8296
tp8297
a(VMarrow
p8298
VMisty
p8299
VMarrow
p8300
tp8301
a(VUltra SSJ5 Vegeta
p8302
VSuperman
p8303
VUltra SSJ5 Vegeta
p8304
tp8305
a(VNate Summers
p8306
VBatman
p8307
VBatman
p8308
tp8309
a(VKenshirou
p8310
VSailor Jupiter
p8311
VSailor Jupiter
p8312
tp8313
a(VEiji Kisaragi
p8314
VYatogi Tetsu
p8315
VYatogi Tetsu
p8316
tp8317
a(VBlack Widow
p8318
VDr Gero
p8319
VDr Gero
p8320
tp8321
a(VAVDOL VER2001
p8322
VMunch
p8323
VAVDOL VER2001
p8324
tp8325
a(VMongul
p8326
VRaptor
p8327
VMongul
p8328
tp8329
a(VGotenks SSJ
p8330
VGohan SSJ3
p8331
VGohan SSJ3
p8332
tp8333
a(VLisa
p8334
VXP Pro
p8335
VLisa
p8336
tp8337
a(VYellow-Pipo
p8338
VLobo
p8339
VYellow-Pipo
p8340
tp8341
a(VKazuya Mishima
p8342
VLion-O
p8343
VKazuya Mishima
p8344
tp8345
a(VRasetsumaru
p8346
VHavok
p8347
VRasetsumaru
p8348
tp8349
a(VSon Gohan
p8350
VBlack Widow
p8351
VBlack Widow
p8352
tp8353
a(VAnother Kyo
p8354
VSpopovich
p8355
VAnother Kyo
p8356
tp8357
a(VGinew
p8358
VVanilla Ice
p8359
VGinew
p8360
tp8361
a(VSSJ4 Goten
p8362
VVegetto EX
p8363
VSSJ4 Goten
p8364
tp8365
a(VGalactus
p8366
VZettaiaku
p8367
VGalactus
p8368
tp8369
a(VOjisama-Chaos
p8370
VGoku
p8371
VGoku
p8372
tp8373
a(VPerfect Cell
p8374
VShin Ryu
p8375
VPerfect Cell
p8376
tp8377
a(VDeath Ogre
p8378
VCaptain Marvel
p8379
VDeath Ogre
p8380
tp8381
a(VJuggernaut
p8382
VKenshirou
p8383
VJuggernaut
p8384
tp8385
a(VJin Saotome
p8386
VMega And 18
p8387
VJin Saotome
p8388
tp8389
a(VHoly ken
p8390
VKohaku
p8391
tp8392
a(VMedoi-san
p8393
VColossus
p8394
tp8395
a(VSad claps
p8396
VCrilin sposato
p8397
tp8398
a(VOmega red
p8399
VSakon
p8400
tp8401
a(VUzumaki naruto
p8402
VRusty
p8403
tp8404
a(VOmega tom hanks
p8405
VGohan saiya-jin ex
p8406
tp8407
a(VSailor mercury
p8408
VCrystal
p8409
tp8410
a(VJess
p8411
VCammy
p8412
tp8413
a(VGideon
p8414
VSentry
p8415
tp8416
a(VAbyss
p8417
VGoten GT nex
p8418
tp8419
a(VOmega tom hanks
p8420
VGohan saiya-jin ex
p8421
tp8422
a(VSailor mercury
p8423
VCrystal
p8424
VCrystal
p8425
tp8426
a(VSad claps
p8427
VCrilin sposato
p8428
tp8429
a(VShuko
p8430
VJamian
p8431
tp8432
a(VKazuki
p8433
VNate
p8434
tp8435
a(VOpening
p8436
V!so_mexican
p8437
tp8438
a(Vmorfo
p8439
VTheJoker
p8440
tp8441
a(Vgokuk
p8442
Vnagato
p8443
tp8444
a(VAmingo
p8445
Vcpu
p8446
tp8447
a(Vgokussj4GT
p8448
VVegetaHD2
p8449
tp8450
a(Vkgohanv594
p8451
VBizarro
p8452
tp8453
a(Vshaq
p8454
VCyberbots_Reptos
p8455
tp8456
a(VShuko
p8457
VJamian
p8458
tp8459
a(VKazuki
p8460
VNate
p8461
VKazuki
p8462
tp8463
a(Vperfect-cell
p8464
Ve
p8465
tp8466
a(VSub-Zero
p8467
Vu
p8468
tp8469
a(Vtrunkssb1v59\u005ctrunkssb1v59.def
p8470
VSuperskrull\u005cSuperskrull.def
p8471
tp8472
a(Vkarin\u005ckarin.def
p8473
Vmm_rox\u005cmm_rox.def
p8474
tp8475
a(VSub-Zero
p8476
g8468
VSub-Zero
p8477
tp8478
a(Vgohanex\u005cgohanex.def
p8479
VRedLantern\u005cRedLantern.def
p8480
VRedLantern\u005cRedLantern.def
p8481
tp8482
a(Vgill\u005cgill.def
p8483
Vcellhd\u005ccellhd.def
p8484
Vcellhd\u005ccellhd.def
p8485
tp8486
a(VMoleman\u005cMoleman.def
p8487
Vpizza\u005cpizza.def
p8488
VMoleman\u005cMoleman.def
p8489
tp8490
a(VASH_RMH\u005cASH-ita.def
p8491
Vvegetahd2\u005cVegetaHD2.def
p8492
tp8493
a(VRajaaMech-Hisui\u005cRajaaMech-Hisui.def
p8494
VPChunli\u005cpchunli.def
p8495
tp8496
a(VMoleman\u005cMoleman.def
p8497
Vwingzero\u005cwingzero.def
p8498
tp8499
a(VClow\u005cShaoran.def
p8500
VBartman\u005c._bartman.def
p8501
tp8502
a(Vsilversam\u005csilversam.def
p8503
VDeathOgre\u005cDeathOgre.def
p8504
tp8505
a(VNEJI_COSPLAY\u005cNEJI_COSPLAY.def
p8506
Vginew\u005cGinew_Final.def
p8507
tp8508
a(Vkidgohan\u005ckidgohan.def
p8509
Vsouseiseki\u005csouseiseki.def
p8510
tp8511
a(VRajaaShiki\u005cRajaaShiki.def
p8512
Vgobo\u005cgobo.def
p8513
tp8514
a(VMedoi-san
p8515
VColossus
p8516
VColossus
p8517
tp8518
a(VSaint Kyo
p8519
VCheap Boss Type
p8520
VCheap Boss Type
p8521
tp8522
a(VSaint Kyo
p8523
VAlessi
p8524
VSaint Kyo
p8525
tp8526
a(VMeta-knight
p8527
VYoutube Poop Robotnik
p8528
VYoutube Poop Robotnik
p8529
tp8530
a(VVisbou
p8531
VKen and Gang
p8532
VKen and Gang
p8533
tp8534
a(VRobin
p8535
VGalactus
p8536
VGalactus
p8537
tp8538
a(VJuggernaut
p8539
VKen
p8540
VKen
p8541
tp8542
a(VSora
p8543
VPiccolo SB1
p8544
VSora
p8545
tp8546
a(VMagneto
p8547
VDoraemon
p8548
VMagneto
p8549
tp8550
a(VWing Zero
p8551
VRecoome
p8552
VWing Zero
p8553
tp8554
a(VMaster Hand
p8555
VMech Zangief
p8556
VMaster Hand
p8557
tp8558
a(VTibigintou
p8559
VBatman Beyond
p8560
VBatman Beyond
p8561
tp8562
a(VTrunks
p8563
VChouji
p8564
VChouji
p8565
tp8566
a(VShin Ryu
p8567
VKazama Kazuki
p8568
VKazama Kazuki
p8569
tp8570
a(VFaust
p8571
VGotenks SSJ3
p8572
VFaust
p8573
tp8574
a(VBiohazard
p8575
VSupergirl
p8576
VBiohazard
p8577
tp8578
a(VMirai Trunks
p8579
VElla
p8580
VMirai Trunks
p8581
tp8582
a(VFreeza 100%
p8583
VCable
p8584
VCable
p8585
tp8586
a(VElektra
p8587
VSpawn
p8588
VElektra
p8589
tp8590
a(VTerry
p8591
VGoten GT
p8592
VGoten GT
p8593
tp8594
a(VBlack Tiger
p8595
VKenshin
p8596
VBlack Tiger
p8597
tp8598
a(VPerfect Storm X
p8599
VLobo
p8600
VPerfect Storm X
p8601
tp8602
a(VYoshikage Killa
p8603
VViuda Negra
p8604
VViuda Negra
p8605
tp8606
a(VSonson
p8607
VMr Karate
p8608
VSonson
p8609
tp8610
a(VMisty
p8611
VKosmos
p8612
VMisty
p8613
tp8614
a(VMegatron
p8615
VHinata
p8616
VMegatron
p8617
tp8618
a(VGalactus
p8619
VSlayer
p8620
VGalactus
p8621
tp8622
a(VAoi-ko
p8623
VCaptain America
p8624
VCaptain America
p8625
tp8626
a(VGohan Saiya Jin EX
p8627
VDee Jay
p8628
VGohan Saiya Jin EX
p8629
tp8630
a(VKaede
p8631
VBig Chicken
p8632
VBig Chicken
p8633
tp8634
a(VTiger
p8635
VVegeth@
p8636
VTiger
p8637
tp8638
a(V009
p8639
VPolaris
p8640
V009
p8641
tp8642
a(VGogeta SSJ4
p8643
VRecoom
p8644
VRecoom
p8645
tp8646
a(VSolid Snake
p8647
VBenimaru
p8648
VBenimaru
p8649
tp8650
a(VGreat S man
p8651
VShangtsung
p8652
VGreat S man
p8653
tp8654
a(VP Chunli
p8655
VSandman
p8656
VSandman
p8657
tp8658
a(VLi Sheng Long
p8659
VBaldhead
p8660
VLi Sheng Long
p8661
tp8662
a(VMexican Typhoon
p8663
VCless Alvein
p8664
VMexican Typhoon
p8665
tp8666
a(VTsugumi
p8667
VElastigirl
p8668
VTsugumi
p8669
tp8670
a(VAmy
p8671
VDoom Vega
p8672
VDoom Vega
p8673
tp8674
a(VMako
p8675
VSakura
p8676
VSakura
p8677
tp8678
a(VBatman Beyond
p8679
VGohan Zeta
p8680
VBatman Beyond
p8681
tp8682
a(VShadowcat
p8683
VKang
p8684
VShadowcat
p8685
tp8686
a(VTakakazu Abe
p8687
VRoomi
p8688
VRoomi
p8689
tp8690
a(VMaster Hand
p8691
VAnother Kyo
p8692
VMaster Hand
p8693
tp8694
a(VGohan SSJ2
p8695
VNaruto
p8696
VGohan SSJ2
p8697
tp8698
a(VEnya
p8699
VBomber man
p8700
VBomber man
p8701
tp8702
a(VGreen Arrow
p8703
VSetsuna
p8704
VSetsuna
p8705
tp8706
a(VG-akiha
p8707
VUltron
p8708
VG-akiha
p8709
tp8710
a(VKrusty
p8711
VShuma Gorath
p8712
VKrusty
p8713
tp8714
a(VKing Godzilla
p8715
VMr Satan
p8716
VKing Godzilla
p8717
tp8718
a(VSakon
p8719
VDante
p8720
VDante
p8721
tp8722
a(V98SE
p8723
VIronpatriot
p8724
VIronpatriot
p8725
tp8726
a(VAlucard
p8727
VIchigo
p8728
VIchigo
p8729
tp8730
a(VBoo
p8731
VOjisama-chaos
p8732
VOjisama-chaos
p8733
tp8734
a(VAoi-ko
p8735
VUbu
p8736
VUbu
p8737
tp8738
a(VVidel
p8739
VBlack Tiger
p8740
VBlack Tiger
p8741
tp8742
a(VSaint Kyo
p8743
VChibi Gohan Nex
p8744
VSaint Kyo
p8745
tp8746
a(VKamek
p8747
VAirman
p8748
VKamek
p8749
tp8750
a(VRyu Plus
p8751
VIronpatriot
p8752
VRyu Plus
p8753
tp8754
a(VComplete Cell
p8755
VWolvenom
p8756
VWolvenom
p8757
tp8758
a(VPolaris
p8759
VShadow Dio
p8760
VShadow Dio
p8761
tp8762
a(VSaibaman
p8763
VNero
p8764
VNero
p8765
tp8766
a(VCheap Boss Type
p8767
VMickey
p8768
VCheap Boss Type
p8769
tp8770
a(VGohan Grande Normale
p8771
VSasuke
p8772
VGohan Grande Normale
p8773
tp8774
a(VColossus
p8775
VRayman
p8776
VColossus
p8777
tp8778
a(VBattousai
p8779
VSango
p8780
VBattousai
p8781
tp8782
a(VBartman
p8783
VNaruto
p8784
VNaruto
p8785
tp8786
a(VLion Magnus
p8787
VMarie
p8788
VLion Magnus
p8789
tp8790
a(VHigh Dio
p8791
VBastion
p8792
VBastion
p8793
tp8794
a(VZarbom
p8795
VSaibaman
p8796
VZarbom
p8797
tp8798
a(VTsugumi
p8799
VKurokishi
p8800
VKurokishi
p8801
tp8802
a(VEnya
p8803
VKrillin
p8804
VKrillin
p8805
tp8806
a(VKujo Jotaro
p8807
VGoten GT
p8808
VKujo Jotaro
p8809
tp8810
a(VVidel
p8811
VDio
p8812
VVidel
p8813
tp8814
a(VDante
p8815
V95
p8816
V95
p8817
tp8818
a(VKoopa Troopa
p8819
VSuperboy
p8820
VKoopa Troopa
p8821
tp8822
a(VLobo
p8823
VGold Warmachine
p8824
VLobo
p8825
tp8826
a(VKujo Jotaro
p8827
VG-bit
p8828
VKujo Jotaro
p8829
tp8830
a(VSonGoku SNK SF
p8831
VChaos Hiryu
p8832
VChaos Hiryu
p8833
tp8834
a(VRuby Heart
p8835
VBeast
p8836
VBeast
p8837
tp8838
a(VYoko Yuki
p8839
VVanilla Ice
p8840
VYoko Yuki
p8841
tp8842
a(VAsh
p8843
VShadowcat
p8844
VAsh
p8845
tp8846
a(VGold Warmachine
p8847
VShadow Vegeta
p8848
VShadow Vegeta
p8849
tp8850
a(VGreen Arrow
p8851
VSonic
p8852
VGreen Arrow
p8853
tp8854
a(VEvil Ryu
p8855
VAndroid 17
p8856
VEvil Ryu
p8857
tp8858
a(VRecoom
p8859
VVegeta
p8860
VVegeta
p8861
tp8862
a(VG-bit
p8863
VThe Joker
p8864
VThe Joker
p8865
tp8866
a(VNoroko
p8867
VPoppy
p8868
VPoppy
p8869
tp8870
a(VKung Lao
p8871
VThe Nightmare
p8872
VThe Nightmare
p8873
tp8874
a(VZero
p8875
VVenom
p8876
VVenom
p8877
tp8878
a(VRox Howard Clones
p8879
VOmega
p8880
tp8881
a(VRox Howard Clones
p8882
VSaint Kyo
p8883
VRox Howard Clones
p8884
tp8885
a(VOmega
p8886
VSaint Kyo
p8887
VOmega
p8888
tp8889
a(VUltimate Gohan
p8890
VDark Ryu
p8891
VUltimate Gohan
p8892
tp8893
a(VMega Gohan
p8894
VGaara
p8895
VGaara
p8896
tp8897
a(VSSJ5 Goku
p8898
VColossus
p8899
VSSJ5 Goku
p8900
tp8901
a(VSSJ Goku
p8902
VSon Gohan
p8903
VSon Gohan
p8904
tp8905
a(VSentinel
p8906
VLupin the 3rd
p8907
VSentinel
p8908
tp8909
a(VOmega
p8910
VSupergirl
p8911
VOmega
p8912
tp8913
a(VGoku
p8914
VIggy
p8915
VIggy
p8916
tp8917
a(VJoe Higashi
p8918
VRecoom
p8919
VJoe Higashi
p8920
tp8921
a(VJamian Di Corvus
p8922
VUnknown
p8923
VJamian Di Corvus
p8924
tp8925
a(VAnother Kyo
p8926
VTakakazu Abe
p8927
VAnother Kyo
p8928
tp8929
a(VGreen Latern GG
p8930
VPrincess Peach
p8931
VGreen Latern GG
p8932
tp8933
a(VGotenks
p8934
VTrunks SSJ4
p8935
VTrunks SSJ4
p8936
tp8937
a(VInvisible Woman
p8938
VDizzy
p8939
VDizzy
p8940
tp8941
a(VKohaku
p8942
VBurter
p8943
VBurter
p8944
tp8945
a(VLupin the 3rd
p8946
VRogue
p8947
VRogue
p8948
tp8949
a(VBart
p8950
VRyu
p8951
VRyu
p8952
tp8953
a(VKhan
p8954
VMarrow
p8955
VMarrow
p8956
tp8957
a(VJohnny Cage
p8958
VPan
p8959
VJohnny Cage
p8960
tp8961
a(VCarnage
p8962
VBra
p8963
VCarnage
p8964
tp8965
a(VSasuke Kun
p8966
VMilan Flare
p8967
VSasuke Kun
p8968
tp8969
a(VMaraiah
p8970
VLi Sheng Long
p8971
VLi Sheng Long
p8972
tp8973
a(VAoi-ko
p8974
VYellow Devil
p8975
VYellow Devil
p8976
tp8977
a(VKoopa Troopa
p8978
VViolent Dan
p8979
VViolent Dan
p8980
tp8981
a(VHomer
p8982
VCless Alvein
p8983
VCless Alvein
p8984
tp8985
a(VBlue Destiny 2
p8986
VZaku
p8987
VBlue Destiny 2
p8988
tp8989
a(VMetal Man
p8990
VMillia
p8991
VMillia
p8992
tp8993
a(VTrunks
p8994
VSpawn
p8995
VSpawn
p8996
tp8997
a(VKazama Kazuki
p8998
VSinku
p8999
VKazama Kazuki
p9000
tp9001
a(VYashaoh
p9002
VAku Amakusa
p9003
VAku Amakusa
p9004
tp9005
a(VA.B.A.
p9006
VHeihachi
p9007
VHeihachi
p9008
tp9009
a(VVega
p9010
VHol Horse
p9011
VVega
p9012
tp9013
a(VDoraemon
p9014
VPoppy
p9015
VPoppy
p9016
tp9017
a(VGod Ken
p9018
VGold Warmachine
p9019
VGold Warmachine
p9020
tp9021
a(VLuigi
p9022
VDoparmin
p9023
VDoparmin
p9024
tp9025
a(VXP Pro
p9026
VLynn Baker
p9027
VLynn Baker
p9028
tp9029
a(VI-No
p9030
VGoku
p9031
VI-No
p9032
tp9033
a(VWagahai
p9034
VThe Thing
p9035
tp9036
a(VCaptain America
p9037
VArmored Gohan
p9038
VArmored Gohan
p9039
tp9040
a(VTenshinham
p9041
VAbyss
p9042
VAbyss
p9043
tp9044
a(VGoku GT
p9045
VPunisher
p9046
VPunisher
p9047
tp9048
a(VGurocure
p9049
VSpawn
p9050
tp9051
a(VCell
p9052
VMajin Buu
p9053
VMajin Buu
p9054
tp9055
a(VPengintou
p9056
VLuigi
p9057
VLuigi
p9058
tp9059
a(VSpawn
p9060
VRandy M Green
p9061
VRandy M Green
p9062
tp9063
a(VMichaelangelo
p9064
VBrian Griffin
p9065
VMichaelangelo
p9066
tp9067
a(VZeroko
p9068
VRugal
p9069
VRugal
p9070
tp9071
a(VChibi Ubuu
p9072
VJoseph the BB
p9073
VChibi Ubuu
p9074
tp9075
a(VElla
p9076
VSakura
p9077
VElla
p9078
tp9079
a(VM-Vegeta SSJ3
p9080
VIron Man
p9081
VIron Man
p9082
tp9083
a(VDeath Ogre
p9084
VSasuke Kun
p9085
VDeath Ogre
p9086
tp9087
a(VAoshi
p9088
VMilan Flare
p9089
VMilan Flare
p9090
tp9091
a(VGoten
p9092
VMaster Sakura
p9093
VMaster Sakura
p9094
tp9095
a(VCell Genesis
p9096
VKabal
p9097
VKabal
p9098
tp9099
a(VRouge
p9100
VSon Trunks
p9101
VSon Trunks
p9102
tp9103
a(VFireman
p9104
VAoshi
p9105
VAoshi
p9106
tp9107
a(VIchigo
p9108
VDocOck
p9109
VIchigo
p9110
tp9111
a(VFireman
p9112
VShishio
p9113
VShishio
p9114
tp9115
a(VNail
p9116
VShin Gouki
p9117
VNail
p9118
tp9119
a(VEmma Frost
p9120
VChosu
p9121
VEmma Frost
p9122
tp9123
a(VSentinel
p9124
VDante
p9125
VSentinel
p9126
tp9127
a(VSuperman
p9128
VRoomi
p9129
VRoomi
p9130
tp9131
a(VMars People
p9132
VEmerl
p9133
VMars People
p9134
tp9135
a(VChichi
p9136
VOrochi Iori
p9137
VOrochi Iori
p9138
tp9139
a(VThe Blob
p9140
VSuper Mario
p9141
VThe Blob
p9142
tp9143
a(VDonovan
p9144
VVegeta
p9145
VDonovan
p9146
tp9147
a(VGoku SSJ2
p9148
VGogeta SSJ4
p9149
VGogeta SSJ4
p9150
tp9151
a(VCaptain Marvel
p9152
VMr Satan
p9153
VCaptain Marvel
p9154
tp9155
a(VZangia
p9156
VNightcrawler
p9157
VNightcrawler
p9158
tp9159
a(VCream
p9160
VBartman
p9161
VBartman
p9162
tp9163
a(VLion Magnus
p9164
VRoomi
p9165
VLion Magnus
p9166
tp9167
a(VKing Godzilla
p9168
VDodoria
p9169
VKing Godzilla
p9170
tp9171
a(VSuper Mario
p9172
VGoku GT
p9173
VSuper Mario
p9174
tp9175
a(VVegetto EX
p9176
VMegaman.EXE
p9177
VMegaman.EXE
p9178
tp9179
a(VMai Shiranui
p9180
VLeona
p9181
VMai Shiranui
p9182
tp9183
a(VMaster Hand
p9184
VBishamon
p9185
VMaster Hand
p9186
tp9187
a(VComplete Cell
p9188
VGoku SSJ GT
p9189
VGoku SSJ GT
p9190
tp9191
a(VSasuke
p9192
VRyo
p9193
VRyo
p9194
tp9195
a(VLupin the 3rd
p9196
VZarbom
p9197
VLupin the 3rd
p9198
tp9199
a(VGod Yuri
p9200
VShino
p9201
VGod Yuri
p9202
tp9203
a(VRuby Heart
p9204
VBB Hood
p9205
VBB Hood
p9206
tp9207
a(VGreen Latern GG
p9208
VVegeta
p9209
VGreen Latern GG
p9210
tp9211
a(VStrong Guy
p9212
VButtercup
p9213
VStrong Guy
p9214
tp9215
a(VStarfire
p9216
VSakura Kinomoto
p9217
VSakura Kinomoto
p9218
tp9219
a(VUltra SSJ5 Vegeta
p9220
VSakon
p9221
VUltra SSJ5 Vegeta
p9222
tp9223
a(VPopeye
p9224
VYagumo
p9225
VPopeye
p9226
tp9227
a(VVenom Scorpion
p9228
VCapella
p9229
VCapella
p9230
tp9231
a(VNakoruru
p9232
VSuper Buu
p9233
VNakoruru
p9234
tp9235
a(VBlack Adam
p9236
VBra
p9237
VBra
p9238
tp9239
a(VGogeta SSJ4
p9240
VRaiden
p9241
VRaiden
p9242
tp9243
a(VKiba
p9244
VPyro
p9245
VPyro
p9246
tp9247
a(VWario
p9248
VDark Psylocke
p9249
VWario
p9250
tp9251
a(VZangia
p9252
VGill
p9253
VGill
p9254
tp9255
a(VRaphael
p9256
VPetShop
p9257
VRaphael
p9258
tp9259
a(VGoku SSJ 3
p9260
VShishio
p9261
VShishio
p9262
tp9263
a(VMaxima
p9264
VTyouun Shiryu
p9265
VTyouun Shiryu
p9266
tp9267
a(VThierry Henry
p9268
VDonatello
p9269
VDonatello
p9270
tp9271
a(VMech Hisui
p9272
VVegetto EX
p9273
VMech Hisui
p9274
tp9275
a(VHercule GT
p9276
VWonderman
p9277
VWonderman
p9278
tp9279
a(VChaos Hiryu
p9280
VSaint Kyo
p9281
VSaint Kyo
p9282
tp9283
a(VChaos Hiryu
p9284
VThe Flash
p9285
VChaos Hiryu
p9286
tp9287
a(VJudgement
p9288
VMai_K
p9289
VMai_K
p9290
tp9291
a(VCammy
p9292
VSon Gohan
p9293
VSon Gohan
p9294
tp9295
a(VMagneto
p9296
VRadish SSJ4
p9297
VRadish SSJ4
p9298
tp9299
a(VEiji Kisaragi
p9300
VKen
p9301
VKen
p9302
tp9303
a(VBane
p9304
VHavok
p9305
VBane
p9306
tp9307
a(VYue
p9308
VJones
p9309
VYue
p9310
tp9311
a(VBlack Cat
p9312
VBulma
p9313
VBlack Cat
p9314
tp9315
a(VRecoom
p9316
VMystique
p9317
VMystique
p9318
tp9319
a(VMai
p9320
VEmma Frost
p9321
VEmma Frost
p9322
tp9323
a(VRubber Soul
p9324
VAirman
p9325
VAirman
p9326
tp9327
a(VVega
p9328
VRikuo
p9329
VRikuo
p9330
tp9331
a(VBurta
p9332
VYuki
p9333
VBurta
p9334
tp9335
a(VYumi
p9336
VEnya
p9337
VYumi
p9338
tp9339
a(VCammy
p9340
VGundam Heavy Arms
p9341
VCammy
p9342
tp9343
a(VAbyss
p9344
VDr Gero and 20
p9345
VAbyss
p9346
tp9347
a(VGogeta SSJ
p9348
VIggy
p9349
VIggy
p9350
tp9351
a(VSon Trunks
p9352
VPrincess Peach
p9353
VSon Trunks
p9354
tp9355
a(VP-Gohan SSJ2
p9356
VShiki Tohno
p9357
VShiki Tohno
p9358
tp9359
a(VSpelunker
p9360
VChibi Gohan Nex
p9361
VChibi Gohan Nex
p9362
tp9363
a(VMio
p9364
VAmi BF
p9365
VAmi BF
p9366
tp9367
a(VKosmos
p9368
VSolid Snake
p9369
VKosmos
p9370
tp9371
a(VAnother Jissou Seki
p9372
VTetuwo
p9373
VTetuwo
p9374
tp9375
a(VRhino
p9376
VPsylocke
p9377
VPsylocke
p9378
tp9379
a(VBlaze Agent
p9380
VEmma Frost
p9381
VBlaze Agent
p9382
tp9383
a(VE-102R
p9384
VRecoome
p9385
VRecoome
p9386
tp9387
a(VMillia
p9388
VNemesis
p9389
VMillia
p9390
tp9391
a(VSlash
p9392
VOrione
p9393
VSlash
p9394
tp9395
a(VSyo Hayate
p9396
VNega Joe
p9397
VNega Joe
p9398
tp9399
a(VTails
p9400
VWild Ken Ex
p9401
VWild Ken Ex
p9402
tp9403
a(V98SE
p9404
VMegaman
p9405
VMegaman
p9406
tp9407
a(VEvil Ryu
p9408
VMarisa Kirisame
p9409
VMarisa Kirisame
p9410
tp9411
a(VEagle
p9412
VThe Flash
p9413
VThe Flash
p9414
tp9415
a(VGoku SB1
p9416
VGreen Lantern JS
p9417
VGreen Lantern JS
p9418
tp9419
a(VRox Howard Clones
p9420
VAirman
p9421
VRox Howard Clones
p9422
tp9423
a(VSaori-Athena
p9424
VAquaman
p9425
VSaori-Athena
p9426
tp9427
a(VBulma
p9428
VOnslaught
p9429
VOnslaught
p9430
tp9431
a(VCammy
p9432
VStarfire
p9433
VStarfire
p9434
tp9435
a(VR Lilith
p9436
VAndroid 18
p9437
VR Lilith
p9438
tp9439
a(VModoi-san
p9440
VIchigo
p9441
VIchigo
p9442
tp9443
a(VUltron
p9444
VRaiden
p9445
VUltron
p9446
tp9447
a(VBack Beard
p9448
VNorimaru
p9449
VNorimaru
p9450
tp9451
a(VZaku
p9452
VZaku
p9453
VZaku
p9454
tp9455
a(VEvil Ryu
p9456
VTung Fu Rue
p9457
VEvil Ryu
p9458
tp9459
a(VSpiderman 2099
p9460
VBishop
p9461
VBishop
p9462
tp9463
a(VSuperman
p9464
VShadowcat
p9465
VShadowcat
p9466
tp9467
a(VUbu
p9468
VGohan GT
p9469
VUbu
p9470
tp9471
a(VMetal Man
p9472
VSon Goku
p9473
VSon Goku
p9474
tp9475
a(VAmi
p9476
VSSJ Gohan
p9477
VAmi
p9478
tp9479
a(VElla
p9480
VMorph
p9481
VMorph
p9482
tp9483
a(VAndroide 18
p9484
VAlucard
p9485
VAndroide 18
p9486
tp9487
a(VButtercup
p9488
VMusashi Akatsuki
p9489
VMusashi Akatsuki
p9490
tp9491
a(VGoku SSJ4 DB Final Bout
p9492
VTurles
p9493
VGoku SSJ4 DB Final Bout
p9494
tp9495
a(VVergil
p9496
VOrione
p9497
VVergil
p9498
tp9499
a(VSailor Moon
p9500
VCaptain Caveman
p9501
VCaptain Caveman
p9502
tp9503
a(VSuper Buu
p9504
VCyclops
p9505
VCyclops
p9506
tp9507
a(VJudgement
p9508
VVidel
p9509
VVidel
p9510
tp9511
a(VMiss Marvel
p9512
VRecoom
p9513
VMiss Marvel
p9514
tp9515
a(VGogeta SSJ
p9516
VBlockhead
p9517
VBlockhead
p9518
tp9519
a(VBaby Commando
p9520
VEvil Dan
p9521
VEvil Dan
p9522
tp9523
a(VChibi Goku
p9524
VApocalypse
p9525
VApocalypse
p9526
tp9527
a(VArchangel
p9528
VFat Albert
p9529
VArchangel
p9530
tp9531
a(VDr. Doom
p9532
VChaka
p9533
VDr. Doom
p9534
tp9535
a(VLink
p9536
VKanmi Chan
p9537
VKanmi Chan
p9538
tp9539
a(VProtoman
p9540
VMaster Hand
p9541
VMaster Hand
p9542
tp9543
a(VJuggernaut
p9544
VPrincess Peach
p9545
VJuggernaut
p9546
tp9547
a(VSSJ3 Goku
p9548
VRadel
p9549
VRadel
p9550
tp9551
a(VDan
p9552
VDeath13
p9553
VDan
p9554
tp9555
a(VCammy
p9556
VSpiral
p9557
VSpiral
p9558
tp9559
a(VYumeji Kurokouchi
p9560
VTurles
p9561
VYumeji Kurokouchi
p9562
tp9563
a(VSpiderman 2099
p9564
VZero
p9565
VZero
p9566
tp9567
a(VProtoman
p9568
VSeth
p9569
VSeth
p9570
tp9571
a(VMech Gouki
p9572
VChaos Hiryu
p9573
VChaos Hiryu
p9574
tp9575
a(VCell Genesis
p9576
VChosu
p9577
VChosu
p9578
tp9579
a(VMinikata Moriya
p9580
VMilan Flare
p9581
VMilan Flare
p9582
tp9583
a(VRobo-Kyii
p9584
VGoku GT SSJ3
p9585
VRobo-Kyii
p9586
tp9587
a(VRorscach
p9588
VAnother Iori
p9589
VAnother Iori
p9590
tp9591
a(VGoku GT
p9592
VSentinel
p9593
VGoku GT
p9594
tp9595
a(VOrochimaru
p9596
VSuperman
p9597
VOrochimaru
p9598
tp9599
a(VSon Trunks
p9600
VOgitafanada
p9601
VSon Trunks
p9602
tp9603
a(VCyborg Superman
p9604
VDeath Maul
p9605
VCyborg Superman
p9606
tp9607
a(VReimi Jyahana
p9608
VBeast
p9609
VBeast
p9610
tp9611
a(VJay Garrick
p9612
VHaohmaru
p9613
VJay Garrick
p9614
tp9615
a(VSaint Kyo
p9616
VDonovan
p9617
VSaint Kyo
p9618
tp9619
a(VSaint Kyo
p9620
VDonovan
p9621
VSaint Kyo
p9622
tp9623
a(VChibiko
p9624
VKoopa Troopa
p9625
VChibiko
p9626
tp9627
a(VBra
p9628
VPunisher
p9629
VBra
p9630
tp9631
a(VNrvnqsr Chaos
p9632
VAnji
p9633
VNrvnqsr Chaos
p9634
tp9635
a(VChameleon
p9636
VKarin Kanzuki
p9637
VChameleon
p9638
tp9639
a(VMaraiah
p9640
VPiccolo
p9641
VMaraiah
p9642
tp9643
a(VWonderman
p9644
VTemari
p9645
VWonderman
p9646
tp9647
a(VShangtsung
p9648
VGeese
p9649
VGeese
p9650
tp9651
a(VNash Shadow
p9652
VScorpion
p9653
VNash Shadow
p9654
tp9655
a(VCyborg Mai
p9656
VDr Gero
p9657
VCyborg Mai
p9658
tp9659
a(VUzumaki Naruto
p9660
VWar Machine
p9661
VWar Machine
p9662
tp9663
a(VHotaru
p9664
VAbui
p9665
VHotaru
p9666
tp9667
a(VLord Shaolin Lee
p9668
VDark Psylocke
p9669
VDark Psylocke
p9670
tp9671
a(VPizza
p9672
VMega Goku
p9673
VPizza
p9674
tp9675
a(VMidler
p9676
VPetShop
p9677
VPetShop
p9678
tp9679
a(VSolid Snake
p9680
VDee Jay
p9681
VDee Jay
p9682
tp9683
a(VCyclops
p9684
VShadow Dio
p9685
VShadow Dio
p9686
tp9687
a(VFirebrand
p9688
VSaint Kyo
p9689
VSaint Kyo
p9690
tp9691
a(VOmega Red
p9692
VKid Gohan
p9693
VOmega Red
p9694
tp9695
a(VDan
p9696
VOrochimaru
p9697
VOrochimaru
p9698
tp9699
a(VMichaelangelo
p9700
VAbyss
p9701
VMichaelangelo
p9702
tp9703
a(VCapella
p9704
VKy
p9705
VCapella
p9706
tp9707
a(VMajin Vegeta
p9708
VRose
p9709
VMajin Vegeta
p9710
tp9711
a(VIron Lantern
p9712
VChibi Goku
p9713
VIron Lantern
p9714
tp9715
a(VMarco
p9716
VSamurai Jack
p9717
VSamurai Jack
p9718
tp9719
a(VMestre Kame
p9720
VOozura Vegeta
p9721
VOozura Vegeta
p9722
tp9723
a(VI-No
p9724
VHaku
p9725
VHaku
p9726
tp9727
a(VSon Goku
p9728
VMisery
p9729
VSon Goku
p9730
tp9731
a(VFreeza 1st Form
p9732
VAndroid 16
p9733
VAndroid 16
p9734
tp9735
a(VDonovan
p9736
VOgre
p9737
VDonovan
p9738
tp9739
a(VM Bison
p9740
VLady Deathstrike
p9741
VM Bison
p9742
tp9743
a(VMega Lilde
p9744
VLeona
p9745
VLeona
p9746
tp9747
a(VWildcat
p9748
VPoppy
p9749
VPoppy
p9750
tp9751
a(VJason Todd
p9752
VMr Bison
p9753
VJason Todd
p9754
tp9755
a(VBlack Widow
p9756
VOjisama-chaos
p9757
VBlack Widow
p9758
tp9759
a(VTenshinham
p9760
VWarachia
p9761
VWarachia
p9762
tp9763
a(VEiji Kisaragi
p9764
VGoku SSJ4 DB Final Bout
p9765
VGoku SSJ4 DB Final Bout
p9766
tp9767
a(VHibiki
p9768
VAkiha
p9769
VHibiki
p9770
tp9771
a(VUzumaki Naruto
p9772
VJoseph Joestar
p9773
VJoseph Joestar
p9774
tp9775
a(VNamor
p9776
VTyouun Shiryu
p9777
VNamor
p9778
tp9779
a(VDabura
p9780
VVegeta
p9781
VVegeta
p9782
tp9783
a(VYakui San
p9784
VIron Man
p9785
VIron Man
p9786
tp9787
a(VGoenitz
p9788
VVanilla H
p9789
VVanilla H
p9790
tp9791
a(VKyo
p9792
VDio
p9793
VKyo
p9794
tp9795
a(VTao Jun
p9796
VIchi
p9797
VIchi
p9798
tp9799
a(VGotenks
p9800
VNagato Yuki
p9801
VNagato Yuki
p9802
tp9803
a(VRogue
p9804
VMimic
p9805
VRogue
p9806
tp9807
a(VVicViper
p9808
VKen
p9809
VKen
p9810
tp9811
a(VSnake Eyes
p9812
VGeese
p9813
VSnake Eyes
p9814
tp9815
a(VMotoko-Aoyama
p9816
VJudgement
p9817
VJudgement
p9818
tp9819
a(VTara-Gyouza
p9820
VKung Lao
p9821
VKung Lao
p9822
tp9823
a(VWolverine
p9824
VMinis Mahn
p9825
VMinis Mahn
p9826
tp9827
a(VSean Matsuda
p9828
VKy
p9829
VSean Matsuda
p9830
tp9831
a(VDio
p9832
VPhoenix
p9833
VDio
p9834
tp9835
a(VSyo Hayate
p9836
VKuando
p9837
VKuando
p9838
tp9839
a(VDonovan
p9840
VM-Vegeta SSJ3
p9841
VDonovan
p9842
tp9843
a(VKarnov
p9844
VMr. Fantastic
p9845
VMr. Fantastic
p9846
tp9847
a(VSylphie
p9848
VMarie
p9849
VSylphie
p9850
tp9851
a(VBroly
p9852
VShin Kazuma
p9853
VShin Kazuma
p9854
tp9855
a(VChaos Hiryu
p9856
VRyo
p9857
VChaos Hiryu
p9858
tp9859
a(VKen
p9860
VBra
p9861
VBra
p9862
tp9863
a(VCharlie
p9864
VFat Albert
p9865
VCharlie
p9866
tp9867
a(VFelicia
p9868
VAndroide 18
p9869
VAndroide 18
p9870
tp9871
a(VSaint Kyo
p9872
VSentinel
p9873
VSaint Kyo
p9874
tp9875
a(VP Chunli
p9876
VVegeta
p9877
VP Chunli
p9878
tp9879
a(VBart
p9880
VDonatello
p9881
VDonatello
p9882
tp9883
a(VShin Bison
p9884
VVic Viper
p9885
VShin Bison
p9886
tp9887
a(VShadow Dio
p9888
VButthead
p9889
VShadow Dio
p9890
tp9891
a(VVega
p9892
V98
p9893
VVega
p9894
tp9895
a(VGreat S Man
p9896
VCrashman
p9897
VCrashman
p9898
tp9899
a(VYusuke
p9900
VLast Adult Goku
p9901
VLast Adult Goku
p9902
tp9903
a(VChameleon
p9904
VUbu
p9905
VChameleon
p9906
tp9907
a(VGiano
p9908
VCaptain America
p9909
VGiano
p9910
tp9911
a(VKagami Kyosuke
p9912
VMega Gohan
p9913
VKagami Kyosuke
p9914
tp9915
a(VChiaotzu
p9916
VBridget
p9917
VChiaotzu
p9918
tp9919
a(VMarrow
p9920
VZangief Maskered
p9921
VZangief Maskered
p9922
tp9923
a(VSonGoku SNK SF
p9924
VSyo Hayate
p9925
VSyo Hayate
p9926
tp9927
a(VFelicia
p9928
VCloud
p9929
VCloud
p9930
tp9931
a(VYuki
p9932
VGohan School
p9933
VYuki
p9934
tp9935
a(VPotemkin
p9936
VKen
p9937
VPotemkin
p9938
tp9939
a(VMako
p9940
VStrider Hien
p9941
VStrider Hien
p9942
tp9943
a(VHeihachi
p9944
VHuman Torch
p9945
VHeihachi
p9946
tp9947
a(VVegeta SSJ4
p9948
VAngel Ryu
p9949
VVegeta SSJ4
p9950
tp9951
a(VGotenks
p9952
VJimmy Lee
p9953
VJimmy Lee
p9954
tp9955
a(V98
p9956
VG-bit
p9957
V98
p9958
tp9959
a(VNega Joe
p9960
VBlaze Agent
p9961
VBlaze Agent
p9962
tp9963
a(VRobo Rock
p9964
VNanaya
p9965
VRobo Rock
p9966
tp9967
a(VKrizalid
p9968
VZero Hotaru
p9969
VZero Hotaru
p9970
tp9971
a(VBaby Commando
p9972
VGoku DB
p9973
VBaby Commando
p9974
tp9975
a(VIggy
p9976
VTiger
p9977
VIggy
p9978
tp9979
a(VCammy
p9980
VOjisama
p9981
VOjisama
p9982
tp9983
a(VDio
p9984
VNamor
p9985
VDio
p9986
tp9987
a(VMayko
p9988
VScorpion
p9989
VScorpion
p9990
tp9991
a(VTen
p9992
VMestre Kame
p9993
VTen
p9994
tp9995
a(VJon Talbain
p9996
VVoid
p9997
VVoid
p9998
tp9999
a(VParasite
p10000
VKenshirou
p10001
VParasite
p10002
tp10003
a(VVanilla H
p10004
VCaptan Ginew
p10005
VVanilla H
p10006
tp10007
a(VNero Chaos
p10008
VVegeta Normal 2
p10009
VNero Chaos
p10010
tp10011
a(VRegina
p10012
VAbyss
p10013
VRegina
p10014
tp10015
a(VMariah
p10016
VSSJ3 Broli
p10017
VSSJ3 Broli
p10018
tp10019
a(VCrystal
p10020
VJin Kazama
p10021
VCrystal
p10022
tp10023
a(VKakashi
p10024
VNanaya
p10025
VNanaya
p10026
tp10027
a(VSon Goku
p10028
VTron Bonne
p10029
VSon Goku
p10030
tp10031
a(VShadowcat
p10032
VSandman
p10033
VSandman
p10034
tp10035
a(VKenshirou
p10036
VThanoseid
p10037
VThanoseid
p10038
tp10039
a(VNeco-arc Chaos
p10040
VSonGoku SNK SF
p10041
VNeco-arc Chaos
p10042
tp10043
a(VGotenks SSJ
p10044
VElla
p10045
VElla
p10046
tp10047
a(VEiji Kisaragi
p10048
VGinew
p10049
VEiji Kisaragi
p10050
tp10051
a(VTrunks
p10052
VWinnie the Pooh
p10053
VWinnie the Pooh
p10054
tp10055
a(VAkiha
p10056
VZero
p10057
VAkiha
p10058
tp10059
a(V20 Dr. Gero
p10060
VSakura Kinomoto
p10061
VSakura Kinomoto
p10062
tp10063
a(VJotaro Kujo
p10064
VMio
p10065
VJotaro Kujo
p10066
tp10067
a(VZeroko
p10068
VGuerrero Divino
p10069
VGuerrero Divino
p10070
tp10071
a(VDodoria
p10072
VGohan GT
p10073
VGohan GT
p10074
tp10075
a(VBattousai
p10076
VAnnie Murakami
p10077
VAnnie Murakami
p10078
tp10079
a(VMajin Vegeta
p10080
VPiccolo
p10081
VMajin Vegeta
p10082
tp10083
a(VPiccolo
p10084
VBattousai
p10085
VBattousai
p10086
tp10087
a(VMinis Mahn
p10088
VOjisama
p10089
VMinis Mahn
p10090
tp10091
a(VMillia
p10092
VCyclops
p10093
VMillia
p10094
tp10095
a(VMaster Sakura
p10096
VGreen Lantern GG
p10097
VMaster Sakura
p10098
tp10099
a(VChibi Ubuu
p10100
VHulk
p10101
VHulk
p10102
tp10103
a(VCaptain America
p10104
VBatgirl
p10105
VCaptain America
p10106
tp10107
a(VMisty
p10108
VSodom
p10109
VSodom
p10110
tp10111
a(VChill Penguin
p10112
VHugo
p10113
VHugo
p10114
tp10115
a(VBane
p10116
VCyclops
p10117
VCyclops
p10118
tp10119
a(VSasuke
p10120
VShang Tsung
p10121
VSasuke
p10122
tp10123
a(VZangia
p10124
VMr Bison
p10125
VZangia
p10126
tp10127
a(VCream
p10128
VPoison
p10129
VPoison
p10130
tp10131
a(VHonda Asuka
p10132
VRyo
p10133
VRyo
p10134
tp10135
a(VIchigo
p10136
VCell
p10137
VIchigo
p10138
tp10139
a(VGodman
p10140
VViolent Dan
p10141
VViolent Dan
p10142
tp10143
a(VCrystal
p10144
VSailor Venus
p10145
VCrystal
p10146
tp10147
a(VDrDoom
p10148
VKaede
p10149
VDrDoom
p10150
tp10151
a(VSSJ Gohan
p10152
VGohan GT
p10153
VSSJ Gohan
p10154
tp10155
a(VPopeye
p10156
VRock
p10157
VRock
p10158
tp10159
a(VJones
p10160
VAnother Kyo
p10161
VAnother Kyo
p10162
tp10163
a(VBatgirl
p10164
VWonderman
p10165
VWonderman
p10166
tp10167
a(VGreen Devil
p10168
VPolaris
p10169
VGreen Devil
p10170
tp10171
a(VKen
p10172
VThanos
p10173
VThanos
p10174
tp10175
a(VTyouun Shiryu
p10176
VDabura
p10177
VTyouun Shiryu
p10178
tp10179
a(VVergil
p10180
VDante
p10181
VVergil
p10182
tp10183
a(VVanilla Ice
p10184
VPaul Phoenix
p10185
VPaul Phoenix
p10186
tp10187
a(VMidler
p10188
VMestre Kame
p10189
VMidler
p10190
tp10191
a(VThe Thing
p10192
VSpelunker
p10193
VThe Thing
p10194
tp10195
a(VNorimaro
p10196
VRaiden
p10197
VRaiden
p10198
tp10199
a(VTyouun Shiryu
p10200
VM Bison
p10201
VM Bison
p10202
tp10203
a(VKurihan
p10204
VG Rugal
p10205
VG Rugal
p10206
tp10207
a(VRaptor
p10208
VNeji
p10209
VRaptor
p10210
tp10211
a(VGill
p10212
VKrauser
p10213
VKrauser
p10214
tp10215
a(VRobo Ky
p10216
VBalrog
p10217
VRobo Ky
p10218
tp10219
a(VFloren
p10220
VPhoenix
p10221
VPhoenix
p10222
tp10223
a(VMajin Buu
p10224
VGodzilla
p10225
VGodzilla
p10226
tp10227
a(VSaint Kyo
p10228
VSentinel
p10229
VSentinel
p10230
tp10231
a(VCammy
p10232
VGogeta SSJ3
p10233
VGogeta SSJ3
p10234
tp10235
a(VKamek
p10236
VDhalsim
p10237
VKamek
p10238
tp10239
a(V95 No Danna
p10240
VPyro
p10241
VPyro
p10242
tp10243
a(VGohan Zeta
p10244
VMishio
p10245
VMishio
p10246
tp10247
a(VBra 1
p10248
VBra 2
p10249
VBra 2
p10250
tp10251
a(VSakura Shingouji
p10252
VNormal Chibi Trunks
p10253
VNormal Chibi Trunks
p10254
tp10255
a(VD-Rugal
p10256
VVega
p10257
VD-Rugal
p10258
tp10259
a(VSuper Mario
p10260
VViuda Negra
p10261
VSuper Mario
p10262
tp10263
a(VT Kawk
p10264
VSlayer
p10265
VT Kawk
p10266
tp10267
a(VGinew 1
p10268
VGinew 2
p10269
VGinew 1
p10270
tp10271
a(VGreen Devil
p10272
VSonson
p10273
VSonson
p10274
tp10275
a(VVegeta
p10276
VAndore Jr
p10277
VAndore Jr
p10278
tp10279
a(VVoid
p10280
VKanon
p10281
VVoid
p10282
tp10283
a(VSakura Shingouji
p10284
VTrevor Spacer
p10285
VSakura Shingouji
p10286
tp10287
a(VThe Nightmare
p10288
VSuper Buu
p10289
VThe Nightmare
p10290
tp10291
a(VNero
p10292
VLord Shaolin Lee
p10293
VNero
p10294
tp10295
a(VWaha
p10296
VElektra
p10297
VElektra
p10298
tp10299
a(VBalrog
p10300
VSSJ4 Gogeta
p10301
VSSJ4 Gogeta
p10302
tp10303
a(VOnpu Segawa
p10304
VNrvnqsr Chaos
p10305
VOnpu Segawa
p10306
tp10307
a(VGreen Devil
p10308
VStrong Guy
p10309
VStrong Guy
p10310
tp10311
a(VDevo
p10312
VYamazaki 71113
p10313
VYamazaki 71113
p10314
tp10315
a(VDragon Guy
p10316
VShadow Man
p10317
VShadow Man
p10318
tp10319
a(VThanoseid
p10320
VPrime Sentinels
p10321
VPrime Sentinels
p10322
tp10323
a(VRecoom
p10324
VSentry
p10325
VSentry
p10326
tp10327
a(VGoku Nex
p10328
VGreat Saiyaman
p10329
VGoku Nex
p10330
tp10331
a(VCyclops
p10332
VTetsuo
p10333
VCyclops
p10334
tp10335
a(VGreat Saiyaman
p10336
VJason Todd
p10337
VJason Todd
p10338
tp10339
a(VArcueid
p10340
VSamurai Jack
p10341
VArcueid
p10342
tp10343
a(VVenon
p10344
VKing Godzilla
p10345
VKing Godzilla
p10346
tp10347
a(VSon Goku
p10348
VNaruto
p10349
VSon Goku
p10350
tp10351
a(VChizuru Kagura
p10352
VDarkseid
p10353
VDarkseid
p10354
tp10355
a(VFuture Trunks
p10356
VInuzuma Kiba
p10357
VFuture Trunks
p10358
tp10359
a(VShin Ryu
p10360
VAndroid 18
p10361
VShin Ryu
p10362
tp10363
a(VBojack
p10364
VKomepo
p10365
VKomepo
p10366
tp10367
a(VJudgement
p10368
VKano
p10369
VJudgement
p10370
tp10371
a(VHyoga De Cisne
p10372
VKy
p10373
VHyoga De Cisne
p10374
tp10375
a(VJuggernaut
p10376
VLord Raptor
p10377
VJuggernaut
p10378
tp10379
a(VUsapi
p10380
VElecman
p10381
VUsapi
p10382
tp10383
a(VTrunks SB1
p10384
VBiohazard
p10385
VBiohazard
p10386
tp10387
a(VMega Piccolo
p10388
V009
p10389
V009
p10390
tp10391
a(VCless Alvein
p10392
VMichaelangelo
p10393
VCless Alvein
p10394
tp10395
a(VPaul Phoenix
p10396
VSentry
p10397
VPaul Phoenix
p10398
tp10399
a(VEiko Magami
p10400
VP-Gohan SSJ2
p10401
VEiko Magami
p10402
tp10403
a(VNobunaga
p10404
VOnslaught
p10405
VNobunaga
p10406
tp10407
a(VDespero
p10408
VSissy
p10409
VSissy
p10410
tp10411
a(VSakura Kinomoto
p10412
VWar Machine
p10413
VSakura Kinomoto
p10414
tp10415
a(VPizza
p10416
VNeo Sephiroth
p10417
VNeo Sephiroth
p10418
tp10419
a(VKazuya
p10420
VIkki
p10421
VIkki
p10422
tp10423
a(VDeath Ogre
p10424
VHel Lauren
p10425
VDeath Ogre
p10426
tp10427
a(VVenom Scorpion
p10428
VArcueid
p10429
VArcueid
p10430
tp10431
a(VYayoi
p10432
VJohnny Cage
p10433
VJohnny Cage
p10434
tp10435
a(VMayko
p10436
VAthena
p10437
VAthena
p10438
tp10439
a(VAirman
p10440
VYamiyuki
p10441
VAirman
p10442
tp10443
a(VAraki Runa
p10444
VGoku Sayajin
p10445
VGoku Sayajin
p10446
tp10447
a(VJay Garrick
p10448
VAkiha
p10449
VJay Garrick
p10450
tp10451
a(VVegeta Ultra SSJ
p10452
VEriol Hiiragizawa
p10453
VEriol Hiiragizawa
p10454
tp10455
a(VGundam Heavy Arms
p10456
VShin Kazuma
p10457
VShin Kazuma
p10458
tp10459
a(VChichi
p10460
VCaptain America
p10461
VCaptain America
p10462
tp10463
a(VWind
p10464
VMorph
p10465
VMorph
p10466
tp10467
a(VNakoruru
p10468
VHuninki
p10469
VNakoruru
p10470
tp10471
a(VDio
p10472
VSaba
p10473
tp10474
a(VKohaku
p10475
VKen
p10476
VKohaku
p10477
tp10478
a(VMarco
p10479
VKim
p10480
VKim
p10481
tp10482
a(VYuki in Midday
p10483
V2Ban-tan
p10484
VYuki in Midday
p10485
tp10486
a(VIkisan
p10487
VGambit
p10488
VGambit
p10489
tp10490
a(VNyaonyao
p10491
VDragon Guy
p10492
VDragon Guy
p10493
tp10494
a(VRyuuoutan
p10495
VAmy
p10496
VRyuuoutan
p10497
tp10498
a(VNoriaki Kakyoin
p10499
VHeihachi
p10500
VNoriaki Kakyoin
p10501
tp10502
a(VKim
p10503
VGreen Arrow
p10504
VKim
p10505
tp10506
a(VNeco
p10507
VOjisama-chaos
p10508
VNeco
p10509
tp10510
a(VOrochi
p10511
VMecha Potemkin
p10512
VMecha Potemkin
p10513
tp10514
a(VWolverine
p10515
VMega Vegeta
p10516
VWolverine
p10517
tp10518
a(VR Lilith
p10519
VChaotzu
p10520
VR Lilith
p10521
tp10522
a(VSuper Skrull
p10523
VLucky 71113
p10524
VLucky 71113
p10525
tp10526
a(VMexican Typhoon
p10527
VNemesis
p10528
VMexican Typhoon
p10529
tp10530
a(VSonson
p10531
VSSJ6 Vegeta
p10532
tp10533
a(VAtusi
p10534
VZangya
p10535
VZangya
p10536
tp10537
a(VSailor Mercury
p10538
VIkki
p10539
VIkki
p10540
tp10541
a(VBomber Man
p10542
VThe Blob
p10543
VThe Blob
p10544
tp10545
a(VOmega
p10546
VRadel
p10547
VOmega
p10548
tp10549
a(VGreat S Man
p10550
VNamek Gohan
p10551
VNamek Gohan
p10552
tp10553
a(VIkisan
p10554
VRai
p10555
VRai
p10556
tp10557
a(VAndore Jr
p10558
VMariah
p10559
VAndore Jr
p10560
tp10561
a(VCream
p10562
VJoseph the BB
p10563
VJoseph the BB
p10564
tp10565
a(VEnya
p10566
VCammy
p10567
VCammy
p10568
tp10569
a(VAbyss
p10570
VKrillin
p10571
VAbyss
p10572
tp10573
a(VVegetto EX
p10574
VNanaya Shiki
p10575
VNanaya Shiki
p10576
tp10577
a(VDeadpool
p10578
VMech Zangief
p10579
VMech Zangief
p10580
tp10581
a(VSuperman
p10582
VAngel Ryu
p10583
VAngel Ryu
p10584
tp10585
a(VSon Gohan
p10586
VBlockhead
p10587
VSon Gohan
p10588
tp10589
a(VGreat Sayaman
p10590
VSpelunker Sensei
p10591
VGreat Sayaman
p10592
tp10593
a(VOgre
p10594
VSimonkin2005
p10595
VOgre
p10596
tp10597
a(VMinis Mahn
p10598
VSaibaman
p10599
VMinis Mahn
p10600
tp10601
a(VBaby Commando
p10602
VRyuuoutan
p10603
VRyuuoutan
p10604
tp10605
a(VJin Kazama
p10606
VGoku GT
p10607
VGoku GT
p10608
tp10609
a(VTen
p10610
VVenom
p10611
VVenom
p10612
tp10613
a(VMongul
p10614
VLupin the 3rd
p10615
VMongul
p10616
tp10617
a(VBlack Widow
p10618
VBender
p10619
VBlack Widow
p10620
tp10621
a(VVenom Scorpion
p10622
VWildcat
p10623
VVenom Scorpion
p10624
tp10625
a(VGinew
p10626
VAlien Queen
p10627
VAlien Queen
p10628
tp10629
a(VAxl
p10630
VDark Chun Li
p10631
VDark Chun Li
p10632
tp10633
a(VMexican Typhoon
p10634
VBlack Adam
p10635
VMexican Typhoon
p10636
tp10637
a(VKaren Na Hito
p10638
VInsane Hiryu
p10639
VInsane Hiryu
p10640
tp10641
a(VMishio
p10642
VOgre
p10643
VOgre
p10644
tp10645
a(VNachi
p10646
VYusuke
p10647
VNachi
p10648
tp10649
a(VPopeye
p10650
VDespero
p10651
VDespero
p10652
tp10653
a(VMarco
p10654
VChibiko
p10655
VChibiko
p10656
tp10657
a(VKoopa Troppa
p10658
VVegetto EX
p10659
VKoopa Troppa
p10660
tp10661
a(VJay Garrick
p10662
VDocOck
p10663
VJay Garrick
p10664
tp10665
a(VSaba
p10666
VDark Psylocke
p10667
VDark Psylocke
p10668
tp10669
a(VKara Na Hito
p10670
VVegeta
p10671
VVegeta
p10672
tp10673
a(VHisui&Kohaku;
p10674
VLee
p10675
VLee
p10676
tp10677
a(VOrochi
p10678
VCell
p10679
VOrochi
p10680
tp10681
a(VOmega Red
p10682
VRorschach
p10683
VOmega Red
p10684
tp10685
a(VChichi
p10686
VShocker
p10687
VShocker
p10688
tp10689
a(VMai K
p10690
VSaori - Athena
p10691
VMai K
p10692
tp10693
a(VHoly Ken
p10694
VGambit
p10695
VHoly Ken
p10696
tp10697
a(VSuper Goku
p10698
VVegeta SSJ4
p10699
VSuper Goku
p10700
tp10701
a(VArchangel
p10702
VSpider Girl
p10703
VArchangel
p10704
tp10705
a(VCammy
p10706
VSylphie
p10707
VCammy
p10708
tp10709
a(VWalkyrie
p10710
VChichi
p10711
VWalkyrie
p10712
tp10713
a(VDoparmin
p10714
VMorrigan
p10715
VMorrigan
p10716
tp10717
a(VVenom
p10718
VSon Goku
p10719
VSon Goku
p10720
tp10721
a(VGuerrero Divino
p10722
VWakamoto
p10723
VWakamoto
p10724
tp10725
a(VLord Ravenous
p10726
VBlockhead
p10727
VBlockhead
p10728
tp10729
a(VVegetto
p10730
VYellow-pipo
p10731
tp10732
a(VKujo Jotaro
p10733
VVegeta
p10734
VVegeta
p10735
tp10736
a(VCarnage
p10737
VMr. Bison
p10738
VMr. Bison
p10739
tp10740
a(VNeo-arc Chaos
p10741
VGodman
p10742
VGodman
p10743
tp10744
a(VPhoenix
p10745
VKohaku
p10746
VKohaku
p10747
tp10748
a(VOozaru
p10749
VGeese
p10750
VOozaru
p10751
tp10752
a(VM-Vegeta SSJ3
p10753
VKnuckles
p10754
VM-Vegeta SSJ3
p10755
tp10756
a(VWild Ken Ex
p10757
VAbyss
p10758
VAbyss
p10759
tp10760
a(VZeroko
p10761
VWhite Len
p10762
VWhite Len
p10763
tp10764
a(VSaint Kyo
p10765
VHulk
p10766
VSaint Kyo
p10767
tp10768
a(VSailor Venus
p10769
VSpawn
p10770
VSpawn
p10771
tp10772
a(VShadow Dio
p10773
VEvil Ken
p10774
VEvil Ken
p10775
tp10776
a(VSakura Kinomoto
p10777
VMultiple Man
p10778
VSakura Kinomoto
p10779
tp10780
a(VZeroko
p10781
VThe Thing
p10782
VThe Thing
p10783
tp10784
a(VRobocop
p10785
VSquall
p10786
VRobocop
p10787
tp10788
a(VAgony
p10789
VPiccolo
p10790
VPiccolo
p10791
tp10792
a(VPiccolo Daimaoh
p10793
VCaptain Marvel
p10794
VCaptain Marvel
p10795
tp10796
a(VBanshee
p10797
VSaori - Athena
p10798
VSaori - Athena
p10799
tp10800
a(VRock
p10801
VIron Man
p10802
VRock
p10803
tp10804
a(VSuperboy
p10805
VGouken
p10806
VGouken
p10807
tp10808
a(VZangief Maskered
p10809
VElecman
p10810
VZangief Maskered
p10811
tp10812
a(VElastigirl
p10813
VNamor
p10814
VNamor
p10815
tp10816
a(VSatsuki
p10817
VRyo
p10818
VRyo
p10819
tp10820
a(VKujo Jotaro
p10821
VSub-zero
p10822
VSub-zero
p10823
tp10824
a(VVenom Scorpion
p10825
VLex Luthor
p10826
VLex Luthor
p10827
tp10828
a(VD-Rugal
p10829
VYusuke
p10830
VYusuke
p10831
tp10832
a(VAracne De Tarantula
p10833
VSakura Kinomoto
p10834
VSakura Kinomoto
p10835
tp10836
a(VSon Goku
p10837
VCaptain Marvel
p10838
VSon Goku
p10839
tp10840
a(VSynn
p10841
VCapella
p10842
VSynn
p10843
tp10844
a(VShadowman CFAS
p10845
VSakura Kinomoto
p10846
VSakura Kinomoto
p10847
tp10848
a(VKanon
p10849
VG Rugal
p10850
VG Rugal
p10851
tp10852
a(VArthur
p10853
VAracne De Tarantula
p10854
VAracne De Tarantula
p10855
tp10856
a(VPoison
p10857
VNightwolf
p10858
VNightwolf
p10859
tp10860
a(VMarco
p10861
VHydra
p10862
tp10863
a(VMiss Marvel
p10864
VDio Di Musca
p10865
VMiss Marvel
p10866
tp10867
a(VChun Lee Dark Bolt
p10868
VThe Flash
p10869
VThe Flash
p10870
tp10871
a(VRajaamaki
p10872
VBeast
p10873
VRajaamaki
p10874
tp10875
a(VRock
p10876
VBurter
p10877
VRock
p10878
tp10879
a(V*Saito
p10880
V*Predator
p10881
V*Saito
p10882
tp10883
a(V*Maraiah
p10884
V*Mr. Fantastic
p10885
V*Maraiah
p10886
tp10887
a(V*Pegasus Di Fuoco
p10888
V*Hal Jordan
p10889
V*Hal Jordan
p10890
tp10891
a(V*Jay Garrick
p10892
V*Nanaya
p10893
V*Jay Garrick
p10894
tp10895
a(V*Miss Marvel
p10896
V*Punisher
p10897
V*Miss Marvel
p10898
tp10899
a(V*Bullseye
p10900
V*Vanilla Ice
p10901
V*Bullseye
p10902
tp10903
a(V*Warmachine
p10904
V*Orione
p10905
V*Warmachine
p10906
tp10907
a(V*Airman
p10908
V*Cyborg Superman
p10909
V*Cyborg Superman
p10910
tp10911
a(V*Sagat MB-02
p10912
V*Spiral
p10913
V*Sagat MB-02
p10914
tp10915
a(V*Felicia
p10916
V*Superman
p10917
V*Felicia
p10918
tp10919
a(V*Chameleon
p10920
V*Geese
p10921
V*Chameleon
p10922
tp10923
a(V*Super Vegeta
p10924
V*Heihachi
p10925
V*Heihachi
p10926
tp10927
a(V*Kagami Kyosuke
p10928
V*Marco
p10929
V*Kagami Kyosuke
p10930
tp10931
a(V*Yuki
p10932
V*Prime Sentinels
p10933
V*Prime Sentinels
p10934
tp10935
a(V*Son Goku
p10936
V*Bane
p10937
V*Son Goku
p10938
tp10939
a(V*Krauser
p10940
V*Human Torch
p10941
V*Krauser
p10942
tp10943
a(V*Piccolo Daimaoh
p10944
V*Rajaamaki
p10945
V*Rajaamaki
p10946
tp10947
a(V*Beast
p10948
V*Jay Garrick
p10949
V*Jay Garrick
p10950
tp10951
a(V*The Joker
p10952
V*Donovan
p10953
V*Donovan
p10954
tp10955
a(V*Zangief Maskered
p10956
V*Emma Frost
p10957
V*Zangief Maskered
p10958
tp10959
a(V*Android 16
p10960
V*Hydra
p10961
V*Android 16
p10962
tp10963
a(V*Moleman
p10964
V*Punisher
p10965
V*Moleman
p10966
tp10967
a(V*Kim
p10968
V*Cammy
p10969
V*Kim
p10970
tp10971
a.