(dp0
VT. kawk
p1
S''
p2
sVGod Ken
p3
g2
sVCyborg + Chaos
p4
g2
sVThanoseid
p5
g2
sVBattle mahoro
p6
g2
sVGoku ssj4 db final bout
p7
g2
sVKingpin
p8
g2
sVPrime sentinels
p9
g2
sVScarecrow
p10
g2
sV*Chameleon
p11
g2
sVG-Rugal
p12
g2
sVGoten
p13
g2
sVBlack polnareff
p14
g2
sVRonald
p15
g2
sVDocinho
p16
g2
sVVegeta Ultra SSJ
p17
g2
sVPopeye
p18
g2
sVW len ar
p19
g2
sVNormal sword trunks
p20
g2
sVHenri
p21
g2
sVBanshee
p22
g2
sVObsidian
p23
g2
sVJin Kazama
p24
g2
sVBroly
p25
g2
sVSatsuki yumiduka
p26
g2
sVDark ryu
p27
S'got bodied by faster dude\n'
p28
sV*Marco
p29
g2
sVJamian Di Corvus
p30
g2
sVDosu
p31
g2
sVSatoko
p32
g2
sVNightmare
p33
g2
sVBloodrayne
p34
g2
sV*Orione
p35
g2
sVBender
p36
g2
sVGideon
p37
g2
sVSegalow
p38
g2
sVWonder Woman
p39
g2
sVInspector gadget
p40
g2
sVFireman
p41
g2
sVKohaku
p42
g2
sVZettaiaku
p43
g2
sV*Prime Sentinels
p44
g2
sVIchigo
p45
g2
sVShiki tohno
p46
g2
sVMech gouki
p47
g2
sVFuture Trunks
p48
g2
sVHaggar
p49
g2
sVHulk 2099
p50
g2
sVHato sabure
p51
g2
sVSongoku-snk/sf
p52
g2
sVYuki
p53
g2
sVCaptain caveman
p54
g2
sVShen
p55
g2
sVGotenks SSJ
p56
g2
sVCaptain ginyu
p57
g2
sVRadel
p58
g2
sVBaby bonnie hood
p59
g2
sVArchangel
p60
g2
sVGohan  grande normale
p61
g2
sVSatsuki Yumiduka
p62
g2
sVMega piccolo
p63
g2
sVSSJ4Gohan
p64
g2
sVAlessi
p65
g2
sVBeavis
p66
g2
sVMiyako yoshika
p67
g2
sVEmma frost
p68
g2
sVHyper buu
p69
g2
sVNero Chaos
p70
g2
sVMichaelangelo
p71
g2
sVSSJ4 Goten
p72
g2
sVRaptor
p73
g2
sVHarley quinn
p74
g2
sVKazama Kazuki
p75
g2
sVJiroubou
p76
g2
sV98
p77
g2
sV*Bane
p78
g2
sV95
p79
g2
sVKrizalid
p80
g2
sVLord Ravenous
p81
g2
sVThe Blob
p82
g2
sVLupin the 3rd
p83
g2
sVWonderman
p84
g2
sVOmega red
p85
S'mostly melee, no rushdowns\n'
p86
sVEvil soul
p87
g2
sVGoku sb1
p88
g2
sV*Hal Jordan
p89
g2
sVSSJ3 Broli
p90
g2
sVTurles
p91
g2
sVZero hotaru
p92
g2
sVKaguya kimimaro
p93
g2
sVHaruhi suzumiya
p94
g2
sVBlack Widow
p95
g2
sVPhoenix
p96
g2
sVShiori misaka
p97
g2
sVIronman
p98
g2
sVRock volnutt
p99
g2
sVMariah
p100
g2
sVSub-zero
p101
g2
sVLord raptor
p102
g2
sVOjisama-chaos
p103
g2
sVLast adult goku
p104
g2
sVSsjgoku
p105
g2
sVBatman Beyond
p106
g2
sVBalrog
p107
g2
sVRouge
p108
g2
sVSad claps
p109
g2
sVVegetto EX
p110
g2
sVCatwalk
p111
g2
sVIron Man
p112
g2
sV*The Joker
p113
g2
sVMamizou
p114
g2
sVElektra
p115
g2
sVDabura
p116
g2
sVSakura kinomoto
p117
g2
sVK'
p118
g2
sVKakashi
p119
g2
sV'gou no ken' kenshirou
p120
g2
sVComplete cell
p121
g2
sVRedLantern\u005cRedLantern.def
p122
g2
sVKiller whale
p123
g2
sVOgre akuma
p124
g2
sVDora
p125
g2
sVEmerald
p126
g2
sVSyaoran
p127
g2
sVToron
p128
g2
sVTimmy turner
p129
g2
sVBB Hood
p130
g2
sVSeth
p131
g2
sVGogeta SSJ2
p132
g2
sVGogeta SSJ3
p133
g2
sVIceman
p134
g2
sVGogeta SSJ4
p135
g2
sVNightmare yamazaki
p136
g2
sVGohan zeta
p137
S'wins through mexibeams.  decently high health.\n'
p138
sVDizzy
p139
g2
sVJoseph the b.b.
p140
g2
sVEliza
p141
g2
sVRhino
p142
g2
sVIronpatriot
p143
g2
sVOmega Red
p144
g2
sVAndromeda
p145
g2
sVNeo Sephiroth
p146
g2
sVChun-lee dark bolt
p147
g2
sVAracne De Tarantula
p148
g2
sVKabal
p149
g2
sV98se
p150
g2
sV*Son Goku
p151
g2
sVRimle
p152
g2
sVMature
p153
g2
sVEvil homer
p154
g2
sVMickey
p155
S'HOW DID HE WIN THIS SHIT\n'
p156
sVVegeth@
p157
g2
sVNail
p158
g2
sVKing godzilla
p159
g2
sV*Krauser
p160
g2
sVMai Shiranui
p161
g2
sVBridget
p162
g2
sVTifa lockhart
p163
g2
sVCammy
p164
g2
sVJin saotome
p165
g2
sVKenshin
p166
g2
sVCell
p167
g2
sVRalf
p168
g2
sVLord shaolin lee
p169
g2
sVDr Doom
p170
g2
sVSonic
p171
g2
sVYumeji kurokouchi
p172
g2
sVPegAAAAAAsus x2
p173
g2
sVZangyura
p174
g2
sVYoshikage killa
p175
g2
sVAthena asamiya
p176
g2
sV*Beast
p177
g2
sVThe flash
p178
g2
sVSuper Vegeta
p179
g2
sVSpiderman
p180
g2
sVAnother Kyo
p181
g2
sVEiko Magami
p182
g2
sVUltimat goku
p183
g2
sVTest1
p184
g2
sVTest3
p185
g2
sVTest2
p186
g2
sVTest4
p187
g2
sVChloe
p188
g2
sVGoku pce
p189
g2
sVYoumu konpaku
p190
g2
sVpizza\u005cpizza.def
p191
g2
sVSonson
p192
g2
sVViolent Dan
p193
g2
sVOverlord
p194
g2
sVKogasa
p195
S'2ho w/o gr8 ai or massive damage\n'
p196
sVShocker
p197
g2
sVPengintou
p198
g2
sVG-bit
p199
g2
sVEiji Kisaragi
p200
g2
sVPsylocke
p201
g2
sVGotenks ssj3
p202
g2
sVWing Zero
p203
g2
sVBane
p204
g2
sVBlackheart
p205
g2
sVWhite ranger
p206
g2
sVOmega tiger woods
p207
g2
sVPatchouli
p208
g2
sVAsh
p209
g2
sVOmega
p210
g2
sVJones
p211
g2
sVCell jr
p212
g2
sVHyper neo-kamek
p213
g2
sVHoly ken
p214
g2
sVRadish ssj4
p215
g2
sVKaori&shiori;
p216
g2
sVParasite
p217
g2
sVGengetu
p218
g2
sVCaptain america
p219
g2
sVWalkyrie
p220
g2
sVShin Kazuma
p221
g2
sVGuldo
p222
g2
sVMegatron
p223
g2
sVSailor jupiter
p224
S'fast and with ranged. stunlocks with speed and tp. denied a vegeta from getting his mexibeam off several times.\n'
p225
sVGarfield
p226
g2
sVEriol Hiiragizawa
p227
g2
sVStrider Hiryu
p228
g2
sVMultiple man
p229
g2
sVJason Todd
p230
g2
sVFlash
p231
g2
sVReptos
p232
g2
sVClark steel
p233
g2
sVLex luthor
p234
g2
sVServbot
p235
g2
sVAnna
p236
g2
sVYamazaki 71113
p237
g2
sVBlaziken
p238
g2
sVNobunaga
p239
g2
sVBlaze Agent
p240
g2
sVFlonne
p241
g2
sVBlue Destiny 2
p242
g2
sVSuper vegeta
p243
g2
sVErza
p244
g2
sVMegaman.EXE
p245
g2
sVKszsk-shuko
p246
g2
sVX
p247
g2
sVViolent dan
p248
g2
sVWild ken ex
p249
g2
sVSangoku
p250
g2
sVPrincess peach
p251
g2
sVMarisa kirisame
p252
g2
sVRyoko asakura
p253
g2
sVPsychopath kyo
p254
g2
sVChun Lee Dark Bolt
p255
g2
sVJoe higashi
p256
g2
sV*Saito
p257
g2
sVHikaru
p258
g2
sVGuerrero Divino
p259
g2
sVRyu hayabusa
p260
g2
sVKim kaphwan
p261
g2
sVDodgers
p262
g2
sVThe joker
p263
g2
sVYatogi tetsu
p264
g2
sVMilan flare
p265
g2
sVHayato
p266
g2
sVGoku kid_ssj
p267
g2
sVSuika
p268
g2
sVAmi BF
p269
g2
sVZinc
p270
g2
sVLord ravenous
p271
g2
sVHigh Dio
p272
g2
sVA.B.A.
p273
g2
sVCapella
p274
g2
sVGoku GT
p275
g2
sVTao Jun
p276
g2
sVKaren Na Hito
p277
g2
sVElastigirl
p278
g2
sVDemitri
p279
g2
sVZidane
p280
g2
sVgill\u005cgill.def
p281
g2
sVHijiri byakuren
p282
g2
sVSakuya_swr
p283
g2
sVSuigintou
p284
g2
sVRuby Heart
p285
g2
sVDespero
p286
g2
sVVergil
p287
g2
sVDoraemon
p288
g2
sVTrunks SB1
p289
g2
sVDoom Vega
p290
g2
sVShaoran lee
p291
g2
sVPiccolo sb1
p292
g2
sVMystique
p293
g2
sVSandman
p294
g2
sVNanaya
p295
g2
sVMega lilde
p296
g2
sVGray fly
p297
S'loadsa damage\n'
p298
sVYakui San
p299
g2
sVKurokishi
p300
g2
sVMarrow
p301
S'fast-ish, can combo well with knockback. nothing amazing.  deals good damage.\n'
p302
sVMephisto
p303
g2
sVVice
p304
g2
sVAnother iori
p305
g2
sVGogeta ssj
p306
g2
sVDonovan
p307
g2
sVYang
p308
g2
sVMisery
p309
g2
sVNeo-arc Chaos
p310
g2
sVAku-amakusa
p311
g2
sVYukari yakumo
p312
g2
sVAnother kyo
p313
g2
sV*Android 16
p314
g2
sVMyuu
p315
g2
sVMongul
p316
g2
sVRyuho
p317
g2
sVSpiral
p318
g2
sVYurika kirishima
p319
g2
sVMajin boo
p320
g2
sVThe atom
p321
g2
sVMech Zangief
p322
g2
sVSaba
p323
g2
sVAthena
p324
g2
sVKaren na hito
p325
g2
sVGohan SSJ4
p326
g2
sVGohan SSJ3
p327
g2
sVGohan SSJ2
p328
g2
sVVicViper
p329
g2
sVDunbai san
p330
g2
sVDeathOgre + GhettoWar
p331
g2
sVElecman
p332
g2
sVSnoopy
p333
g2
sVDee jay
p334
g2
sVGoku
p335
g2
sVP Chunli
p336
g2
sVMexican Typhoon
p337
g2
sV(sman)
p338
g2
sVRaoh
p339
g2
sV*Miss Marvel
p340
g2
sVFaust
p341
g2
sVTyouun Shiryu
p342
g2
sVSailor neptune
p343
g2
sVSon trunks
p344
g2
sVNanaya Shiki
p345
g2
sVTao jun
p346
g2
sV*Spiral
p347
g2
sVThe blob
p348
g2
sVGundam Heavy Arms
p349
g2
sVSonic machine
p350
g2
sVRenamon
p351
g2
sVNemesis
p352
g2
sVGoku Vegeta
p353
g2
sVKazuya Mishima
p354
g2
sVKaio shin
p355
g2
sVKazuya
p356
g2
sVGoku SSJ GT
p357
g2
sVMultiple Man
p358
g2
sVMr buu
p359
g2
sVShin gouki
p360
g2
sVZeroko
p361
g2
sVTenten
p362
g2
sVNeco-arc
p363
g2
sVGhetto Warmachine
p364
g2
sVShe-hulk
p365
g2
sVSpider-carnage
p366
g2
sVAlice
p367
g2
sVNate Summers
p368
g2
sVOmegamon
p369
g2
sVAquaman
p370
g2
sVAku Amakusa
p371
g2
sVCpu nobunaga
p372
g2
sVDio Di Musca
p373
g2
sVLucca
p374
g2
sVWind
p375
g2
sVOgre Akuma
p376
g2
sVScarlet witch
p377
g2
sVR. lilith
p378
g2
sVLi sheng long
p379
g2
sVSentinel
p380
g2
sVGuerrero divino del dragn
p381
g2
sVAbyss
p382
g2
sVYumeji Kurokouchi
p383
g2
sVGouken
p384
g2
sVGoku DB
p385
g2
sVAsahina mikuru
p386
g2
sVBilly_xiii
p387
g2
sVTapion
p388
g2
sVLee
p389
g2
sVDio brando
p390
g2
sVRumia
p391
g2
sVVegeth ssj2
p392
g2
sVDaffy duck
p393
g2
sVGogeta ssj2
p394
g2
sVWindows ME
p395
g2
sVGogeta ssj4
p396
S'mexibeams, spiritmexibombs\n'
p397
sVChris
p398
g2
sVMoleman\u005cMoleman.def
p399
g2
sVMarle
p400
g2
sVNagato Yuki
p401
g2
sV*Superman
p402
g2
sVGurocure
p403
g2
sVVic Viper
p404
g2
sVOrochi Iori
p405
g2
sVSkeletor
p406
g2
sVHisame shizumaru
p407
g2
sVJissou seki
p408
g2
sVThink
p409
g2
sVKyouko
p410
g2
sVRorscach
p411
g2
sVBig chicken
p412
g2
sVMimic
p413
g2
sVRanma saotome
p414
g2
sVCaptain America
p415
g2
sVSetsuna
p416
g2
sVParsee
p417
g2
sVMako
p418
g2
sVRan yakumo
p419
g2
sVPoison
p420
g2
sVInsane hiryu
p421
g2
sVKanmi Chan
p422
g2
sVLelouch
p423
g2
sVToki
p424
g2
sVBlack.t
p425
g2
sVChameleon
p426
g2
sVReisen_swr
p427
g2
sVDhalsim
p428
g2
sVElena
p429
g2
sVGreen Lantern GG
p430
g2
sVNormal trunks
p431
g2
sVSion_tatari
p432
g2
sVTara-Gyouza
p433
g2
sVNamek gohan
p434
S"NEVER GO ALL IN ON THIS PIECE OF SHIT HE DOESN'T HAVE ANY ATTACKS AND HE LOST ME 70K ALL IN I HATE THIS BITCH\n"
p435
sVTrevor spacer
p436
g2
sVSyo hayate
p437
g2
sVTyouunn-shiryu
p438
g2
sVThe Thing
p439
g2
sVVegeta normal 2
p440
g2
sVVegeta normal 3
p441
g2
sVYakui san
p442
g2
sVGreen Devil
p443
g2
sVSuper Mario
p444
g2
sVRobocop
p445
g2
sVJay garrick
p446
g2
sVFranko
p447
g2
sVHe-man
p448
g2
sVKanorin
p449
S'op 2ho\n'
p450
sVGogeta SSJ
p451
g2
sVCream
p452
g2
sVHavok
p453
g2
sVNeco chaos
p454
g2
sVDevil_daigo
p455
g2
sVSoulgen
p456
g2
sVMaster chief
p457
g2
sVAdon
p458
g2
sVRajaayuri
p459
g2
sVSuper Skrull
p460
g2
sVEiko magami
p461
g2
sVYoko Yuki
p462
g2
sVJohnny Cage
p463
g2
sVBrian griffin
p464
g2
sVKanna
p465
g2
sVSSJ3 Goku
p466
g2
sVChaos hiryu
p467
g2
sVDee Jay
p468
g2
sVMusashi Akatsuki
p469
g2
sVRouga_zanma
p470
g2
sVEvil Ken
p471
g2
sVTayuya
p472
g2
sVJess
p473
g2
sVLunasa prismriver
p474
g2
sVPolnareff
p475
g2
sVChiaotzu
p476
g2
sVMorgiana
p477
g2
sVGiygas
p478
g2
sVMaster ryu
p479
g2
sVDr.gero
p480
g2
sVSamurai jack
p481
g2
sVDan
p482
g2
sVKouryu
p483
g2
sVMegazord
p484
g2
sVBison
p485
g2
sVChomper
p486
g2
sVWaha
p487
g2
sVPotemkin
p488
g2
sVTung Fu Rue
p489
g2
sVNenaikodareda
p490
g2
sVMinikata Moriya
p491
g2
sVShishio
p492
g2
sVKairi
p493
g2
sVShin kazuma
p494
g2
sVAmi bf
p495
g2
sVBojack
p496
g2
sVPyron
p497
g2
sVZemial
p498
g2
sVYuuka kazami
p499
g2
sVGokussj4d
p500
g2
sVFreeza 100%
p501
g2
sVDr.doom
p502
g2
sVA.b.a
p503
g2
sVHirasawa_yui
p504
S'fairly moderate.  bad matchups made her winless. small damage and small range, but not extraordinarily bad.\n'
p505
sVTrunks SSJ4
p506
g2
sVSilver surfer
p507
g2
sVGinew
p508
g2
sVEtrigan
p509
g2
sVLex Luthor
p510
g2
sVFei-long
p511
g2
sVAlice margatroid
p512
g2
sVCaptain marvell
p513
g2
sVFirebrand
p514
S'crappy\n'
p515
sVLi'l gohan
p516
g2
sVSasuke
p517
g2
sVHol horse
p518
g2
sVSon Goku
p519
g2
sVTron bonne
p520
S'remember: multi tron bonnes, and some are quite good.\n'
p521
sVOrochimaru
p522
g2
sS'Tin 5 fernandeath'
p523
S"Tin's fernandeath\n"
p524
sV*Geese
p525
g2
sVMakoto
p526
g2
sVYellow Devil
p527
g2
sVChun-li
p528
g2
sVEvil ken
p529
g2
sVOozura bebi
p530
g2
sVJustice
p531
g2
sVStrider Hien
p532
g2
sVPowergirl
p533
g2
sVHulk
p534
g2
sVHideo&kyoko;
p535
g2
sVWarmachine
p536
g2
sVG Rugal
p537
g2
sVMr.karate
p538
g2
sVMr. bison
p539
g2
sVTiger
p540
g2
sVShadow Man
p541
g2
sVJill
p542
g2
sVChris sakurigan
p543
g2
sVWar Machine
p544
g2
sVNitori
p545
g2
sVShizuha aki
p546
g2
sVIwao
p547
g2
sVNega Joe
p548
g2
sV*Pegasus Di Fuoco
p549
g2
sVPitt
p550
g2
sVKrauser
p551
g2
sVCheap Boss Type
p552
g2
sVApocalypse
p553
g2
sVBart
p554
g2
sVLei-lei
p555
g2
sVSaibaman
p556
g2
sVAraki Runa
p557
g2
sVLilin
p558
g2
sV*Heihachi
p559
g2
sVRyu plus
p560
g2
sVKanon
p561
g2
sVKuma
p562
g2
sVCell Frieza
p563
g2
sVMiyazato erika
p564
g2
sVEri_hasumi
p565
g2
sVLayla
p566
g2
sVIchi
p567
g2
sVKonngara
p568
g2
sVKuando
p569
g2
sVPizza
p570
g2
sVBulleta
p571
g2
sVFrieza
p572
g2
sVPikachu
p573
g2
sVMunch
p574
g2
sVFlandre scarlet
p575
g2
sVGold Warmachine
p576
g2
sVGreat saiyaman
p577
g2
sVMb-02
p578
g2
sVKanmi chan
p579
g2
sVNagae iku
p580
g2
sS'Captan ginew'
p581
S'absolute shit. well, actually kind of decent. not great.\n'
p582
sVGobotenn
p583
g2
sVEagle
p584
g2
sVChibi goku
p585
g2
sVCyborg Superman
p586
g2
sVMajin vegeta
p587
g2
sVNightwing
p588
g2
sVDodoria
p589
g2
sVThierry Henry
p590
g2
sVShadow vegeta
p591
g2
sVGalactus
p592
g2
sVBarney
p593
g2
sVReimi jyahana
p594
g2
sVGohan fight money
p595
g2
sVYuri Di AAAAAA
p596
g2
sVMedoi-san
p597
g2
sVShaq
p598
g2
sVJuggernaut
p599
g2
sVKen & gang
p600
g2
sVWolvenom
p601
g2
sVThe Flash
p602
g2
sVJean grey
p603
g2
sVJuri
p604
g2
sVChibiko
p605
g2
sVMr Bison
p606
g2
sVCable
p607
g2
sVKraken
p608
g2
sVZabuza
p609
g2
sVGreat S man
p610
g2
sVSimonkin2006
p611
g2
sVSimonkin2005
p612
g2
sVScream
p613
g2
sVMirai trunks
p614
g2
sVMinakata moriya
p615
g2
sVVarnage
p616
g2
sVJackal
p617
g2
sVMasta gambit
p618
g2
sVTizoc
p619
g2
sVKamek
p620
g2
sVDeath Maul
p621
g2
sVSadclaps x2
p622
g2
sVMotoko-Aoyama
p623
g2
sVShiki VP
p624
g2
sVMaximum frieza
p625
g2
sVArrange_remilia
p626
g2
sVSponge bob
p627
g2
sVChizuru Kagura
p628
g2
sVReimu
p629
g2
sVMinoriko aki
p630
g2
sVShuma Gorath
p631
g2
sVGajeel
p632
g2
sVWinnie the pooh
p633
g2
sVMech zangief
p634
g2
sVLion(coh)
p635
g2
sV*Hydra
p636
g2
sVMai_K
p637
g2
sVKyle dunamis
p638
g2
sVNeo-sephiroth
p639
g2
sVJuda
p640
g2
sVFat boo
p641
g2
sVLuigi
p642
g2
sVChill Penguin
p643
g2
sVMai_k
p644
g2
sVSasuke Kun
p645
g2
sVMr. Bison
p646
g2
sVMinis Mahn
p647
g2
sVKurama
p648
g2
sV*Moleman
p649
g2
sVGiano
p650
g2
sVLynn Baker
p651
g2
sVMegaman.exe
p652
g2
sVSuper Buu
p653
g2
sVMoleman
p654
g2
sVTiger + Ghetto
p655
g2
sVEiji kisaragi
p656
g2
sVPicapiedra
p657
g2
sVNeco
p658
g2
sVKenshiro
p659
g2
sVProtoman
p660
g2
sVOnpu segawa
p661
g2
sVDevo
p662
g2
sVBrainiac
p663
g2
sVSpawn
p664
g2
sVNega joe
p665
g2
sVNinja megazord
p666
g2
sVArmored gohan
p667
g2
sVSodom
p668
g2
sVTessa
p669
g2
sV98SE
p670
g2
sVBatman beyond
p671
g2
sVWriggle
p672
g2
sVRin natsume
p673
g2
sVRock Volnutt
p674
g2
sVMajin vegeta ssj6
p675
g2
sVMissmarvel
p676
g2
sVMorph
p677
g2
sVSyo Hayate
p678
g2
sVK' xiii
p679
g2
sVGreen lantern gg
p680
g2
sVJamian di corvus
p681
g2
sVBebi vegeta
p682
g2
sVChibi ubuu
p683
g2
sVToramaru syou
p684
g2
sVHotaru
p685
g2
sVGoku SB1
p686
g2
sVShiki Tohno
p687
g2
sVSasuke kun
p688
g2
sVMr.satan
p689
g2
sVIsaiah bradley
p690
g2
sVSpider Girl
p691
g2
sVVegetto
p692
g2
sVSoujiro
p693
g2
sVRare Akuma
p694
g2
sVAoi-ko
p695
g2
sVThe Nightmare
p696
g2
sVMr satan
p697
g2
sVTsugumi
p698
g2
sVTara-gyouza
p699
g2
sVSSJ Goku
p700
g2
sVOnpu Segawa
p701
g2
sVRobo-Kyii
p702
g2
sVSean matsuda
p703
g2
sVP-Gohan SSJ2
p704
g2
sVSSJ5 Goku
p705
g2
sVHaohmaru
p706
S'gets juggled and is slow\n'
p707
sVIggy
p708
g2
sVSuper buu
p709
g2
sVMoraga
p710
S'can juggle slow and inactive characters, but is not that good.  WILL get bodied by fast characters.  has HUGE odds on her.  bet AGAINST her if the enemy is slightly good.\n'
p711
sVCv wakamoto
p712
g2
sVGato
p713
g2
sVSakura
p714
g2
sVSad Claps
p715
g2
sVRoll
p716
g2
sVRyuuoutan
p717
g2
sVJeice
p718
g2
sVOssan
p719
g2
sVHoly Ken
p720
g2
sVFloren
p721
g2
sVMima
p722
g2
sVSuper #13
p723
g2
sVCarnage
p724
g2
sVRaditz
p725
g2
sVKoopa troopa
p726
g2
sVBlack adam
p727
g2
sVDark Psylocke
p728
g2
sVHyoga de cisne
p729
g2
sVNamor
p730
g2
sVCatwoman
p731
g2
sVKeine
p732
g2
sVVivi_ornitier
p733
g2
sVJyakku no keshin dio
p734
g2
sVLord Raptor
p735
g2
sVZero svc
p736
g2
sVMekazawa
p737
g2
sVCell genesis
p738
g2
sVSatori
p739
g2
sVBilly lee
p740
g2
sVBrian Griffin
p741
g2
sVYamcha
p742
g2
sVDeath13
p743
g2
sVRamon 71113
p744
g2
sVMech Gouki
p745
g2
sVClayface
p746
g2
sVQueen beryl
p747
g2
sVHuninki
p748
g2
sVV.akiha
p749
g2
sVAlucard
p750
g2
sVItachi
p751
g2
sVSnake eyes
p752
g2
sVNostalgic ballz
p753
g2
sVIron Lantern
p754
g2
sVYuri di aaaaaaa
p755
g2
sVShikieiki yamaxanadu
p756
g2
sVEriol hiiragizawa
p757
g2
sVNeco-arc Chaos
p758
g2
sVDark Ryu
p759
g2
sVKano
p760
g2
sVUkitake
p761
g2
sVKang
p762
g2
sVNyaonyao
p763
g2
sVAlex mercer
p764
g2
sVBulma
p765
g2
sVIbuki
p766
g2
sVYun
p767
g2
sVSSJGoku
p768
g2
sVSuper goku
p769
g2
sV20 (dr. gero)
p770
g2
sVSuper skrull
p771
g2
sVYamcha by tomur
p772
g2
sVGoku sayajin
p773
g2
sVRed tornado
p774
g2
sV*Felicia
p775
g2
sVZangief
p776
S'test\n'
p777
sVRen_idagawa
p778
g2
sVSuper metroid
p779
g2
sVReimi Jyahana
p780
g2
sVCaptain commando
p781
g2
sVAlien Queen
p782
g2
sVAgito_of_the_dark
p783
g2
sVSuper soldier
p784
g2
sVMega Vegeta
p785
g2
sVGreat S Man
p786
g2
sVKishima kouma
p787
g2
sVMr. increible
p788
S'0 damage. 0 ai.\n'
p789
sVQuicksilver
p790
g2
sVJohnny cage
p791
g2
sVKing Godzilla
p792
g2
sVSub-Zero
p793
g2
sVHigyo-pam
p794
g2
sVSailor uranus
p795
g2
sVOnslaught
p796
g2
sVDaimon 71113
p797
g2
sVDr Gero and 20
p798
g2
sVDragon claw
p799
g2
sVSaiki
p800
g2
sVSuper androide 17 hd
p801
g2
sVZarbom
p802
g2
sVWonder woman
p803
S"I think there's a fake wonderwoman.\n"
p804
sVBlack widow
p805
g2
sVDeath Ogre
p806
g2
sVArrange_kano
p807
g2
sVShadow Vegeta
p808
g2
sVLetty whiterock
p809
S'has a dash, but no discernible damage moves.\n'
p810
sVUbu
p811
g2
sVMorfo
p812
g2
sVTetuwo
p813
g2
sVRiot
p814
g2
sVMr. Fantastic
p815
g2
sVVoid
p816
g2
sVAndore Jr
p817
g2
sVSsj4gohan
p818
g2
sVBlack manta
p819
g2
sVB. magic girl
p820
g2
sVGuile Machine
p821
g2
sVLei lei
p822
g2
sVMorrigan
p823
g2
sVMarisa Kirisame
p824
g2
sVSion
p825
g2
sVMestre Kame
p826
g2
sVYashaoh
p827
g2
sV*Nanaya
p828
g2
sVTenshi
p829
g2
sVDocOck
p830
g2
sV*Piccolo Daimaoh
p831
g2
sVZeeky h. bomb
p832
g2
sVLesty
p833
g2
sVYuri di AAAA
p834
g2
sVAnji
p835
g2
sVJin Saotome
p836
g2
sVSuwako moriya
p837
g2
sVSaya
p838
g2
sVJotaro Kujo
p839
g2
sVMega Lilde
p840
g2
sV*Jay Garrick
p841
g2
sVKid Gohan
p842
g2
sVNeco-arc chaos
p843
g2
sVHel'lauren
p844
g2
sVUsapi
p845
g2
sVWar machine
p846
g2
sVJudith
p847
g2
sVBasara
p848
g2
sVYumi
p849
g2
sVChibi Gohan Nex
p850
g2
sV*Sagat MB-02
p851
g2
sVVegeta Normal 3
p852
g2
sVMurasa
p853
g2
sVTabasa
p854
g2
sVBattousai
p855
g2
sVYoshikage Killa
p856
g2
sVNoriaki Kakyoin
p857
g2
sVJoseph the BB
p858
g2
sVFox mccloud
p859
g2
sVNate summers
p860
g2
sVGod yuri
p861
g2
sVUryuu
p862
g2
sVRox Howard Clones
p863
g2
sVcellhd\u005ccellhd.def
p864
g2
sVE. honda
p865
g2
sVKikuri
p866
g2
sVEvil ranger
p867
g2
sVYellow-pipo
p868
g2
sVM. bison
p869
g2
sVRai
p870
g2
sVBerserk
p871
g2
sVAntman
p872
g2
sVCyborg Mai
p873
g2
sVHeita zinnai
p874
g2
sVWaha-
p875
S'slow, shit AI, no mexidamage\n'
p876
sVStrider hien
p877
g2
sVVanilla h
p878
g2
sVSaori - Athena
p879
g2
sVAkuma
p880
g2
sVNoroko
p881
g2
sVH-duolon
p882
g2
sVGreen Lantern JS
p883
g2
sVFerroman
p884
g2
sVSub zero
p885
g2
sVRock
p886
g2
sVLeonardo
p887
g2
sVJo jo
p888
g2
sVXP Pro
p889
g2
sVBoo ssj
p890
g2
sVT.hawk
p891
g2
sVPepe
p892
g2
sVStorm
p893
g2
sVViuda Negra
p894
g2
sVLord Shaolin Lee
p895
g2
sVJack frost
p896
g2
sVChouji
p897
g2
sVLilith
p898
g2
sVMedicine melancholy
p899
g2
sVAstaroth
p900
g2
sVBra 1
p901
g2
sVBra 2
p902
g2
sVTails
p903
g2
sVSagat
p904
g2
sVSasquatch
p905
g2
sVCyborg_Mai
p906
g2
sVKagome
p907
g2
sVAmingo
p908
g2
sVGoku ssj gt
p909
g2
sVKazuki
p910
g2
sVWing zero
p911
g2
sVHyoga De Cisne
p912
g2
sVMokou
p913
g2
sVPrime Sentinels
p914
g2
sVRinfa
p915
g2
sVJin kazama
p916
g2
sVKenshirou
p917
g2
sVGeese
p918
g2
sVNanoha xp
p919
g2
sVPiccolo SB1
p920
g2
sVYagumo
p921
g2
sVJimmy lee
p922
g2
sVSaito
p923
g2
sVEddie
p924
g2
sVSylphie
p925
g2
sVZantetsu
p926
g2
sVOozura Vegeta
p927
g2
sVBaldhead
p928
g2
sVHina
p929
g2
sVBlob
p930
g2
sVGuile
p931
g2
sVAnnie murakami
p932
g2
sVNate
p933
g2
sVRubber soul
p934
g2
sVTung fu rue
p935
g2
sVMega and.18
p936
g2
sVChosu
p937
g2
sVBurta
p938
g2
sVSaori-Athena
p939
g2
sVSymbiote onslaught
p940
g2
sVAlex
p941
g2
sVMaster Hand
p942
g2
sVDio di musca
p943
g2
sVu
p944
g2
sVDocock
p945
g2
sVBra
p946
g2
sVTensinhan
p947
g2
sVFelicia
p948
g2
sVFreeza 1st form
p949
g2
sVUnknown
p950
g2
sVFirestar
p951
g2
sVShin Gouki
p952
g2
sVBin laden
p953
g2
sVChibi trunks
p954
g2
sVKid gohan ssj1
p955
g2
sVUtsuho reiuji
p956
g2
sVTaki
p957
g2
sV*Super Vegeta
p958
g2
sVVegeta sb1
p959
g2
sVFio
p960
g2
sVMeta-knight
p961
g2
sVElla
p962
g2
sVHuman Torch
p963
g2
sVAchi cirno
p964
g2
sVAkiha
p965
g2
sVKung lao
p966
g2
sVVegeta
p967
g2
sVOrione
p968
g2
sVAngus
p969
g2
sVJay Garrick
p970
g2
sVDante
p971
g2
sVHomero
p972
g2
sVHiedano akyu
p973
g2
sVRamon and Daimon 71113
p974
g2
sVArchetype:earth
p975
g2
sVGreen Arrow
p976
g2
sVDarkon
p977
g2
sVSpiderman 2099
p978
g2
sVVita
p979
g2
sVSuika ibuki
p980
g2
sVKnuckles
p981
S"suuuuuuuucks a lot\nthis guy is so shitty I have no idea where he got 13 wins.  he's good for hitboxing i guess?  maybe there are 2 knuckles.\n"
p982
sVThe Joker
p983
g2
sVBlack Cat
p984
g2
sVUltra SSJ5 Vegeta
p985
g2
sVKyon
p986
g2
sVDiablo_skeleton
p987
g2
sVDoparmin
p988
g2
sVCrono
p989
g2
sVGlacius
p990
g2
sVHelion
p991
g2
sVInuzuka kiba
p992
g2
sVYamiyuki
p993
g2
sVCharlie
p994
g2
sVComplete Cell
p995
g2
sVMike Tyson
p996
g2
sVBig Chicken
p997
g2
sV95 no danna
p998
g2
sVMaster Sakura
p999
g2
sVArthur
p1000
g2
sVArcher
p1001
g2
sVKunagi_tenrou
p1002
g2
sVClark
p1003
g2
sVGoku kid
p1004
g2
sVBizarro
p1005
g2
sVZappa
p1006
g2
sVSimba
p1007
g2
sVVegeta ultra ssj
p1008
S'mexibeam can get bash-cancelled by fast chars\nGREAT UPSET POTENTIAL THOUGH - WON ME AN UPSET WITH MB\n'
p1009
sVVictor
p1010
g2
sVGoku gt ssj3
p1011
g2
sVShin Ryu
p1012
g2
sVBastion
p1013
g2
sVYuyuko saigyouji
p1014
S'Somewhat melee touhou.  can knowckback stun.\n'
p1015
sVYellow devil
p1016
g2
sV*Yuki
p1017
g2
sVRecoome
p1018
g2
sVGoku kaiouken x4
p1019
g2
sVTewi_inaba
p1020
g2
sVJimmy Lee
p1021
g2
sVModoi-san
p1022
S'shit also has a coinflip ohko/suicide\n'
p1023
sVPaul Phoenix
p1024
g2
sVCyborg_mai
p1025
g2
sVLilith aensland
p1026
g2
sVMega goku
p1027
g2
sVIno
p1028
g2
sVSakura Kinomoto
p1029
g2
sVChaotzu
p1030
g2
sVTenma-sama
p1031
g2
sVCommissioner gordon
p1032
g2
sVUltimate Gohan
p1033
g2
sVDragon guy
p1034
g2
sVArrange_unknown
p1035
S"very good, but I would say she's not THAT good.  could probably be defeated by the true godlikes.\n"
p1036
sVBlack Tiger
p1037
g2
sVMs. fanservice
p1038
g2
sVGreat s. man
p1039
g2
sVChaos blanka
p1040
g2
sVHanyuu
p1041
g2
sVPolaris
p1042
g2
sVMega Weapon
p1043
g2
sVKaede
p1044
g2
sVHonda Asuka
p1045
g2
sVBlack ranger
p1046
g2
sVLisa
p1047
g2
sVBurter
p1048
g2
sVSilver horns
p1049
g2
sVTeam reimisen
p1050
g2
sVKanako yasaka
p1051
g2
sVBlack Adam
p1052
g2
sVHotaru futaba
p1053
g2
sVPegasus di fuoco
p1054
g2
sVNero
p1055
g2
sVShin bison
p1056
g2
sVVanilla ice
p1057
g2
sVSsj goku
p1058
g2
sVCrashman
p1059
S'good interruption vs mexibeams\n'
p1060
sVMidler
p1061
g2
sVGreat Saiyaman
p1062
g2
sVElongated man
p1063
g2
sVPoppy
p1064
g2
sVBenimaru
p1065
g2
sVRobo Rock
p1066
g2
sVShang Tsung
p1067
g2
sVIchijo akari
p1068
g2
sVMarco
p1069
g2
sVMech-hisui
p1070
g2
sVUltimate cap
p1071
g2
sVEnya
p1072
g2
sVFubuki sakuragasaki
p1073
g2
sVM.bison
p1074
S'Koopa troopa\n'
p1075
sVJanemba
p1076
g2
sVTest a.i.
p1077
g2
sVBootleg ryu
p1078
g2
sVLen and w. len
p1079
g2
sVBabidi
p1080
g2
sVJoe Higashi
p1081
g2
sVKyo
p1082
g2
sVKung Lao
p1083
g2
sVEvil Ryu
p1084
g2
sVVoigil
p1085
g2
sVNagato yuki
p1086
g2
sVC-19
p1087
g2
sVAVDOL VER2001
p1088
g2
sVKurihan
p1089
g2
sVHagen
p1090
g2
sVOpera Elmer
p1091
g2
sVTetsuo
p1092
g2
sV2k
p1093
S'lots of health. never gets any attacks off\n'
p1094
sVPunisher
p1095
g2
sVRose
p1096
g2
sVUnzan&ichirin;
p1097
g2
sV*Warmachine
p1098
g2
sVJotaro kujo
p1099
g2
sVMora
p1100
g2
sVSailor mars
p1101
g2
sVAmiba
p1102
g2
sVYuka takeuchi
p1103
g2
sVJason todd
p1104
g2
sVDark psylocke
p1105
g2
sVSsj3 goku
p1106
g2
sVSpopovich
p1107
g2
sVRare akuma
p1108
g2
sVLucky 711131
p1109
g2
sVShermie
p1110
g2
sVVegeta ssj1
p1111
g2
sVVegeta ssj3
p1112
g2
sVArrange_shiori
p1113
g2
sVVegeta ssj5
p1114
g2
sVVegeta ssj4
p1115
g2
sVMetallo
p1116
g2
sVBlack mask
p1117
g2
sVSalty and Zeroko
p1118
g2
sVShin Ninja Turtle
p1119
g2
sVChang
p1120
g2
sVSynn
p1121
g2
sVKen and Gang
p1122
g2
sVBaitang
p1123
g2
sVRugal
p1124
g2
sVCless alvein
p1125
g2
sVGrover
p1126
g2
sVMyon
p1127
g2
sVEvil dan
p1128
g2
sVSuper sonic
p1129
g2
sVOrchid
p1130
g2
sVM-Vegeta SSJ3
p1131
g2
sVHobgoblin
p1132
g2
sVYumemi
p1133
g2
sVHugo
p1134
S'gets bodied by good faster ai with knockback\n'
p1135
sVI-no
p1136
g2
sVBlaze agent
p1137
g2
sVGod Yuri
p1138
g2
sVCheap boss type
p1139
g2
sVTibigintou
p1140
g2
sVNormal freeza
p1141
g2
sVShin ryu
p1142
g2
sVKarin kanzuki
p1143
g2
sVGoku GT SSJ3
p1144
g2
sVPlastic man
p1145
g2
sVZombie
p1146
g2
sVChibi naruto
p1147
g2
sVNormal Chibi Trunks
p1148
g2
sVS-kyo + Holy Ken
p1149
g2
sVSuper mario
p1150
g2
sVMr. x
p1151
g2
sVGoku nex
p1152
g2
sVSlayer
p1153
g2
sVLion Magnus
p1154
g2
sVShiki vp
p1155
g2
sVGambit
p1156
g2
sVSymbiote spider-man
p1157
g2
sVPossessed heita
p1158
g2
sVZangia
p1159
g2
sVNrvnqsr chaos
p1160
g2
sVKujo Jotaro
p1161
g2
sVSolid snake
p1162
g2
sVGarlic junior
p1163
g2
sVHaruno sakura
p1164
g2
sVGreat Sayaman
p1165
g2
sVGotenks
p1166
g2
sVNakoruru
p1167
g2
sVVenom Scorpion
p1168
g2
sVKimberly
p1169
g2
sVE-102R
p1170
g2
sVMilan Flare
p1171
g2
sVSabretooth
p1172
g2
sVBenimaru_xiii
p1173
g2
sVCrilin sposato
p1174
g2
sVAtusi
p1175
g2
sVPredator
p1176
g2
sVHarpagos
p1177
g2
sVYuki in midday
p1178
g2
sVXp(pro)
p1179
g2
sVKim
p1180
g2
sVChill penguin
p1181
g2
sVHisui&Kohaku;
p1182
g2
sVCaptain marvel
p1183
S'really, really good  crapload of strong fast attacks. tons of damage and gets in your face and has ranged moved.\n'
p1184
sVGohan Zeta
p1185
g2
sVRock Howard
p1186
g2
sVBack beard
p1187
g2
sVBebi vegeta form 1
p1188
g2
sVBlockhead
p1189
g2
sVVega
p1190
g2
sVDink smallwood
p1191
g2
sVRyuuguu rena
p1192
g2
sVEvil Dan
p1193
g2
sVChiel
p1194
g2
sVBatgirl
p1195
g2
sVShangtsung
p1196
g2
sVMajin buu
p1197
g2
sVM Bison
p1198
g2
sVCactuar
p1199
g2
sVInvisible woman
p1200
g2
sVThe nightmare
p1201
g2
sVCloud
p1202
g2
sVGodman
p1203
g2
sVMs. Fanservice
p1204
g2
sVUesugi kensin
p1205
g2
sVNayuki minase
p1206
g2
sVBass
p1207
g2
sVSayuri kurata
p1208
g2
sVInsane Hiryu
p1209
g2
sVYuyuko & youmu
p1210
g2
sVLink
p1211
g2
sVSsj gohan
p1212
g2
sVPatchouli_swr
p1213
g2
sVCrystal
p1214
g2
sVJon talbain
p1215
g2
sVSatsuki
p1216
g2
sVFat albert
p1217
g2
sVHercule gt
p1218
g2
sVChise
p1219
g2
sVHebiitigo
p1220
g2
sVGreen lantern js
p1221
g2
sVFuture trunks
p1222
S'great damage but gets stunlocked easily..\n'
p1223
sVLucky 71113
p1224
g2
sVPaul phoenix
p1225
g2
sVEvil ryu
p1226
g2
sVIori 71113
p1227
g2
sVScorpion
p1228
g2
sVChaos
p1229
S'bad.\n'
p1230
sVBomber Man
p1231
g2
sVVenon
p1232
g2
sVVenom
p1233
g2
sVAnother Jissou Seki
p1234
g2
sVUltimate-gohan
p1235
g2
sVSsj4 goten
p1236
g2
sVHisui&kohaku;
p1237
g2
sVBishamon
p1238
g2
sVSnake Eyes
p1239
g2
sVDonatello
p1240
g2
sVTerry
p1241
g2
sVPsycho weapon
p1242
g2
sVKing
p1243
S'bodied by 2ho (obvs). gets knockbacked hard\n'
p1244
sVYayoi
p1245
g2
sVKino
p1246
g2
sVLizardman
p1247
g2
sVMecha potemkin
p1248
g2
sVLeona
p1249
g2
sVKarnov
p1250
g2
sVOmega Tom Hanks
p1251
g2
sVVegettossj3
p1252
g2
sVPetshop
p1253
g2
sVOozura vegeta
p1254
g2
sVKrusty
p1255
g2
sVKazama kazuki
p1256
g2
sVSuperman
p1257
g2
sVChrisg sakurigan
p1258
g2
sVStrong guy
p1259
g2
sVTen-sing
p1260
g2
sVMajin Buu
p1261
g2
sVMayko
p1262
g2
sVRyu Plus
p1263
g2
sVTakobue
p1264
g2
sVSeravy
p1265
g2
sVVegeta Normal 2
p1266
g2
sVRogue
p1267
g2
sVEmma Frost
p1268
g2
sVGohan School
p1269
g2
sVSajin
p1270
g2
sVKagami kyosuke
p1271
S'fairly slow.  no real burst damage but his super.  all melee.  stands still and guards a lot.\n'
p1272
sVOrochi
p1273
g2
sVTokiko
p1274
g2
sVHeihachi mishima
p1275
g2
sV*Vanilla Ice
p1276
g2
sVMetal Man
p1277
g2
sVShuma gorath
p1278
g2
sVSupergirl
p1279
g2
sVGoku SSJ4
p1280
g2
sVGoku SSJ2
p1281
g2
sVUzumaki naruto
p1282
g2
sVCless Alvein
p1283
g2
sVGoku Nex
p1284
g2
sVSaint kyo
p1285
g2
sVMaster sakura
p1286
g2
sVOrochi iori
p1287
g2
sVMecha Potemkin
p1288
g2
sVMaster hand
p1289
g2
sVTrevor Spacer
p1290
g2
sVKhan
p1291
g2
sVArcueid
p1292
g2
sVEvil Ken and Ryu
p1293
g2
sVGreen goblin
p1294
g2
sVPerfect Storm X
p1295
g2
sVMukai
p1296
g2
sVSlash
p1297
g2
sVIkki
p1298
g2
sVCharizard
p1299
g2
sVFreeza 1st Form
p1300
g2
sVRobert garcia
p1301
g2
sV*Cyborg Superman
p1302
g2
sVThierry henry
p1303
S'how did he get 2 wins?  this guy is in the winless tier\n'
p1304
sVShino
p1305
g2
sVMr burns
p1306
g2
sVGreen lantern
p1307
g2
sVRaphael
p1308
g2
sVChaos Hiryu
p1309
g2
sVSuper Goku
p1310
g2
sV009
p1311
g2
sVHatate_himekaidou
p1312
g2
sVKara Na Hito
p1313
g2
sVNash Shadow
p1314
g2
sVRobo Ky
p1315
g2
sVNeyufeulle
p1316
g2
sVVisbou
p1317
S'winrate says it all.\n'
p1318
sVSol
p1319
g2
sVGiro
p1320
g2
sVBlue ranger
p1321
g2
sVSkull-man
p1322
g2
sVNanaya shiki
p1323
g2
sVSailor Jupiter
p1324
g2
sVGotenks ssj
p1325
g2
sVCaptain Ginyu
p1326
g2
sVRorschach
p1327
g2
sVDeath maul
p1328
g2
sVAbui
p1329
g2
sVE-102r
p1330
g2
sVChipp
p1331
g2
sVDio
p1332
g2
sVDragon Guy
p1333
g2
sVMiss Marvel
p1334
g2
sVBiohazard
p1335
g2
sVSaint Kyo
p1336
g2
sVAndore jr
p1337
g2
sVThor
p1338
g2
sVGold warmachine
p1339
g2
sVGrappler_hiyama
p1340
g2
sVNmori yagami
p1341
g2
sVEdward elrick
p1342
g2
sVSailor moon
p1343
g2
sVSuper-8
p1344
g2
sVArrange_mishio
p1345
g2
sS'Tin s fernandeath'
p1346
S"misspelled\nTin's fernandeath\n"
p1347
sVPachet
p1348
g2
sVSakon
p1349
g2
sVGhost rider
p1350
g2
sV*Donovan
p1351
g2
sVNanase(+d)&mayu;
p1352
g2
sVSamurai Jack
p1353
g2
sVRemilia
p1354
g2
sVSSJ Gohan
p1355
g2
sVAnother Iori
p1356
g2
sVBomber man
p1357
g2
sVDrdoom
p1358
g2
sVYusuke
p1359
g2
sVKoopa Troopa
p1360
g2
sVColossus
p1361
g2
sVCirno
p1362
S'op2ho\n'
p1363
sVBoo
p1364
g2
sVSsj5 goku
p1365
g2
sVGoten gt
p1366
g2
sVPerfect Cell
p1367
g2
sVDeadpool
p1368
g2
sVTrunks
p1369
g2
sVGohan school
p1370
g2
sVRoa
p1371
g2
sVStrong Guy
p1372
g2
sVDaigo
p1373
g2
sVBurai_yamamoto
p1374
g2
sVViuda negra
p1375
g2
sVCell junior
p1376
g2
sVSalty goku
p1377
g2
sVGohan Saiya Jin EX
p1378
g2
sVGundam heavy arms
p1379
g2
sVHuman torch
p1380
g2
sVHal jordan
p1381
g2
sVUsapi-
p1382
g2
sVMSakura + PstormX
p1383
g2
sVLady deathstrike
p1384
g2
sVAkane satomura
p1385
g2
sVBlue destiny 2
p1386
g2
sVMr. fantastic
p1387
g2
sVVulture
p1388
g2
sVMonky d luffy
p1389
g2
sVXanmi chan
p1390
g2
sVChibi gohan nex
p1391
g2
sVSteel
p1392
g2
sVSakura shingouji
p1393
g2
sVSerika
p1394
g2
sVKung fu fiunn
p1395
g2
sVSadClaps + AltAmiba
p1396
g2
sVAura
p1397
g2
sVRayman
p1398
g2
sVTeam nicktoon
p1399
g2
sVArmored Gohan
p1400
g2
sVBoulma
p1401
g2
sVLavos spawn
p1402
S'true godlike.  ranged 2/3 hp gloabl move\n'
p1403
sVZangya
p1404
g2
sVDarkseid
p1405
g2
sVCell Genesis
p1406
g2
sVJ'onn j'onnz
p1407
g2
sVBardock
p1408
g2
sVPiccolo
p1409
g2
sVCaptan Ginew
p1410
g2
sVSpelunker Sensei
p1411
g2
sVVanilla H
p1412
g2
sVAngel ryu
p1413
g2
sVWildcat
p1414
g2
sVKrillin
p1415
g2
sVElisabeth blanctorche xiii
p1416
g2
sVSophitia
p1417
g2
sVPrincess Peach
p1418
g2
sVgohanex\u005cgohanex.def
p1419
g2
sVDare devil
p1420
g2
sVResume before 12:55am
p1421
g2
sVRoomi
p1422
g2
sVChange dragon
p1423
g2
sV*Cammy
p1424
g2
sVThe dazzler
p1425
g2
sVTakuma.s_xiii
p1426
g2
sVGorunks ssj4
p1427
g2
sVNachi
p1428
g2
sVMay
p1429
g2
sVMike tyson
p1430
g2
sVMai
p1431
g2
sVMr Satan
p1432
g2
sVRobo rock
p1433
g2
sVTron Bonne
p1434
g2
sVSentry
p1435
g2
sVWakko
p1436
g2
sVIkisan
p1437
g2
sVGohan saiya-jin ex
p1438
g2
sVPlastic Man
p1439
g2
sVKanae
p1440
g2
sVCc iron clara
p1441
g2
sVPicurin
p1442
g2
sVRikuo
p1443
g2
sVKisume
p1444
g2
sVUppercut
p1445
g2
sVLady Deathstrike
p1446
g2
sVJin
p1447
g2
sVBrimstone
p1448
g2
sVHydra
p1449
g2
sVR Lilith
p1450
g2
sVOrochi akuma
p1451
g2
sVRed cyclone
p1452
g2
sVAyu tsukimiya
p1453
g2
sVShadow Dio
p1454
g2
sVSakura Shingouji
p1455
g2
sVMarvin
p1456
g2
sVZangief sf4
p1457
S'hurts hard, but gets zoned.\n'
p1458
sVNoriaki kakyoin
p1459
g2
sVCyborg superman
p1460
g2
sVAstroboy
p1461
g2
sVLord zedd
p1462
g2
sV*Kim
p1463
g2
sVMugetu
p1464
g2
sVMech Hisui
p1465
g2
sVAngel Ryu
p1466
g2
sVSinestro
p1467
g2
sVAsuta-san
p1468
g2
sVCharlotte
p1469
g2
sVCaptain Marvel
p1470
g2
sVT Kawk
p1471
g2
sVNazrin
p1472
g2
sVGuy gardner
p1473
g2
sVSilversamurai
p1474
g2
sVThe thing
p1475
g2
sVMotokoaoyama
p1476
g2
sVNormal chibi trunks
p1477
g2
sVWarakia
p1478
g2
sVMagus
p1479
g2
sVDoomsday
p1480
g2
sVGoenitz
p1481
g2
sVNaruto
p1482
g2
sVMinis mahn
p1483
g2
sVMarisa
p1484
g2
sVJagi
p1485
g2
sVGreat sayaman
p1486
g2
sVGoku transformer
p1487
g2
sV*Punisher
p1488
g2
sVHokage
p1489
g2
sVArrange_misuzu
p1490
g2
sVOrochi vega
p1491
g2
sVJoseph Joestar
p1492
g2
sVOre
p1493
g2
sVSailor Venus
p1494
g2
sVAndroid 16
p1495
g2
sVAndroid 17
p1496
g2
sVAirman
p1497
g2
sVMars people
p1498
g2
sVTrunks ssj4
p1499
g2
sVAndroid 18
p1500
g2
sVMeirin
p1501
g2
sVUltra ssj5 vegeta
p1502
g2
sVBattlemage_[dnf]
p1503
g2
sVYue
p1504
g2
sVSpenoza
p1505
S'test\n'
p1506
sVZero Hotaru
p1507
g2
sVGotenks gt
p1508
g2
sVFat Albert
p1509
g2
sVHol 'butt king' funtimes
p1510
g2
sVAnnie Murakami
p1511
g2
sVShadow dio
p1512
g2
sVBlossom
p1513
g2
sVReisen
p1514
g2
sVRobert
p1515
g2
sVYoko yuki
p1516
g2
sVHisui
p1517
g2
sVStrider hiryu
p1518
g2
sVMio
p1519
g2
sVRuby heart
p1520
g2
sVLi Sheng Long
p1521
g2
sVDeath ogre
p1522
g2
sVBlanka
p1523
g2
sVOoze-o
p1524
g2
sVJon Talbain
p1525
g2
sVMordecai
p1526
g2
sVVegetto ex
p1527
g2
sVKen
p1528
g2
sV*Bullseye
p1529
g2
sVUppercut x2
p1530
g2
sVKuroko
p1531
g2
sVYuriesbyfe
p1532
S'slow. guards. melee only.no burst damage.slow-paced and fast knockback will definitely ruin her.\n'
p1533
sVSpelunker
p1534
g2
sVKoola
p1535
g2
sVPyro
p1536
g2
sVNobuhiko
p1537
g2
sVGray Fly 1
p1538
g2
sVGray Fly 2
p1539
g2
sVSanae
p1540
g2
sVGuy
p1541
g2
sVDrDoom
p1542
g2
sVTerry bogard
p1543
g2
sVRandy M Green
p1544
g2
sVVidel
p1545
g2
sVAracne de tarantula
p1546
g2
sVMusashi akatsuki
p1547
g2
sVPerfect cell
p1548
g2
sV2ban-tan
p1549
S'better than knuckles\n'
p1550
sVMr Karate
p1551
g2
sVTakakazu Abe
p1552
g2
sVZangief Maskered
p1553
g2
sVWhite Len
p1554
g2
sVKoryu
p1555
g2
sVAoko
p1556
g2
sVTalon
p1557
g2
sVBlaster
p1558
g2
sVYuri sakazaki
p1559
g2
sVBeast
p1560
g2
sVAlter amiba
p1561
g2
sVJedah
p1562
g2
sVGoten GT
p1563
g2
sVThunder megazord
p1564
g2
sVKaede_hioh
p1565
g2
sVOjisama-Chaos
p1566
g2
sVBaby commando
p1567
S"blocks.  loses to touhous.  great damage.  but if he's juggled...\n"
p1568
sVShin scrub ken
p1569
g2
sVMoorhunn
p1570
S'THIS BIRD IS LEGITLY GOOD AND HAS HUGE UPSET POTENTIAL.  WHY?  IT CAN FLY INTO THE AIR REALLY HIGH AND NEVER GET HIT.  HOWEVER, IT HAS LIKE 2 HP.  IT ALSO HAS PRETTY MUCH INFINTE STUNLOCK?GREAT AGAINST CHARACTERS WHO ARE GROUND ONLY AND WHOSE MOVES GET CANCELLED EASILY. NOT good if he gets hit twice.A+ upset potential\n'
p1571
sVNatsu
p1572
g2
sVPerfect storm x
p1573
g2
sVEmerl
p1574
g2
sVReptile
p1575
g2
sVKira daidoji
p1576
g2
sVIron lantern
p1577
g2
sVSuperboy
p1578
g2
sVPiccolo Daimaoh
p1579
g2
sVLion magnus
p1580
g2
sVShikamaru
p1581
g2
sVShadow lady
p1582
g2
sVNightcrawler
p1583
g2
sVMega Gohan
p1584
g2
sVMai K
p1585
g2
sVRegina
p1586
g2
sVGoku normal hd
p1587
g2
sVMegaman
p1588
g2
sVButtercup
p1589
g2
sVDudley
p1590
S'slow. melee only. loses to faster.\n'
p1591
sVMillia
p1592
g2
sVWild Ken Ex
p1593
g2
sVKagami Kyosuke
p1594
g2
sVSanzou_kongoumaru
p1595
g2
sVSquall
p1596
g2
sVMaxima
p1597
g2
sVSon goku
p1598
g2
sVHinata
p1599
g2
sVDooby dummy
p1600
g2
sVSolid Snake
p1601
g2
sVChibi Ubuu
p1602
g2
sVHawkman
p1603
g2
sVAnakaris
p1604
g2
sVRobin
p1605
g2
sVAeris ;or if you prefer, use aerith
p1606
g2
sVBaiken
p1607
g2
sVOmega tom hanks
p1608
g2
sVVegeta SSJ3
p1609
g2
sVVegeta SSJ4
p1610
g2
sVEsmeralda
p1611
g2
sVJabu
p1612
g2
sVPhobos
p1613
g2
sVFrog
p1614
g2
sVWolverine
p1615
g2
sVShadowcat
p1616
g2
sVYoutube poop robotnik
p1617
g2
sVSon Trunks
p1618
g2
sVSilver samurai
p1619
g2
sVMirai Trunks
p1620
g2
sVG-akiha
p1621
g2
sVWario
p1622
g2
sVRobo-ky
p1623
g2
sVFordy
p1624
g2
sVKenpachi
p1625
g2
sVBartman
p1626
g2
sVAraki runa
p1627
g2
sVSuper boo
p1628
g2
sVNanoha takamachi
p1629
g2
sVMega gohan
p1630
g2
sVShin mr. karate
p1631
g2
sVClaps + Uppercut
p1632
g2
sVGreat gohan
p1633
g2
sVRadish SSJ4
p1634
g2
sVDark ash
p1635
g2
sVSpider-man 2099
p1636
g2
sVSailor Moon
p1637
g2
sV95 No Danna
p1638
g2
sVDuke nukem
p1639
g2
sVSaori - athena
p1640
g2
sVAmy
p1641
g2
sVIkkaku
p1642
g2
sVTien
p1643
g2
sVD-Rugal
p1644
g2
sVSon Gohan
p1645
g2
sVYuugi
p1646
g2
sV*Emma Frost
p1647
g2
sVNeji
p1648
g2
sVCell Junior
p1649
g2
sVNeodio
p1650
g2
sVShadowman cfas
p1651
g2
sVTara Gyouza
p1652
g2
sVDinozord
p1653
g2
sVVegeth SSJ2
p1654
g2
sVKiller Whale
p1655
g2
sVAnother jissou seki
p1656
g2
sVKy
p1657
g2
sVSailor mercury
p1658
g2
sVTakakazu abe
p1659
g2
sV20 Dr. Gero
p1660
g2
sVMaraiah
p1661
g2
sV*Mr. Fantastic
p1662
g2
sVThanos
p1663
g2
sVPeter
p1664
g2
sVNorimaru
p1665
g2
sVAgony
p1666
g2
sVVanilla Ice
p1667
g2
sVElectro
p1668
g2
sVNorimaro
p1669
g2
sVPan
p1670
g2
sVBlodia
p1671
g2
sVMarvel spider-man
p1672
g2
sVBatman
p1673
g2
sVRed ranger
p1674
g2
sVGogeta super saiyan 3
p1675
g2
sVI-No
p1676
g2
sVSuper Boo
p1677
g2
sVMega vegeta
p1678
g2
sVGohan Grande Normale
p1679
g2
sVRouga(coh)
p1680
g2
sVRuili
p1681
g2
sVGreen Latern GG
p1682
g2
sVPrincess silver
p1683
g2
sVAvdol ver 2001/01/30 by camrat
p1684
g2
sVTemari
p1685
g2
sVRin rin
p1686
g2
sVGoku Sayajin
p1687
g2
sVYoutube Poop Robotnik
p1688
g2
sVBlack Polnareff
p1689
g2
sVRhadamantis
p1690
g2
sVMishio
p1691
g2
sVMexican typhoon
p1692
g2
sVDonald
p1693
g2
sV*Airman
p1694
g2
sVP. chunli
p1695
g2
sVMega And 18
p1696
g2
sVBishop
p1697
S'great moves, decent AI. ranged as well as melee.  decent comboes with pretty good damage.  good zoner with knockback.\n'
p1698
sVByakuya
p1699
g2
sVGotenks SSJ3
p1700
g2
sVAlien queen
p1701
g2
sVChizuru kagura
p1702
g2
sVHercule GT
p1703
g2
sVNamek Gohan
p1704
g2
sVVanessa
p1705
g2
sVUltraman
p1706
g2
sVM-vegeta-ssj3
p1707
g2
sVKamiccolo
p1708
g2
sVMega Piccolo
p1709
g2
sVGonzales
p1710
g2
sVShun
p1711
g2
sVKazuya mishima
p1712
g2
sVShuh
p1713
g2
sVHomer
p1714
g2
sVRimururu
p1715
g2
sVK9999
p1716
g2
sVZaku
p1717
g2
sVGohan GT
p1718
g2
sVKeel
p1719
g2
sVGoku gt
p1720
g2
sVBullseye
p1721
g2
sVE-terry 71113
p1722
g2
sVMai shiranui
p1723
g2
sVStarfire
p1724
g2
sVHaku
p1725
g2
sVYuki in Midday
p1726
g2
sVManbou
p1727
g2
sVNue houjuu
p1728
g2
sVRandy m. green
p1729
g2
sVChibi Goku
p1730
g2
sVSinku
p1731
g2
sVGodzilla
p1732
g2
sVDr Gero
p1733
g2
sVDark Chun Li
p1734
g2
sVSinki
p1735
S'sucks. slow. bad ai. no damage.\n'
p1736
sVLion-o
p1737
g2
sVKoopa Troppa
p1738
g2
sV*Maraiah
p1739
g2
sVAxl
p1740
g2
sVLion-O
p1741
g2
sVMomizi
p1742
g2
sVMystia
p1743
g2
sVTrouble man
p1744
g2
sVGoku SSJ4 DB Final Bout
p1745
g2
sVHol Horse
p1746
g2
sVAndy_xiii
p1747
g2
sVKarin Kanzuki
p1748
g2
sVKid gohan
p1749
g2
sVLou
p1750
g2
sV*Predator
p1751
g2
sVYellow-Pipo
p1752
g2
sVKosmos
p1753
g2
sVRaiden
p1754
g2
sV*Rajaamaki
p1755
g2
sVSpider girl
p1756
g2
sVSsj three broli
p1757
g2
sVD-rugal
p1758
g2
sVG rugal
p1759
g2
sVKensou
p1760
g2
sVDr gero-and20
p1761
g2
sVSenna vp
p1762
g2
sVHel Lauren
p1763
g2
sVRasetsumaru
p1764
g2
sVYamame
p1765
g2
sVRobo-kyii
p1766
g2
sVNrvnqsr Chaos
p1767
g2
sVSonGoku SNK SF
p1768
g2
sVKumao
p1769
g2
sV2Ban-tan
p1770
g2
sVManamana
p1771
g2
sVMagneto
p1772
g2
sVGoku SSJ 3
p1773
g2
sVRusty
p1774
g2
sVMajin Vegeta
p1775
g2
sVSparta_heika
p1776
g2
sVAndroide 17
p1777
g2
sVYoh
p1778
g2
sVAndroide 18
p1779
g2
sVShanghai
p1780
S'huge odds on her. can dish out huge burst damage. can zone and she hurts.  not tanky. deals huge damage at range.\n'
p1781
sV*Kagami Kyosuke
p1782
g2
sVArthas
p1783
g2
sVHads
p1784
g2
sVTenshinham
p1785
g2
sVLobo
p1786
g2
sVGaara
p1787
g2
sVSora
p1788
g2
sVGaits
p1789
g2
sVSailor venus
p1790
g2
sVKiba
p1791
g2
sVYatogi Tetsu
p1792
g2
sVTrunks sb1
p1793
g2
sVSango
p1794
g2
sVShin Bison
p1795
g2
sVHibiki
p1796
g2
sVExocist(dnf)
p1797
S'has regen. wins long fights\n'
p1798
sVButthead
p1799
g2
sVSissy
p1800
g2
sVVenom scorpion
p1801
g2
sVP-gohan ssj2
p1802
g2
sVKyo 71113
p1803
g2
sVOgitafanada
p1804
g2
sVKazama sogetsu
p1805
g2
sVGohan ssj5
p1806
g2
sVGohan ssj4
p1807
g2
sVGohan ssj3
p1808
g2
sVGohan ssj2
p1809
S'I think has a mexibeam, and an almost-mexibeam. maybe 2 mexibeams.\n'
p1810
sVInuzuma Kiba
p1811
g2
sVNick fury
p1812
g2
sVGoku db
p1813
g2
sVSon gohan
p1814
g2
sVGoten gt nex
p1815
g2
sVGreen ranger
p1816
S'can get mildly hitboxed.  slow as fuck shit ai.  black ranger is great damage.\n'
p1817
sVZatanna
p1818
g2
sVMega weapon
p1819
g2
sVGill
p1820
g2
sVLipsyncher
p1821
g2
sVCaptain Caveman
p1822
g2
sV*Human Torch
p1823
g2
sVJudgement
p1824
g2
sVBroken
p1825
g2
sVOpera elmer
p1826
g2
sVDiablo
p1827
g2
sVTin's fernandeath
p1828
g2
sVHeika
p1829
g2
sVMisty
p1830
g2
sVKyo kusanagi
p1831
g2
sVGoku ssj 3
p1832
g2
sVAku-Amakusa
p1833
g2
sVRubber Soul
p1834
g2
sVDeath adder
p1835
g2
sVDet. garret laurel
p1836
g2
sVYellow devil;<-- replace with name to display
p1837
g2
sV*Zangief Maskered
p1838
g2
sVDeath black shot
p1839
g2
sVChaka
p1840
g2
sVLast Adult Goku
p1841
g2
sVRock howard
p1842
g2
sVBaby Commando
p1843
g2
sVDr. Doom
p1844
g2
sVOjisama
p1845
g2
sVSailor Mercury
p1846
g2
sVResume on or after 12:55am
p1847
g2
sVBlack tiger
p1848
g2
sVMiko
p1849
g2
sVChichi
p1850
g2
sVWhite len
p1851
g2
sVLeela
p1852
g2
sVHwa jai
p1853
g2
sVNamazu
p1854
g2
sVSean Matsuda
p1855
g2
sVPiccolo daimaoh
p1856
g2
sVOozaru
p1857
g2
sVPrince vegeta
p1858
g2
sVSSJ4 Gogeta
p1859
g2
sVDrill asamin
p1860
g2
sVOgre
p1861
S'fast lots of melee damage. good if he can get in there\n'
p1862
sVJohnny
p1863
g2
sVWakamoto
p1864
g2
sVGod ken
p1865
g2
sVWindows me
p1866
g2
sVZero
p1867
g2
sVSephiroth
p1868
g2
sVUzumaki Naruto
p1869
g2
sVMars People
p1870
g2
sVShadowman CFAS
p1871
g2
sVJuan
p1872
g2
sVMega Goku
p1873
g2
sVHellboy
p1874
g2
sVRecoom
p1875
g2
sVFoxy
p1876
g2
sVAlter Amiba
p1877
g2
sVWinnie the Pooh
p1878
g2
sVHory marlu
p1879
g2
sVAmi
p1880
g2
sVCartman
p1881
g2
sVYukari_swr
p1882
g2
sVShadir
p1883
g2
sVMestre kame
p1884
g2
sVGinew 1
p1885
g2
sVDark phoenix
p1886
g2
sVGinew 2
p1887
g2
sVInvisible Woman
p1888
g2
sVLynn baker
p1889
g2
sVS.p.o. ryu
p1890
g2
sVGreen arrow
p1891
S'moderate damage, but good range \n'
p1892
sVCyclops
p1893
g2
sVTen
p1894
g2
sVRajaamaki
p1895
g2
sVIvy
p1896
g2
sVRyo
p1897
g2
sVVertigo
p1898
g2
sVCell (2 forma)
p1899
g2
sVPetShop
p1900
g2
sVAoshi
p1901
g2
sVUltron
p1902
g2
sVRyu
p1903
g2
sVGohan gt
p1904
g2
sVGhetto warmachine
p1905
g2
sVArrange_ayu
p1906
g2
sVBack Beard
p1907
g2
sVButt-head
p1908
g2
sVKomepo
p1909
g2
sVMarie
p1910
S'Hirasawa yui\n'
p1911
sVNaruto kun
p1912
g2
sVProfessor x
p1913
g2
sVHeihachi
p1914
g2
sVKujo jotaro
p1915
g2
sVNightwolf
p1916
g2
sVIori yagami
p1917
g2
sVHanny
p1918
g2
sVWell
p1919
g2
sVSaisyuu_dokusyo_bouei_system
p1920
g2
sVWarachia
p1921
g2
sVIk borodin
p1922
g2
sVGoku ssj5
p1923
g2
sVGoku ssj4
p1924
g2
sVGoku ssj3
p1925
g2
sVGoku ssj2
p1926
g2
s.